ARM GAS  C:\Users\wup15j\AppData\Local\Temp\ccuMFPOf.s 			page 1


   1              		.cpu cortex-m3
   2              		.arch armv7-m
   3              		.fpu softvfp
   4              		.eabi_attribute 20, 1
   5              		.eabi_attribute 21, 1
   6              		.eabi_attribute 23, 3
   7              		.eabi_attribute 24, 1
   8              		.eabi_attribute 25, 1
   9              		.eabi_attribute 26, 1
  10              		.eabi_attribute 30, 1
  11              		.eabi_attribute 34, 1
  12              		.eabi_attribute 18, 4
  13              		.file	"canif.c"
  14              		.text
  15              	.Ltext0:
  16              		.cfi_sections	.debug_frame
  17              		.section	.text.CanIf_Transmit,"ax",%progbits
  18              		.align	1
  19              		.global	CanIf_Transmit
  20              		.syntax unified
  21              		.thumb
  22              		.thumb_func
  24              	CanIf_Transmit:
  25              	.LVL0:
  26              	.LFB65:
  27              		.file 1 "Src/canif.c"
   1:Src/canif.c   **** #include "canif.h"
   2:Src/canif.c   **** #include "can.h"
   3:Src/canif.c   **** #include <stdint.h>
   4:Src/canif.c   **** #include <stdbool.h>
   5:Src/canif.c   **** 
   6:Src/canif.c   **** CAN_RxHeaderTypeDef rxHeader;  // ÂÆö‰πâ‰∏Ä‰∏™Áî®‰∫éÂ≠òÂÇ®Êé•Êî∂ CAN Ê∂àÊÅØÂ§¥ÁöÑÂèòÈáè„ÄÇ
   7:Src/canif.c   **** PduInfoTRx CanIfPduInfo;  // ÂÆö‰πâ‰∏Ä‰∏™Áî®‰∫éÂ≠òÂÇ®Êé•Êî∂ CAN Ê∂àÊÅØÊï∞ÊçÆÁöÑÁªìÊûÑ‰ΩìÂèòÈáè„ÄÇ
   8:Src/canif.c   **** extern volatile int8_t CanIf_Rx;  
   9:Src/canif.c   **** Std_ReturnType (*CanTp_Callback)(uint32_t RxPduId, PduInfoTRx* PduInfoPtr) = NULL; 
  10:Src/canif.c   **** 
  11:Src/canif.c   **** #define TX_PDU_ID_TO_STD_ID_TABLE_SIZE (sizeof(TxPduIdToStdIdTable) / sizeof(TxPduIdToStdIdTable[0]
  12:Src/canif.c   **** #define RX_PDU_ID_TO_STD_ID_TABLE_SIZE (sizeof(RxPduIdToStdIdTable) / sizeof(RxPduIdToStdIdTable[0]
  13:Src/canif.c   **** 
  14:Src/canif.c   **** // ÂÆö‰πâÊûö‰∏æÁ±ªÂûãË°®Á§∫‰∏âÁßçÁ±ªÂûã
  15:Src/canif.c   **** typedef enum {
  16:Src/canif.c   ****     APPL,    // Â∫îÁî®Á®ãÂ∫èÁ±ªÂûã
  17:Src/canif.c   ****     NM,     // ÁΩëÁªúÁÆ°ÁêÜÁ±ªÂûã
  18:Src/canif.c   ****     DIAG   // ËØäÊñ≠Á±ªÂûã
  19:Src/canif.c   **** } PduType;
  20:Src/canif.c   **** 
  21:Src/canif.c   **** // ÂÆö‰πâÁªìÊûÑ‰ΩìÂ≠òÂÇ®ID„ÄÅÂÄºÂíåÁ±ªÂûã
  22:Src/canif.c   **** typedef struct {
  23:Src/canif.c   ****     uint32_t pduid;
  24:Src/canif.c   ****     uint32_t stdid;
  25:Src/canif.c   ****     PduType type;
  26:Src/canif.c   **** } PduIdStdId;
  27:Src/canif.c   **** 
  28:Src/canif.c   **** const PduIdStdId RxPduIdToStdIdTable[] = {
  29:Src/canif.c   ****     {0, 0x232, APPL},
  30:Src/canif.c   ****     {1, 0x100, APPL},
  31:Src/canif.c   ****     {2, 0x351, APPL},
ARM GAS  C:\Users\wup15j\AppData\Local\Temp\ccuMFPOf.s 			page 2


  32:Src/canif.c   ****     {3, 0x245, APPL},
  33:Src/canif.c   ****     {4, 0x354, APPL},
  34:Src/canif.c   ****     {5, 0x2FE, APPL},
  35:Src/canif.c   ****     {6, 0x1AA, APPL},
  36:Src/canif.c   ****     {7, 0x523, NM},
  37:Src/canif.c   ****     {8, 0x720, DIAG}
  38:Src/canif.c   **** };
  39:Src/canif.c   **** 
  40:Src/canif.c   **** // ÂàõÂª∫ÁªìÊûÑ‰ΩìÊï∞ÁªÑÂπ∂ÂàùÂßãÂåñÊï∞ÊçÆ (TxPduIdToStdIdTable ‰ªé 0 ÂºÄÂßã)
  41:Src/canif.c   **** const PduIdStdId TxPduIdToStdIdTable[] = {
  42:Src/canif.c   ****     {0, 0x232, APPL},
  43:Src/canif.c   ****     {1, 0x100, APPL},
  44:Src/canif.c   ****     {2, 0x351, APPL},
  45:Src/canif.c   ****     {3, 0x245, APPL},
  46:Src/canif.c   ****     {4, 0x354, APPL},
  47:Src/canif.c   ****     {5, 0x2FE, APPL},
  48:Src/canif.c   ****     {6, 0x1AA, APPL},
  49:Src/canif.c   ****     {7, 0x501, NM},
  50:Src/canif.c   ****     {8, 0x728, DIAG}
  51:Src/canif.c   **** };
  52:Src/canif.c   **** 
  53:Src/canif.c   **** 
  54:Src/canif.c   **** void CanIf_Transmit(uint32_t TxPduId, PduInfoTRx* PduInfoPtr) {
  28              		.loc 1 54 63 view -0
  29              		.cfi_startproc
  30              		@ args = 0, pretend = 0, frame = 32
  31              		@ frame_needed = 0, uses_anonymous_args = 0
  32              		.loc 1 54 63 is_stmt 0 view .LVU1
  33 0000 10B5     		push	{r4, lr}
  34              	.LCFI0:
  35              		.cfi_def_cfa_offset 8
  36              		.cfi_offset 4, -8
  37              		.cfi_offset 14, -4
  38 0002 88B0     		sub	sp, sp, #32
  39              	.LCFI1:
  40              		.cfi_def_cfa_offset 40
  41 0004 0C46     		mov	r4, r1
  55:Src/canif.c   ****     CAN_TxHeaderTypeDef txHeader;
  42              		.loc 1 55 5 is_stmt 1 view .LVU2
  56:Src/canif.c   ****     uint32_t txMailbox;
  43              		.loc 1 56 5 view .LVU3
  57:Src/canif.c   ****     bool found = false;
  44              		.loc 1 57 5 view .LVU4
  45              	.LVL1:
  58:Src/canif.c   ****     for (int i = 0; i < TX_PDU_ID_TO_STD_ID_TABLE_SIZE; i++) {
  46              		.loc 1 58 5 view .LVU5
  47              	.LBB2:
  48              		.loc 1 58 10 view .LVU6
  49              		.loc 1 58 14 is_stmt 0 view .LVU7
  50 0006 0023     		movs	r3, #0
  51              	.LVL2:
  52              	.L2:
  53              		.loc 1 58 21 is_stmt 1 discriminator 1 view .LVU8
  54              		.loc 1 58 5 is_stmt 0 discriminator 1 view .LVU9
  55 0008 082B     		cmp	r3, #8
  56 000a 22D8     		bhi	.L9
  59:Src/canif.c   ****         if (TxPduId == TxPduIdToStdIdTable[i].pduid) {
ARM GAS  C:\Users\wup15j\AppData\Local\Temp\ccuMFPOf.s 			page 3


  57              		.loc 1 59 9 is_stmt 1 view .LVU10
  58              		.loc 1 59 46 is_stmt 0 view .LVU11
  59 000c 03EB430C 		add	ip, r3, r3, lsl #1
  60 0010 124A     		ldr	r2, .L11
  61 0012 52F82C20 		ldr	r2, [r2, ip, lsl #2]
  62              		.loc 1 59 12 view .LVU12
  63 0016 8242     		cmp	r2, r0
  64 0018 01D0     		beq	.L10
  58:Src/canif.c   ****     for (int i = 0; i < TX_PDU_ID_TO_STD_ID_TABLE_SIZE; i++) {
  65              		.loc 1 58 57 is_stmt 1 discriminator 2 view .LVU13
  58:Src/canif.c   ****     for (int i = 0; i < TX_PDU_ID_TO_STD_ID_TABLE_SIZE; i++) {
  66              		.loc 1 58 58 is_stmt 0 discriminator 2 view .LVU14
  67 001a 0133     		adds	r3, r3, #1
  68              	.LVL3:
  58:Src/canif.c   ****     for (int i = 0; i < TX_PDU_ID_TO_STD_ID_TABLE_SIZE; i++) {
  69              		.loc 1 58 58 discriminator 2 view .LVU15
  70 001c F4E7     		b	.L2
  71              	.L10:
  60:Src/canif.c   ****             txHeader.StdId = TxPduIdToStdIdTable[i].stdid;
  72              		.loc 1 60 13 is_stmt 1 view .LVU16
  73              		.loc 1 60 52 is_stmt 0 view .LVU17
  74 001e 0F4A     		ldr	r2, .L11
  75 0020 02EB8C03 		add	r3, r2, ip, lsl #2
  76              	.LVL4:
  77              		.loc 1 60 52 view .LVU18
  78 0024 5B68     		ldr	r3, [r3, #4]
  79              		.loc 1 60 28 view .LVU19
  80 0026 0293     		str	r3, [sp, #8]
  61:Src/canif.c   ****             found = true;
  81              		.loc 1 61 13 is_stmt 1 view .LVU20
  82              	.LVL5:
  62:Src/canif.c   ****             break;
  83              		.loc 1 62 13 view .LVU21
  84              		.loc 1 62 13 is_stmt 0 view .LVU22
  85              	.LBE2:
  63:Src/canif.c   ****         }
  64:Src/canif.c   ****     }
  65:Src/canif.c   ****     if (!found) {
  86              		.loc 1 65 5 is_stmt 1 view .LVU23
  66:Src/canif.c   ****         Error_Handler();
  67:Src/canif.c   ****         return;
  68:Src/canif.c   ****     }
  69:Src/canif.c   **** 
  70:Src/canif.c   ****     txHeader.ExtId = 0x00;
  87              		.loc 1 70 5 view .LVU24
  88              		.loc 1 70 20 is_stmt 0 view .LVU25
  89 0028 0023     		movs	r3, #0
  90 002a 0393     		str	r3, [sp, #12]
  71:Src/canif.c   ****     txHeader.IDE = CAN_ID_STD;
  91              		.loc 1 71 5 is_stmt 1 view .LVU26
  92              		.loc 1 71 18 is_stmt 0 view .LVU27
  93 002c 0493     		str	r3, [sp, #16]
  72:Src/canif.c   ****     txHeader.RTR = CAN_RTR_DATA;
  94              		.loc 1 72 5 is_stmt 1 view .LVU28
  95              		.loc 1 72 18 is_stmt 0 view .LVU29
  96 002e 0593     		str	r3, [sp, #20]
  73:Src/canif.c   ****     txHeader.DLC = 8;
ARM GAS  C:\Users\wup15j\AppData\Local\Temp\ccuMFPOf.s 			page 4


  97              		.loc 1 73 5 is_stmt 1 view .LVU30
  98              		.loc 1 73 18 is_stmt 0 view .LVU31
  99 0030 0823     		movs	r3, #8
 100 0032 0693     		str	r3, [sp, #24]
  74:Src/canif.c   **** 
  75:Src/canif.c   ****     while (HAL_CAN_GetTxMailboxesFreeLevel(&hcan) == 0);
 101              		.loc 1 75 5 is_stmt 1 view .LVU32
 102              	.LVL6:
 103              	.L4:
 104              		.loc 1 75 56 discriminator 1 view .LVU33
 105              		.loc 1 75 11 discriminator 1 view .LVU34
 106              		.loc 1 75 12 is_stmt 0 discriminator 1 view .LVU35
 107 0034 0A48     		ldr	r0, .L11+4
 108 0036 FFF7FEFF 		bl	HAL_CAN_GetTxMailboxesFreeLevel
 109              	.LVL7:
 110              		.loc 1 75 11 discriminator 1 view .LVU36
 111 003a 0028     		cmp	r0, #0
 112 003c FAD0     		beq	.L4
  76:Src/canif.c   **** 
  77:Src/canif.c   ****     if (HAL_CAN_AddTxMessage(&hcan, &txHeader, PduInfoPtr->Data, &txMailbox) != HAL_OK) {
 113              		.loc 1 77 5 is_stmt 1 view .LVU37
 114              		.loc 1 77 9 is_stmt 0 view .LVU38
 115 003e 01AB     		add	r3, sp, #4
 116 0040 2246     		mov	r2, r4
 117 0042 02A9     		add	r1, sp, #8
 118 0044 0648     		ldr	r0, .L11+4
 119 0046 FFF7FEFF 		bl	HAL_CAN_AddTxMessage
 120              	.LVL8:
 121              		.loc 1 77 8 view .LVU39
 122 004a 20B1     		cbz	r0, .L1
  78:Src/canif.c   ****         Error_Handler();
 123              		.loc 1 78 9 is_stmt 1 view .LVU40
 124 004c FFF7FEFF 		bl	Error_Handler
 125              	.LVL9:
 126 0050 01E0     		b	.L1
 127              	.LVL10:
 128              	.L9:
  65:Src/canif.c   ****         Error_Handler();
 129              		.loc 1 65 5 view .LVU41
  66:Src/canif.c   ****         return;
 130              		.loc 1 66 9 view .LVU42
 131 0052 FFF7FEFF 		bl	Error_Handler
 132              	.LVL11:
  67:Src/canif.c   ****     }
 133              		.loc 1 67 9 view .LVU43
 134              	.L1:
  79:Src/canif.c   ****     }
  80:Src/canif.c   **** }
 135              		.loc 1 80 1 is_stmt 0 view .LVU44
 136 0056 08B0     		add	sp, sp, #32
 137              	.LCFI2:
 138              		.cfi_def_cfa_offset 8
 139              		@ sp needed
 140 0058 10BD     		pop	{r4, pc}
 141              	.LVL12:
 142              	.L12:
 143              		.loc 1 80 1 view .LVU45
ARM GAS  C:\Users\wup15j\AppData\Local\Temp\ccuMFPOf.s 			page 5


 144 005a 00BF     		.align	2
 145              	.L11:
 146 005c 00000000 		.word	.LANCHOR0
 147 0060 00000000 		.word	hcan
 148              		.cfi_endproc
 149              	.LFE65:
 151              		.section	.text.CanIf_Receive,"ax",%progbits
 152              		.align	1
 153              		.global	CanIf_Receive
 154              		.syntax unified
 155              		.thumb
 156              		.thumb_func
 158              	CanIf_Receive:
 159              	.LFB66:
  81:Src/canif.c   **** 
  82:Src/canif.c   **** 
  83:Src/canif.c   **** 
  84:Src/canif.c   **** void CanIf_Receive() {
 160              		.loc 1 84 22 is_stmt 1 view -0
 161              		.cfi_startproc
 162              		@ args = 0, pretend = 0, frame = 0
 163              		@ frame_needed = 0, uses_anonymous_args = 0
 164 0000 38B5     		push	{r3, r4, r5, lr}
 165              	.LCFI3:
 166              		.cfi_def_cfa_offset 16
 167              		.cfi_offset 3, -16
 168              		.cfi_offset 4, -12
 169              		.cfi_offset 5, -8
 170              		.cfi_offset 14, -4
 171 0002 0024     		movs	r4, #0
 172 0004 24E0     		b	.L22
 173              	.LVL13:
 174              	.L27:
 175              	.LBB3:
 176              	.LBB4:
  85:Src/canif.c   ****     uint32_t PDU_ID;  // ÂÆö‰πâ‰∏Ä‰∏™ÂèòÈáèÁî®‰∫éÂ≠òÂÇ®Êé•Êî∂ÁöÑ PDU ID
  86:Src/canif.c   ****     PduType PDU_TYPE;
  87:Src/canif.c   ****     while (1) {
  88:Src/canif.c   ****         // Ê£ÄÊü•ÊòØÂê¶Êé•Êî∂Âà∞ CAN Ê∂àÊÅØ
  89:Src/canif.c   ****         if (CanIf_Rx) {
  90:Src/canif.c   ****            //HAL_GPIO_TogglePin(LED_GPIO_Port, LED_Pin);
  91:Src/canif.c   ****             CanIf_Rx = 0;  // ÈáçÁΩÆÊé•Êî∂Ê†áÂøó/
  92:Src/canif.c   ****             CanIfPduInfo.Length = rxHeader.DLC;  // Â∞ÜÊé•Êî∂Âà∞ÁöÑÊ∂àÊÅØÈïøÂ∫¶‰øùÂ≠òÂà∞ PDU ÁªìÊûÑ
  93:Src/canif.c   **** 
  94:Src/canif.c   ****             // ÈÅçÂéÜÊü•ÊâæË°®ÔºåÊ†πÊçÆÊé•Êî∂Âà∞ÁöÑÊ†áÂáÜÊ†áËØÜÁ¨¶Êü•ÊâæÂØπÂ∫îÁöÑ PDU ID
  95:Src/canif.c   ****             PDU_ID = -1;  // ÂàùÂßãÂåñ PDU_ID ‰∏∫Êó†ÊïàÂÄº
  96:Src/canif.c   ****             for (uint32_t i = 0; i < RX_PDU_ID_TO_STD_ID_TABLE_SIZE; ++i) {
  97:Src/canif.c   ****                 if (rxHeader.StdId == RxPduIdToStdIdTable[i].stdid) {
  98:Src/canif.c   ****                     PDU_ID = RxPduIdToStdIdTable[i].pduid;
 177              		.loc 1 98 21 view .LVU47
 178              		.loc 1 98 28 is_stmt 0 view .LVU48
 179 0006 1F4A     		ldr	r2, .L28
 180 0008 5558     		ldr	r5, [r2, r1]
 181              	.LVL14:
  99:Src/canif.c   ****                     PDU_TYPE = RxPduIdToStdIdTable[i].type;
 182              		.loc 1 99 21 is_stmt 1 view .LVU49
 183              		.loc 1 99 30 is_stmt 0 view .LVU50
ARM GAS  C:\Users\wup15j\AppData\Local\Temp\ccuMFPOf.s 			page 6


 184 000a 0A44     		add	r2, r2, r1
 185 000c 147A     		ldrb	r4, [r2, #8]	@ zero_extendqisi2
 186              	.LVL15:
 100:Src/canif.c   ****                     break;
 187              		.loc 1 100 21 is_stmt 1 view .LVU51
 188 000e 01E0     		b	.L17
 189              	.LVL16:
 190              	.L26:
 191              		.loc 1 100 21 is_stmt 0 view .LVU52
 192              	.LBE4:
  95:Src/canif.c   ****             for (uint32_t i = 0; i < RX_PDU_ID_TO_STD_ID_TABLE_SIZE; ++i) {
 193              		.loc 1 95 20 view .LVU53
 194 0010 4FF0FF35 		mov	r5, #-1
 195              	.LVL17:
 196              	.L17:
 101:Src/canif.c   ****                 }
 102:Src/canif.c   ****             }
 103:Src/canif.c   ****             
 104:Src/canif.c   ****             if (PDU_ID != -1) {
 197              		.loc 1 104 13 is_stmt 1 view .LVU54
 198              		.loc 1 104 16 is_stmt 0 view .LVU55
 199 0014 B5F1FF3F 		cmp	r5, #-1
 200 0018 17D0     		beq	.L14
 105:Src/canif.c   ****                 HAL_GPIO_TogglePin(LED_GPIO_Port, LED_Pin);
 201              		.loc 1 105 17 is_stmt 1 view .LVU56
 202 001a 4FF40051 		mov	r1, #8192
 203 001e 1A48     		ldr	r0, .L28+4
 204 0020 FFF7FEFF 		bl	HAL_GPIO_TogglePin
 205              	.LVL18:
 106:Src/canif.c   ****                 switch (PDU_TYPE) {
 206              		.loc 1 106 17 view .LVU57
 207 0024 012C     		cmp	r4, #1
 208 0026 10D0     		beq	.L14
 209 0028 022C     		cmp	r4, #2
 210 002a 03D0     		beq	.L19
 211 002c 4CB1     		cbz	r4, .L25
 107:Src/canif.c   ****                     case NM:  
 108:Src/canif.c   ****                         /* if (CanNm_RxCallback != NULL) {
 109:Src/canif.c   ****                         CanNm_RxCallback();
 110:Src/canif.c   ****                     } */
 111:Src/canif.c   ****                         break;
 112:Src/canif.c   **** 
 113:Src/canif.c   ****                     case DIAG:  
 114:Src/canif.c   ****                           if (CanTp_Callback != NULL) {
 115:Src/canif.c   ****                         CanTp_Callback(PDU_ID, &CanIfPduInfo);
 116:Src/canif.c   ****                     }  
 117:Src/canif.c   ****                         break;
 118:Src/canif.c   **** 
 119:Src/canif.c   ****                     case APPL:  
 120:Src/canif.c   ****                         CanIf_Transmit(PDU_ID, &CanIfPduInfo);
 121:Src/canif.c   ****                         break;
 122:Src/canif.c   **** 
 123:Src/canif.c   ****                     default:
 124:Src/canif.c   ****                         Error_Handler();  // Êú™Áü•Á±ªÂûã
 212              		.loc 1 124 25 view .LVU58
 213 002e FFF7FEFF 		bl	Error_Handler
 214              	.LVL19:
ARM GAS  C:\Users\wup15j\AppData\Local\Temp\ccuMFPOf.s 			page 7


 125:Src/canif.c   ****                         break;
 215              		.loc 1 125 25 view .LVU59
 216 0032 0AE0     		b	.L14
 217              	.L19:
 114:Src/canif.c   ****                         CanTp_Callback(PDU_ID, &CanIfPduInfo);
 218              		.loc 1 114 27 view .LVU60
 114:Src/canif.c   ****                         CanTp_Callback(PDU_ID, &CanIfPduInfo);
 219              		.loc 1 114 46 is_stmt 0 view .LVU61
 220 0034 154B     		ldr	r3, .L28+8
 221 0036 1B68     		ldr	r3, [r3]
 114:Src/canif.c   ****                         CanTp_Callback(PDU_ID, &CanIfPduInfo);
 222              		.loc 1 114 30 view .LVU62
 223 0038 3BB1     		cbz	r3, .L14
 115:Src/canif.c   ****                     }  
 224              		.loc 1 115 25 is_stmt 1 view .LVU63
 225 003a 1549     		ldr	r1, .L28+12
 226 003c 2846     		mov	r0, r5
 227 003e 9847     		blx	r3
 228              	.LVL20:
 229 0040 03E0     		b	.L14
 230              	.L25:
 120:Src/canif.c   ****                         break;
 231              		.loc 1 120 25 view .LVU64
 232 0042 1349     		ldr	r1, .L28+12
 233 0044 2846     		mov	r0, r5
 234 0046 FFF7FEFF 		bl	CanIf_Transmit
 235              	.LVL21:
 121:Src/canif.c   **** 
 236              		.loc 1 121 25 view .LVU65
 237              	.L14:
 126:Src/canif.c   ****                 }
 127:Src/canif.c   ****             }
 128:Src/canif.c   ****         }
 129:Src/canif.c   ****         // Âª∂Ëøü 10 ‰∏™Êó∂Èó¥Âçï‰ΩçÔºå‰ª•ÈÅøÂÖçÂç†Áî®ËøáÂ§öÁöÑ CPU ËµÑÊ∫ê
 130:Src/canif.c   ****         vTaskDelay(10);
 238              		.loc 1 130 9 view .LVU66
 239 004a 0A20     		movs	r0, #10
 240 004c FFF7FEFF 		bl	vTaskDelay
 241              	.LVL22:
 242              	.LBE3:
  87:Src/canif.c   ****         // Ê£ÄÊü•ÊòØÂê¶Êé•Êî∂Âà∞ CAN Ê∂àÊÅØ
 243              		.loc 1 87 11 view .LVU67
 244              	.L22:
  85:Src/canif.c   ****     PduType PDU_TYPE;
 245              		.loc 1 85 5 view .LVU68
  86:Src/canif.c   ****     while (1) {
 246              		.loc 1 86 5 view .LVU69
  87:Src/canif.c   ****         // Ê£ÄÊü•ÊòØÂê¶Êé•Êî∂Âà∞ CAN Ê∂àÊÅØ
 247              		.loc 1 87 5 view .LVU70
 248              	.LBB6:
  89:Src/canif.c   ****            //HAL_GPIO_TogglePin(LED_GPIO_Port, LED_Pin);
 249              		.loc 1 89 9 view .LVU71
  89:Src/canif.c   ****            //HAL_GPIO_TogglePin(LED_GPIO_Port, LED_Pin);
 250              		.loc 1 89 13 is_stmt 0 view .LVU72
 251 0050 104B     		ldr	r3, .L28+16
 252 0052 1B78     		ldrb	r3, [r3]	@ zero_extendqisi2
 253 0054 5BB2     		sxtb	r3, r3
ARM GAS  C:\Users\wup15j\AppData\Local\Temp\ccuMFPOf.s 			page 8


  89:Src/canif.c   ****            //HAL_GPIO_TogglePin(LED_GPIO_Port, LED_Pin);
 254              		.loc 1 89 12 view .LVU73
 255 0056 002B     		cmp	r3, #0
 256 0058 F7D0     		beq	.L14
  91:Src/canif.c   ****             CanIfPduInfo.Length = rxHeader.DLC;  // Â∞ÜÊé•Êî∂Âà∞ÁöÑÊ∂àÊÅØÈïøÂ∫¶‰øùÂ≠òÂà∞ PDU ÁªìÊûÑ
 257              		.loc 1 91 13 is_stmt 1 view .LVU74
  91:Src/canif.c   ****             CanIfPduInfo.Length = rxHeader.DLC;  // Â∞ÜÊé•Êî∂Âà∞ÁöÑÊ∂àÊÅØÈïøÂ∫¶‰øùÂ≠òÂà∞ PDU ÁªìÊûÑ
 258              		.loc 1 91 22 is_stmt 0 view .LVU75
 259 005a 0023     		movs	r3, #0
 260 005c 0D4A     		ldr	r2, .L28+16
 261 005e 1370     		strb	r3, [r2]
  92:Src/canif.c   **** 
 262              		.loc 1 92 13 is_stmt 1 view .LVU76
  92:Src/canif.c   **** 
 263              		.loc 1 92 43 is_stmt 0 view .LVU77
 264 0060 0D4A     		ldr	r2, .L28+20
 265 0062 1169     		ldr	r1, [r2, #16]
  92:Src/canif.c   **** 
 266              		.loc 1 92 33 view .LVU78
 267 0064 0A4A     		ldr	r2, .L28+12
 268 0066 9160     		str	r1, [r2, #8]
  95:Src/canif.c   ****             for (uint32_t i = 0; i < RX_PDU_ID_TO_STD_ID_TABLE_SIZE; ++i) {
 269              		.loc 1 95 13 is_stmt 1 view .LVU79
 270              	.LVL23:
  96:Src/canif.c   ****                 if (rxHeader.StdId == RxPduIdToStdIdTable[i].stdid) {
 271              		.loc 1 96 13 view .LVU80
 272              	.LBB5:
  96:Src/canif.c   ****                 if (rxHeader.StdId == RxPduIdToStdIdTable[i].stdid) {
 273              		.loc 1 96 18 view .LVU81
 274              	.L15:
  96:Src/canif.c   ****                 if (rxHeader.StdId == RxPduIdToStdIdTable[i].stdid) {
 275              		.loc 1 96 34 discriminator 1 view .LVU82
  96:Src/canif.c   ****                 if (rxHeader.StdId == RxPduIdToStdIdTable[i].stdid) {
 276              		.loc 1 96 13 is_stmt 0 discriminator 1 view .LVU83
 277 0068 082B     		cmp	r3, #8
 278 006a D1D8     		bhi	.L26
  97:Src/canif.c   ****                     PDU_ID = RxPduIdToStdIdTable[i].pduid;
 279              		.loc 1 97 17 is_stmt 1 view .LVU84
  97:Src/canif.c   ****                     PDU_ID = RxPduIdToStdIdTable[i].pduid;
 280              		.loc 1 97 29 is_stmt 0 view .LVU85
 281 006c 0A4A     		ldr	r2, .L28+20
 282 006e 1068     		ldr	r0, [r2]
  97:Src/canif.c   ****                     PDU_ID = RxPduIdToStdIdTable[i].pduid;
 283              		.loc 1 97 61 view .LVU86
 284 0070 03EB4302 		add	r2, r3, r3, lsl #1
 285 0074 9100     		lsls	r1, r2, #2
 286 0076 034A     		ldr	r2, .L28
 287 0078 0A44     		add	r2, r2, r1
 288 007a 5268     		ldr	r2, [r2, #4]
  97:Src/canif.c   ****                     PDU_ID = RxPduIdToStdIdTable[i].pduid;
 289              		.loc 1 97 20 view .LVU87
 290 007c 9042     		cmp	r0, r2
 291 007e C2D0     		beq	.L27
  96:Src/canif.c   ****                 if (rxHeader.StdId == RxPduIdToStdIdTable[i].stdid) {
 292              		.loc 1 96 70 is_stmt 1 discriminator 2 view .LVU88
 293 0080 0133     		adds	r3, r3, #1
 294              	.LVL24:
ARM GAS  C:\Users\wup15j\AppData\Local\Temp\ccuMFPOf.s 			page 9


  96:Src/canif.c   ****                 if (rxHeader.StdId == RxPduIdToStdIdTable[i].stdid) {
 295              		.loc 1 96 70 is_stmt 0 discriminator 2 view .LVU89
 296 0082 F1E7     		b	.L15
 297              	.L29:
 298              		.align	2
 299              	.L28:
 300 0084 00000000 		.word	.LANCHOR3
 301 0088 00100140 		.word	1073811456
 302 008c 00000000 		.word	.LANCHOR4
 303 0090 00000000 		.word	.LANCHOR2
 304 0094 00000000 		.word	CanIf_Rx
 305 0098 00000000 		.word	.LANCHOR1
 306              	.LBE5:
 307              	.LBE6:
 308              		.cfi_endproc
 309              	.LFE66:
 311              		.section	.text.HAL_CAN_RxFifo0MsgPendingCallback,"ax",%progbits
 312              		.align	1
 313              		.global	HAL_CAN_RxFifo0MsgPendingCallback
 314              		.syntax unified
 315              		.thumb
 316              		.thumb_func
 318              	HAL_CAN_RxFifo0MsgPendingCallback:
 319              	.LVL25:
 320              	.LFB67:
 131:Src/canif.c   ****     }
 132:Src/canif.c   **** }
 133:Src/canif.c   **** 
 134:Src/canif.c   **** 
 135:Src/canif.c   **** void HAL_CAN_RxFifo0MsgPendingCallback(CAN_HandleTypeDef *hcan1){
 321              		.loc 1 135 65 is_stmt 1 view -0
 322              		.cfi_startproc
 323              		@ args = 0, pretend = 0, frame = 0
 324              		@ frame_needed = 0, uses_anonymous_args = 0
 325              		.loc 1 135 65 is_stmt 0 view .LVU91
 326 0000 08B5     		push	{r3, lr}
 327              	.LCFI4:
 328              		.cfi_def_cfa_offset 8
 329              		.cfi_offset 3, -8
 330              		.cfi_offset 14, -4
 136:Src/canif.c   ****     if (hcan1->Instance == hcan.Instance) // Ëé∑ÂæóÊé•*Êî∂Âà∞ÁöÑÊï∞ÊçÆÂ§¥ÂíåÊï∞ÊçÆ
 331              		.loc 1 136 5 is_stmt 1 view .LVU92
 332              		.loc 1 136 14 is_stmt 0 view .LVU93
 333 0002 0268     		ldr	r2, [r0]
 334              		.loc 1 136 32 view .LVU94
 335 0004 084B     		ldr	r3, .L34
 336 0006 1B68     		ldr	r3, [r3]
 337              		.loc 1 136 8 view .LVU95
 338 0008 9A42     		cmp	r2, r3
 339 000a 03D0     		beq	.L33
 340              	.LVL26:
 341              	.L31:
 137:Src/canif.c   ****     {
 138:Src/canif.c   ****     // Â∞ùËØï‰ªé FIFO0 ‰∏≠Ëé∑Âèñ‰∏ÄÊù° CAN Ê∂àÊÅØ
 139:Src/canif.c   **** 	if (HAL_CAN_GetRxMessage(hcan1, CAN_RX_FIFO0, &rxHeader, CanIfPduInfo.Data) != HAL_OK) {
 140:Src/canif.c   **** 		// Â¶ÇÊûúËé∑ÂèñÊ∂àÊÅØÂ§±Ë¥•ÔºåË∞ÉÁî®ÈîôËØØÂ§ÑÁêÜÂáΩÊï∞
 141:Src/canif.c   **** 		Error_Handler();
ARM GAS  C:\Users\wup15j\AppData\Local\Temp\ccuMFPOf.s 			page 10


 142:Src/canif.c   **** 	}
 143:Src/canif.c   ****     // ËÆæÁΩÆÊé•Êî∂Ê†áÂøó‰∏∫ 1ÔºåË°®Á§∫ÊúâÊ∂àÊÅØÊé•Êî∂Âà∞‰∫Ü
 144:Src/canif.c   ****     }
 145:Src/canif.c   ****     CanIf_Rx = 1;
 342              		.loc 1 145 5 is_stmt 1 view .LVU96
 343              		.loc 1 145 14 is_stmt 0 view .LVU97
 344 000c 074B     		ldr	r3, .L34+4
 345 000e 0122     		movs	r2, #1
 346 0010 1A70     		strb	r2, [r3]
 146:Src/canif.c   **** }
 347              		.loc 1 146 1 view .LVU98
 348 0012 08BD     		pop	{r3, pc}
 349              	.LVL27:
 350              	.L33:
 139:Src/canif.c   **** 		// Â¶ÇÊûúËé∑ÂèñÊ∂àÊÅØÂ§±Ë¥•ÔºåË∞ÉÁî®ÈîôËØØÂ§ÑÁêÜÂáΩÊï∞
 351              		.loc 1 139 2 is_stmt 1 view .LVU99
 139:Src/canif.c   **** 		// Â¶ÇÊûúËé∑ÂèñÊ∂àÊÅØÂ§±Ë¥•ÔºåË∞ÉÁî®ÈîôËØØÂ§ÑÁêÜÂáΩÊï∞
 352              		.loc 1 139 6 is_stmt 0 view .LVU100
 353 0014 064B     		ldr	r3, .L34+8
 354 0016 074A     		ldr	r2, .L34+12
 355 0018 0021     		movs	r1, #0
 356 001a FFF7FEFF 		bl	HAL_CAN_GetRxMessage
 357              	.LVL28:
 139:Src/canif.c   **** 		// Â¶ÇÊûúËé∑ÂèñÊ∂àÊÅØÂ§±Ë¥•ÔºåË∞ÉÁî®ÈîôËØØÂ§ÑÁêÜÂáΩÊï∞
 358              		.loc 1 139 5 view .LVU101
 359 001e 0028     		cmp	r0, #0
 360 0020 F4D0     		beq	.L31
 141:Src/canif.c   **** 	}
 361              		.loc 1 141 3 is_stmt 1 view .LVU102
 362 0022 FFF7FEFF 		bl	Error_Handler
 363              	.LVL29:
 364 0026 F1E7     		b	.L31
 365              	.L35:
 366              		.align	2
 367              	.L34:
 368 0028 00000000 		.word	hcan
 369 002c 00000000 		.word	CanIf_Rx
 370 0030 00000000 		.word	.LANCHOR2
 371 0034 00000000 		.word	.LANCHOR1
 372              		.cfi_endproc
 373              	.LFE67:
 375              		.section	.text.CanIf_setCallback,"ax",%progbits
 376              		.align	1
 377              		.global	CanIf_setCallback
 378              		.syntax unified
 379              		.thumb
 380              		.thumb_func
 382              	CanIf_setCallback:
 383              	.LVL30:
 384              	.LFB68:
 147:Src/canif.c   **** 
 148:Src/canif.c   **** /*// Â¶ÇÊûúÂèëÈÄÅÊàêÂäüÔºåÂπ∂‰∏îÈÖçÁΩÆ‰∫Ü‰º†ËæìÂÆåÊàêÂõûË∞ÉÔºåÂàôË∞ÉÁî®‰º†ËæìÂÆåÊàêÂõûË∞É
 149:Src/canif.c   **** 	else if(CanNm_TxCallback != NULL && TxPduId == 1){
 150:Src/canif.c   ****         
 151:Src/canif.c   **** 		CanNm_TxCallback();
 152:Src/canif.c   **** 	}
 153:Src/canif.c   **** 	l*/
ARM GAS  C:\Users\wup15j\AppData\Local\Temp\ccuMFPOf.s 			page 11


 154:Src/canif.c   **** //	HAL_GPIO_WritePin(GPIOA, GPIO_PIN_5, 1);  // (Ê≥®ÈáäÊéâÁöÑ‰ª£Á†Å) ÂèØ‰ª•Áî®‰∫éÂú®ÂèëÈÄÅÊ∂àÊÅØÂêé
 155:Src/canif.c   **** 
 156:Src/canif.c   **** // ËÆæÁΩÆ CAN Êé•Êî∂ÂõûË∞ÉÂáΩÊï∞1
 157:Src/canif.c   **** void CanIf_setCallback(Std_ReturnType (*IF_Callback)(uint32_t RxPduId, PduInfoTRx* PduInfoPtr)){
 385              		.loc 1 157 96 view -0
 386              		.cfi_startproc
 387              		@ args = 0, pretend = 0, frame = 0
 388              		@ frame_needed = 0, uses_anonymous_args = 0
 389              		@ link register save eliminated.
 158:Src/canif.c   **** 	if(IF_Callback != NULL)
 390              		.loc 1 158 2 view .LVU104
 391              		.loc 1 158 4 is_stmt 0 view .LVU105
 392 0000 08B1     		cbz	r0, .L36
 159:Src/canif.c   **** 	{
 160:Src/canif.c   **** 		CanTp_Callback = IF_Callback ;  // Â¶ÇÊûú‰º†ÂÖ•ÁöÑÂõûË∞ÉÂáΩÊï∞ÊåáÈíà‰∏ç‰∏∫Á©∫ÔºåÂàôÂ∞ÜÂÖ∂ËÆæÁΩÆ‰∏
 393              		.loc 1 160 3 is_stmt 1 view .LVU106
 394              		.loc 1 160 18 is_stmt 0 view .LVU107
 395 0002 014A     		ldr	r2, .L38
 396 0004 1060     		str	r0, [r2]
 397              	.L36:
 161:Src/canif.c   **** 	}
 162:Src/canif.c   **** }
 398              		.loc 1 162 1 view .LVU108
 399 0006 7047     		bx	lr
 400              	.L39:
 401              		.align	2
 402              	.L38:
 403 0008 00000000 		.word	.LANCHOR4
 404              		.cfi_endproc
 405              	.LFE68:
 407              		.global	TxPduIdToStdIdTable
 408              		.global	RxPduIdToStdIdTable
 409              		.global	CanTp_Callback
 410              		.global	CanIfPduInfo
 411              		.global	rxHeader
 412              		.section	.bss.CanIfPduInfo,"aw",%nobits
 413              		.align	2
 414              		.set	.LANCHOR2,. + 0
 417              	CanIfPduInfo:
 418 0000 00000000 		.space	12
 418      00000000 
 418      00000000 
 419              		.section	.bss.CanTp_Callback,"aw",%nobits
 420              		.align	2
 421              		.set	.LANCHOR4,. + 0
 424              	CanTp_Callback:
 425 0000 00000000 		.space	4
 426              		.section	.bss.rxHeader,"aw",%nobits
 427              		.align	2
 428              		.set	.LANCHOR1,. + 0
 431              	rxHeader:
 432 0000 00000000 		.space	28
 432      00000000 
 432      00000000 
 432      00000000 
 432      00000000 
 433              		.section	.rodata.RxPduIdToStdIdTable,"a"
ARM GAS  C:\Users\wup15j\AppData\Local\Temp\ccuMFPOf.s 			page 12


 434              		.align	2
 435              		.set	.LANCHOR3,. + 0
 438              	RxPduIdToStdIdTable:
 439 0000 00000000 		.word	0
 440 0004 32020000 		.word	562
 441 0008 00       		.byte	0
 442 0009 000000   		.space	3
 443 000c 01000000 		.word	1
 444 0010 00010000 		.word	256
 445 0014 00       		.byte	0
 446 0015 000000   		.space	3
 447 0018 02000000 		.word	2
 448 001c 51030000 		.word	849
 449 0020 00       		.byte	0
 450 0021 000000   		.space	3
 451 0024 03000000 		.word	3
 452 0028 45020000 		.word	581
 453 002c 00       		.byte	0
 454 002d 000000   		.space	3
 455 0030 04000000 		.word	4
 456 0034 54030000 		.word	852
 457 0038 00       		.byte	0
 458 0039 000000   		.space	3
 459 003c 05000000 		.word	5
 460 0040 FE020000 		.word	766
 461 0044 00       		.byte	0
 462 0045 000000   		.space	3
 463 0048 06000000 		.word	6
 464 004c AA010000 		.word	426
 465 0050 00       		.byte	0
 466 0051 000000   		.space	3
 467 0054 07000000 		.word	7
 468 0058 23050000 		.word	1315
 469 005c 01       		.byte	1
 470 005d 000000   		.space	3
 471 0060 08000000 		.word	8
 472 0064 20070000 		.word	1824
 473 0068 02       		.byte	2
 474 0069 000000   		.space	3
 475              		.section	.rodata.TxPduIdToStdIdTable,"a"
 476              		.align	2
 477              		.set	.LANCHOR0,. + 0
 480              	TxPduIdToStdIdTable:
 481 0000 00000000 		.word	0
 482 0004 32020000 		.word	562
 483 0008 00       		.byte	0
 484 0009 000000   		.space	3
 485 000c 01000000 		.word	1
 486 0010 00010000 		.word	256
 487 0014 00       		.byte	0
 488 0015 000000   		.space	3
 489 0018 02000000 		.word	2
 490 001c 51030000 		.word	849
 491 0020 00       		.byte	0
 492 0021 000000   		.space	3
 493 0024 03000000 		.word	3
 494 0028 45020000 		.word	581
ARM GAS  C:\Users\wup15j\AppData\Local\Temp\ccuMFPOf.s 			page 13


 495 002c 00       		.byte	0
 496 002d 000000   		.space	3
 497 0030 04000000 		.word	4
 498 0034 54030000 		.word	852
 499 0038 00       		.byte	0
 500 0039 000000   		.space	3
 501 003c 05000000 		.word	5
 502 0040 FE020000 		.word	766
 503 0044 00       		.byte	0
 504 0045 000000   		.space	3
 505 0048 06000000 		.word	6
 506 004c AA010000 		.word	426
 507 0050 00       		.byte	0
 508 0051 000000   		.space	3
 509 0054 07000000 		.word	7
 510 0058 01050000 		.word	1281
 511 005c 01       		.byte	1
 512 005d 000000   		.space	3
 513 0060 08000000 		.word	8
 514 0064 28070000 		.word	1832
 515 0068 02       		.byte	2
 516 0069 000000   		.space	3
 517              		.text
 518              	.Letext0:
 519              		.file 2 "c:\\program files (x86)\\gnu arm embedded toolchain\\10 2021.10\\arm-none-eabi\\include\\
 520              		.file 3 "c:\\program files (x86)\\gnu arm embedded toolchain\\10 2021.10\\arm-none-eabi\\include\\
 521              		.file 4 "Drivers/CMSIS/Device/ST/STM32F1xx/Include/stm32f103x6.h"
 522              		.file 5 "Drivers/CMSIS/Device/ST/STM32F1xx/Include/stm32f1xx.h"
 523              		.file 6 "Drivers/STM32F1xx_HAL_Driver/Inc/stm32f1xx_hal_def.h"
 524              		.file 7 "Drivers/STM32F1xx_HAL_Driver/Inc/stm32f1xx_hal_can.h"
 525              		.file 8 "Inc/canif.h"
 526              		.file 9 "Inc/can.h"
 527              		.file 10 "Inc/main.h"
 528              		.file 11 "Drivers/STM32F1xx_HAL_Driver/Inc/stm32f1xx_hal_gpio.h"
ARM GAS  C:\Users\wup15j\AppData\Local\Temp\ccuMFPOf.s 			page 14


DEFINED SYMBOLS
                            *ABS*:00000000 canif.c
C:\Users\wup15j\AppData\Local\Temp\ccuMFPOf.s:18     .text.CanIf_Transmit:00000000 $t
C:\Users\wup15j\AppData\Local\Temp\ccuMFPOf.s:24     .text.CanIf_Transmit:00000000 CanIf_Transmit
C:\Users\wup15j\AppData\Local\Temp\ccuMFPOf.s:146    .text.CanIf_Transmit:0000005c $d
C:\Users\wup15j\AppData\Local\Temp\ccuMFPOf.s:152    .text.CanIf_Receive:00000000 $t
C:\Users\wup15j\AppData\Local\Temp\ccuMFPOf.s:158    .text.CanIf_Receive:00000000 CanIf_Receive
C:\Users\wup15j\AppData\Local\Temp\ccuMFPOf.s:300    .text.CanIf_Receive:00000084 $d
C:\Users\wup15j\AppData\Local\Temp\ccuMFPOf.s:312    .text.HAL_CAN_RxFifo0MsgPendingCallback:00000000 $t
C:\Users\wup15j\AppData\Local\Temp\ccuMFPOf.s:318    .text.HAL_CAN_RxFifo0MsgPendingCallback:00000000 HAL_CAN_RxFifo0MsgPendingCallback
C:\Users\wup15j\AppData\Local\Temp\ccuMFPOf.s:368    .text.HAL_CAN_RxFifo0MsgPendingCallback:00000028 $d
C:\Users\wup15j\AppData\Local\Temp\ccuMFPOf.s:376    .text.CanIf_setCallback:00000000 $t
C:\Users\wup15j\AppData\Local\Temp\ccuMFPOf.s:382    .text.CanIf_setCallback:00000000 CanIf_setCallback
C:\Users\wup15j\AppData\Local\Temp\ccuMFPOf.s:403    .text.CanIf_setCallback:00000008 $d
C:\Users\wup15j\AppData\Local\Temp\ccuMFPOf.s:480    .rodata.TxPduIdToStdIdTable:00000000 TxPduIdToStdIdTable
C:\Users\wup15j\AppData\Local\Temp\ccuMFPOf.s:438    .rodata.RxPduIdToStdIdTable:00000000 RxPduIdToStdIdTable
C:\Users\wup15j\AppData\Local\Temp\ccuMFPOf.s:424    .bss.CanTp_Callback:00000000 CanTp_Callback
C:\Users\wup15j\AppData\Local\Temp\ccuMFPOf.s:417    .bss.CanIfPduInfo:00000000 CanIfPduInfo
C:\Users\wup15j\AppData\Local\Temp\ccuMFPOf.s:431    .bss.rxHeader:00000000 rxHeader
C:\Users\wup15j\AppData\Local\Temp\ccuMFPOf.s:413    .bss.CanIfPduInfo:00000000 $d
C:\Users\wup15j\AppData\Local\Temp\ccuMFPOf.s:420    .bss.CanTp_Callback:00000000 $d
C:\Users\wup15j\AppData\Local\Temp\ccuMFPOf.s:427    .bss.rxHeader:00000000 $d
C:\Users\wup15j\AppData\Local\Temp\ccuMFPOf.s:434    .rodata.RxPduIdToStdIdTable:00000000 $d
C:\Users\wup15j\AppData\Local\Temp\ccuMFPOf.s:476    .rodata.TxPduIdToStdIdTable:00000000 $d

UNDEFINED SYMBOLS
HAL_CAN_GetTxMailboxesFreeLevel
HAL_CAN_AddTxMessage
Error_Handler
hcan
HAL_GPIO_TogglePin
vTaskDelay
CanIf_Rx
HAL_CAN_GetRxMessage
