ARM GAS  C:\Users\wup15j\AppData\Local\Temp\ccH4hPBZ.s 			page 1


   1              		.cpu cortex-m3
   2              		.arch armv7-m
   3              		.fpu softvfp
   4              		.eabi_attribute 20, 1
   5              		.eabi_attribute 21, 1
   6              		.eabi_attribute 23, 3
   7              		.eabi_attribute 24, 1
   8              		.eabi_attribute 25, 1
   9              		.eabi_attribute 26, 1
  10              		.eabi_attribute 30, 1
  11              		.eabi_attribute 34, 1
  12              		.eabi_attribute 18, 4
  13              		.file	"canif.c"
  14              		.text
  15              	.Ltext0:
  16              		.cfi_sections	.debug_frame
  17              		.section	.text.CanIf_Transmit,"ax",%progbits
  18              		.align	1
  19              		.global	CanIf_Transmit
  20              		.syntax unified
  21              		.thumb
  22              		.thumb_func
  24              	CanIf_Transmit:
  25              	.LVL0:
  26              	.LFB65:
  27              		.file 1 "Src/canif.c"
   1:Src/canif.c   **** #include "canif.h"
   2:Src/canif.c   **** #include "can.h"
   3:Src/canif.c   **** #include <stdint.h>
   4:Src/canif.c   **** #include <stdbool.h>
   5:Src/canif.c   **** 
   6:Src/canif.c   **** CAN_RxHeaderTypeDef rxHeader;  
   7:Src/canif.c   **** PduInfoTRx CanIfPduInfo;  
   8:Src/canif.c   **** extern volatile int8_t CanIf_Rx;  
   9:Src/canif.c   **** Std_ReturnType (*CanTp_Callback)(uint32_t RxPduId, PduInfoTRx* PduInfoPtr) = NULL; 
  10:Src/canif.c   **** 
  11:Src/canif.c   **** #define TX_PDU_ID_TO_STD_ID_TABLE_SIZE (sizeof(TxPduIdToStdIdTable) / sizeof(TxPduIdToStdIdTable[0]
  12:Src/canif.c   **** #define RX_PDU_ID_TO_STD_ID_TABLE_SIZE (sizeof(RxPduIdToStdIdTable) / sizeof(RxPduIdToStdIdTable[0]
  13:Src/canif.c   **** 
  14:Src/canif.c   **** typedef enum {
  15:Src/canif.c   ****     APPL,    
  16:Src/canif.c   ****     NM,     
  17:Src/canif.c   ****     DIAG   
  18:Src/canif.c   **** } PduType;
  19:Src/canif.c   **** 
  20:Src/canif.c   **** typedef struct {
  21:Src/canif.c   ****     uint32_t pduid;
  22:Src/canif.c   ****     uint32_t stdid;
  23:Src/canif.c   ****     PduType type;
  24:Src/canif.c   **** } PduIdStdId;
  25:Src/canif.c   **** 
  26:Src/canif.c   **** const PduIdStdId RxPduIdToStdIdTable[] = {
  27:Src/canif.c   ****     {0, 0x232, APPL},
  28:Src/canif.c   ****     {1, 0x100, APPL},
  29:Src/canif.c   ****     {2, 0x351, APPL},
  30:Src/canif.c   ****     {3, 0x245, APPL},
  31:Src/canif.c   ****     {4, 0x354, APPL},
ARM GAS  C:\Users\wup15j\AppData\Local\Temp\ccH4hPBZ.s 			page 2


  32:Src/canif.c   ****     {5, 0x2FE, APPL},
  33:Src/canif.c   ****     {6, 0x1AA, APPL},
  34:Src/canif.c   ****     {7, 0x523, NM},
  35:Src/canif.c   ****     {8, 0x720, DIAG}
  36:Src/canif.c   **** };
  37:Src/canif.c   **** 
  38:Src/canif.c   **** const PduIdStdId TxPduIdToStdIdTable[] = {
  39:Src/canif.c   ****     {0, 0x232, APPL},
  40:Src/canif.c   ****     {1, 0x100, APPL},
  41:Src/canif.c   ****     {2, 0x351, APPL},
  42:Src/canif.c   ****     {3, 0x245, APPL},
  43:Src/canif.c   ****     {4, 0x354, APPL},
  44:Src/canif.c   ****     {5, 0x2FE, APPL},
  45:Src/canif.c   ****     {6, 0x1AA, APPL},
  46:Src/canif.c   ****     {7, 0x501, NM},
  47:Src/canif.c   ****     {8, 0x728, DIAG}
  48:Src/canif.c   **** };
  49:Src/canif.c   **** 
  50:Src/canif.c   **** void CanIf_Transmit(uint32_t TxPduId, PduInfoTRx* PduInfoPtr) {
  28              		.loc 1 50 63 view -0
  29              		.cfi_startproc
  30              		@ args = 0, pretend = 0, frame = 32
  31              		@ frame_needed = 0, uses_anonymous_args = 0
  32              		.loc 1 50 63 is_stmt 0 view .LVU1
  33 0000 10B5     		push	{r4, lr}
  34              	.LCFI0:
  35              		.cfi_def_cfa_offset 8
  36              		.cfi_offset 4, -8
  37              		.cfi_offset 14, -4
  38 0002 88B0     		sub	sp, sp, #32
  39              	.LCFI1:
  40              		.cfi_def_cfa_offset 40
  41 0004 0C46     		mov	r4, r1
  51:Src/canif.c   ****     CAN_TxHeaderTypeDef txHeader;
  42              		.loc 1 51 5 is_stmt 1 view .LVU2
  52:Src/canif.c   ****     uint32_t txMailbox;
  43              		.loc 1 52 5 view .LVU3
  53:Src/canif.c   ****     bool found = false;
  44              		.loc 1 53 5 view .LVU4
  45              	.LVL1:
  54:Src/canif.c   **** 
  55:Src/canif.c   ****     for (int i = 0; i < TX_PDU_ID_TO_STD_ID_TABLE_SIZE; i++) {
  46              		.loc 1 55 5 view .LVU5
  47              	.LBB2:
  48              		.loc 1 55 10 view .LVU6
  49              		.loc 1 55 14 is_stmt 0 view .LVU7
  50 0006 0023     		movs	r3, #0
  51              	.LVL2:
  52              	.L2:
  53              		.loc 1 55 21 is_stmt 1 discriminator 1 view .LVU8
  54              		.loc 1 55 5 is_stmt 0 discriminator 1 view .LVU9
  55 0008 082B     		cmp	r3, #8
  56 000a 22D8     		bhi	.L9
  56:Src/canif.c   ****         if (TxPduId == TxPduIdToStdIdTable[i].pduid) {
  57              		.loc 1 56 9 is_stmt 1 view .LVU10
  58              		.loc 1 56 46 is_stmt 0 view .LVU11
  59 000c 03EB430C 		add	ip, r3, r3, lsl #1
ARM GAS  C:\Users\wup15j\AppData\Local\Temp\ccH4hPBZ.s 			page 3


  60 0010 124A     		ldr	r2, .L11
  61 0012 52F82C20 		ldr	r2, [r2, ip, lsl #2]
  62              		.loc 1 56 12 view .LVU12
  63 0016 8242     		cmp	r2, r0
  64 0018 01D0     		beq	.L10
  55:Src/canif.c   ****         if (TxPduId == TxPduIdToStdIdTable[i].pduid) {
  65              		.loc 1 55 57 is_stmt 1 discriminator 2 view .LVU13
  55:Src/canif.c   ****         if (TxPduId == TxPduIdToStdIdTable[i].pduid) {
  66              		.loc 1 55 58 is_stmt 0 discriminator 2 view .LVU14
  67 001a 0133     		adds	r3, r3, #1
  68              	.LVL3:
  55:Src/canif.c   ****         if (TxPduId == TxPduIdToStdIdTable[i].pduid) {
  69              		.loc 1 55 58 discriminator 2 view .LVU15
  70 001c F4E7     		b	.L2
  71              	.L10:
  57:Src/canif.c   ****             txHeader.StdId = TxPduIdToStdIdTable[i].stdid;
  72              		.loc 1 57 13 is_stmt 1 view .LVU16
  73              		.loc 1 57 52 is_stmt 0 view .LVU17
  74 001e 0F4A     		ldr	r2, .L11
  75 0020 02EB8C03 		add	r3, r2, ip, lsl #2
  76              	.LVL4:
  77              		.loc 1 57 52 view .LVU18
  78 0024 5B68     		ldr	r3, [r3, #4]
  79              		.loc 1 57 28 view .LVU19
  80 0026 0293     		str	r3, [sp, #8]
  58:Src/canif.c   ****             found = true;
  81              		.loc 1 58 13 is_stmt 1 view .LVU20
  82              	.LVL5:
  59:Src/canif.c   ****             break;
  83              		.loc 1 59 13 view .LVU21
  84              		.loc 1 59 13 is_stmt 0 view .LVU22
  85              	.LBE2:
  60:Src/canif.c   ****         }
  61:Src/canif.c   ****     }
  62:Src/canif.c   **** 
  63:Src/canif.c   ****     if (!found) {
  86              		.loc 1 63 5 is_stmt 1 view .LVU23
  64:Src/canif.c   ****         Error_Handler();
  65:Src/canif.c   ****         return;
  66:Src/canif.c   ****     }
  67:Src/canif.c   **** 
  68:Src/canif.c   ****     txHeader.ExtId = 0x00;
  87              		.loc 1 68 5 view .LVU24
  88              		.loc 1 68 20 is_stmt 0 view .LVU25
  89 0028 0023     		movs	r3, #0
  90 002a 0393     		str	r3, [sp, #12]
  69:Src/canif.c   ****     txHeader.IDE = CAN_ID_STD;
  91              		.loc 1 69 5 is_stmt 1 view .LVU26
  92              		.loc 1 69 18 is_stmt 0 view .LVU27
  93 002c 0493     		str	r3, [sp, #16]
  70:Src/canif.c   ****     txHeader.RTR = CAN_RTR_DATA;
  94              		.loc 1 70 5 is_stmt 1 view .LVU28
  95              		.loc 1 70 18 is_stmt 0 view .LVU29
  96 002e 0593     		str	r3, [sp, #20]
  71:Src/canif.c   ****     txHeader.DLC = 8;
  97              		.loc 1 71 5 is_stmt 1 view .LVU30
  98              		.loc 1 71 18 is_stmt 0 view .LVU31
ARM GAS  C:\Users\wup15j\AppData\Local\Temp\ccH4hPBZ.s 			page 4


  99 0030 0823     		movs	r3, #8
 100 0032 0693     		str	r3, [sp, #24]
  72:Src/canif.c   **** 
  73:Src/canif.c   ****     while (HAL_CAN_GetTxMailboxesFreeLevel(&hcan) == 0);
 101              		.loc 1 73 5 is_stmt 1 view .LVU32
 102              	.LVL6:
 103              	.L4:
 104              		.loc 1 73 56 discriminator 1 view .LVU33
 105              		.loc 1 73 11 discriminator 1 view .LVU34
 106              		.loc 1 73 12 is_stmt 0 discriminator 1 view .LVU35
 107 0034 0A48     		ldr	r0, .L11+4
 108 0036 FFF7FEFF 		bl	HAL_CAN_GetTxMailboxesFreeLevel
 109              	.LVL7:
 110              		.loc 1 73 11 discriminator 1 view .LVU36
 111 003a 0028     		cmp	r0, #0
 112 003c FAD0     		beq	.L4
  74:Src/canif.c   **** 
  75:Src/canif.c   ****     if (HAL_CAN_AddTxMessage(&hcan, &txHeader, PduInfoPtr->Data, &txMailbox) != HAL_OK) {
 113              		.loc 1 75 5 is_stmt 1 view .LVU37
 114              		.loc 1 75 9 is_stmt 0 view .LVU38
 115 003e 01AB     		add	r3, sp, #4
 116 0040 2246     		mov	r2, r4
 117 0042 02A9     		add	r1, sp, #8
 118 0044 0648     		ldr	r0, .L11+4
 119 0046 FFF7FEFF 		bl	HAL_CAN_AddTxMessage
 120              	.LVL8:
 121              		.loc 1 75 8 view .LVU39
 122 004a 20B1     		cbz	r0, .L1
  76:Src/canif.c   ****         Error_Handler();
 123              		.loc 1 76 9 is_stmt 1 view .LVU40
 124 004c FFF7FEFF 		bl	Error_Handler
 125              	.LVL9:
 126 0050 01E0     		b	.L1
 127              	.LVL10:
 128              	.L9:
  63:Src/canif.c   ****         Error_Handler();
 129              		.loc 1 63 5 view .LVU41
  64:Src/canif.c   ****         return;
 130              		.loc 1 64 9 view .LVU42
 131 0052 FFF7FEFF 		bl	Error_Handler
 132              	.LVL11:
  65:Src/canif.c   ****     }
 133              		.loc 1 65 9 view .LVU43
 134              	.L1:
  77:Src/canif.c   ****     }
  78:Src/canif.c   **** }
 135              		.loc 1 78 1 is_stmt 0 view .LVU44
 136 0056 08B0     		add	sp, sp, #32
 137              	.LCFI2:
 138              		.cfi_def_cfa_offset 8
 139              		@ sp needed
 140 0058 10BD     		pop	{r4, pc}
 141              	.LVL12:
 142              	.L12:
 143              		.loc 1 78 1 view .LVU45
 144 005a 00BF     		.align	2
 145              	.L11:
ARM GAS  C:\Users\wup15j\AppData\Local\Temp\ccH4hPBZ.s 			page 5


 146 005c 00000000 		.word	.LANCHOR0
 147 0060 00000000 		.word	hcan
 148              		.cfi_endproc
 149              	.LFE65:
 151              		.section	.text.CanIf_Receive,"ax",%progbits
 152              		.align	1
 153              		.global	CanIf_Receive
 154              		.syntax unified
 155              		.thumb
 156              		.thumb_func
 158              	CanIf_Receive:
 159              	.LFB66:
  79:Src/canif.c   **** 
  80:Src/canif.c   **** void CanIf_Receive() {
 160              		.loc 1 80 22 is_stmt 1 view -0
 161              		.cfi_startproc
 162              		@ args = 0, pretend = 0, frame = 0
 163              		@ frame_needed = 0, uses_anonymous_args = 0
 164 0000 38B5     		push	{r3, r4, r5, lr}
 165              	.LCFI3:
 166              		.cfi_def_cfa_offset 16
 167              		.cfi_offset 3, -16
 168              		.cfi_offset 4, -12
 169              		.cfi_offset 5, -8
 170              		.cfi_offset 14, -4
 171 0002 0024     		movs	r4, #0
 172 0004 24E0     		b	.L22
 173              	.LVL13:
 174              	.L27:
 175              	.LBB3:
 176              	.LBB4:
  81:Src/canif.c   ****     uint32_t PDU_ID;
  82:Src/canif.c   ****     PduType PDU_TYPE;
  83:Src/canif.c   **** 
  84:Src/canif.c   ****     while (1) {
  85:Src/canif.c   ****         if (CanIf_Rx) {
  86:Src/canif.c   ****             CanIf_Rx = 0;
  87:Src/canif.c   ****             CanIfPduInfo.Length = rxHeader.DLC;
  88:Src/canif.c   **** 
  89:Src/canif.c   ****             PDU_ID = -1;
  90:Src/canif.c   ****             for (uint32_t i = 0; i < RX_PDU_ID_TO_STD_ID_TABLE_SIZE; ++i) {
  91:Src/canif.c   ****                 if (rxHeader.StdId == RxPduIdToStdIdTable[i].stdid) {
  92:Src/canif.c   ****                     PDU_ID = RxPduIdToStdIdTable[i].pduid;
 177              		.loc 1 92 21 view .LVU47
 178              		.loc 1 92 28 is_stmt 0 view .LVU48
 179 0006 1F4A     		ldr	r2, .L28
 180 0008 5558     		ldr	r5, [r2, r1]
 181              	.LVL14:
  93:Src/canif.c   ****                     PDU_TYPE = RxPduIdToStdIdTable[i].type;
 182              		.loc 1 93 21 is_stmt 1 view .LVU49
 183              		.loc 1 93 30 is_stmt 0 view .LVU50
 184 000a 0A44     		add	r2, r2, r1
 185 000c 147A     		ldrb	r4, [r2, #8]	@ zero_extendqisi2
 186              	.LVL15:
  94:Src/canif.c   ****                     break;
 187              		.loc 1 94 21 is_stmt 1 view .LVU51
 188 000e 01E0     		b	.L17
ARM GAS  C:\Users\wup15j\AppData\Local\Temp\ccH4hPBZ.s 			page 6


 189              	.LVL16:
 190              	.L26:
 191              		.loc 1 94 21 is_stmt 0 view .LVU52
 192              	.LBE4:
  89:Src/canif.c   ****             for (uint32_t i = 0; i < RX_PDU_ID_TO_STD_ID_TABLE_SIZE; ++i) {
 193              		.loc 1 89 20 view .LVU53
 194 0010 4FF0FF35 		mov	r5, #-1
 195              	.LVL17:
 196              	.L17:
  95:Src/canif.c   ****                 }
  96:Src/canif.c   ****             }
  97:Src/canif.c   **** 
  98:Src/canif.c   ****             if (PDU_ID != -1) {
 197              		.loc 1 98 13 is_stmt 1 view .LVU54
 198              		.loc 1 98 16 is_stmt 0 view .LVU55
 199 0014 B5F1FF3F 		cmp	r5, #-1
 200 0018 17D0     		beq	.L14
  99:Src/canif.c   ****                 HAL_GPIO_TogglePin(LED_GPIO_Port, LED_Pin);
 201              		.loc 1 99 17 is_stmt 1 view .LVU56
 202 001a 4FF40051 		mov	r1, #8192
 203 001e 1A48     		ldr	r0, .L28+4
 204 0020 FFF7FEFF 		bl	HAL_GPIO_TogglePin
 205              	.LVL18:
 100:Src/canif.c   ****                 switch (PDU_TYPE) {
 206              		.loc 1 100 17 view .LVU57
 207 0024 012C     		cmp	r4, #1
 208 0026 10D0     		beq	.L14
 209 0028 022C     		cmp	r4, #2
 210 002a 03D0     		beq	.L19
 211 002c 4CB1     		cbz	r4, .L25
 101:Src/canif.c   ****                     case NM:  
 102:Src/canif.c   ****                         /* if (CanNm_RxCallback != NULL) {
 103:Src/canif.c   ****                             CanNm_RxCallback();
 104:Src/canif.c   ****                         } */
 105:Src/canif.c   ****                         break;
 106:Src/canif.c   **** 
 107:Src/canif.c   ****                     case DIAG:  
 108:Src/canif.c   ****                         if (CanTp_Callback != NULL) {
 109:Src/canif.c   ****                             CanTp_Callback(PDU_ID, &CanIfPduInfo);
 110:Src/canif.c   ****                         }  
 111:Src/canif.c   ****                         break;
 112:Src/canif.c   **** 
 113:Src/canif.c   ****                     case APPL:  
 114:Src/canif.c   ****                         CanIf_Transmit(PDU_ID, &CanIfPduInfo);
 115:Src/canif.c   ****                         break;
 116:Src/canif.c   **** 
 117:Src/canif.c   ****                     default:
 118:Src/canif.c   ****                         Error_Handler();
 212              		.loc 1 118 25 view .LVU58
 213 002e FFF7FEFF 		bl	Error_Handler
 214              	.LVL19:
 119:Src/canif.c   ****                         break;
 215              		.loc 1 119 25 view .LVU59
 216 0032 0AE0     		b	.L14
 217              	.L19:
 108:Src/canif.c   ****                             CanTp_Callback(PDU_ID, &CanIfPduInfo);
 218              		.loc 1 108 25 view .LVU60
ARM GAS  C:\Users\wup15j\AppData\Local\Temp\ccH4hPBZ.s 			page 7


 108:Src/canif.c   ****                             CanTp_Callback(PDU_ID, &CanIfPduInfo);
 219              		.loc 1 108 44 is_stmt 0 view .LVU61
 220 0034 154B     		ldr	r3, .L28+8
 221 0036 1B68     		ldr	r3, [r3]
 108:Src/canif.c   ****                             CanTp_Callback(PDU_ID, &CanIfPduInfo);
 222              		.loc 1 108 28 view .LVU62
 223 0038 3BB1     		cbz	r3, .L14
 109:Src/canif.c   ****                         }  
 224              		.loc 1 109 29 is_stmt 1 view .LVU63
 225 003a 1549     		ldr	r1, .L28+12
 226 003c 2846     		mov	r0, r5
 227 003e 9847     		blx	r3
 228              	.LVL20:
 229 0040 03E0     		b	.L14
 230              	.L25:
 114:Src/canif.c   ****                         break;
 231              		.loc 1 114 25 view .LVU64
 232 0042 1349     		ldr	r1, .L28+12
 233 0044 2846     		mov	r0, r5
 234 0046 FFF7FEFF 		bl	CanIf_Transmit
 235              	.LVL21:
 115:Src/canif.c   **** 
 236              		.loc 1 115 25 view .LVU65
 237              	.L14:
 120:Src/canif.c   ****                 }
 121:Src/canif.c   ****             }
 122:Src/canif.c   ****         }
 123:Src/canif.c   ****         vTaskDelay(10);
 238              		.loc 1 123 9 view .LVU66
 239 004a 0A20     		movs	r0, #10
 240 004c FFF7FEFF 		bl	vTaskDelay
 241              	.LVL22:
 242              	.LBE3:
  84:Src/canif.c   ****         if (CanIf_Rx) {
 243              		.loc 1 84 11 view .LVU67
 244              	.L22:
  81:Src/canif.c   ****     PduType PDU_TYPE;
 245              		.loc 1 81 5 view .LVU68
  82:Src/canif.c   **** 
 246              		.loc 1 82 5 view .LVU69
  84:Src/canif.c   ****         if (CanIf_Rx) {
 247              		.loc 1 84 5 view .LVU70
 248              	.LBB6:
  85:Src/canif.c   ****             CanIf_Rx = 0;
 249              		.loc 1 85 9 view .LVU71
  85:Src/canif.c   ****             CanIf_Rx = 0;
 250              		.loc 1 85 13 is_stmt 0 view .LVU72
 251 0050 104B     		ldr	r3, .L28+16
 252 0052 1B78     		ldrb	r3, [r3]	@ zero_extendqisi2
 253 0054 5BB2     		sxtb	r3, r3
  85:Src/canif.c   ****             CanIf_Rx = 0;
 254              		.loc 1 85 12 view .LVU73
 255 0056 002B     		cmp	r3, #0
 256 0058 F7D0     		beq	.L14
  86:Src/canif.c   ****             CanIfPduInfo.Length = rxHeader.DLC;
 257              		.loc 1 86 13 is_stmt 1 view .LVU74
  86:Src/canif.c   ****             CanIfPduInfo.Length = rxHeader.DLC;
ARM GAS  C:\Users\wup15j\AppData\Local\Temp\ccH4hPBZ.s 			page 8


 258              		.loc 1 86 22 is_stmt 0 view .LVU75
 259 005a 0023     		movs	r3, #0
 260 005c 0D4A     		ldr	r2, .L28+16
 261 005e 1370     		strb	r3, [r2]
  87:Src/canif.c   **** 
 262              		.loc 1 87 13 is_stmt 1 view .LVU76
  87:Src/canif.c   **** 
 263              		.loc 1 87 43 is_stmt 0 view .LVU77
 264 0060 0D4A     		ldr	r2, .L28+20
 265 0062 1169     		ldr	r1, [r2, #16]
  87:Src/canif.c   **** 
 266              		.loc 1 87 33 view .LVU78
 267 0064 0A4A     		ldr	r2, .L28+12
 268 0066 9160     		str	r1, [r2, #8]
  89:Src/canif.c   ****             for (uint32_t i = 0; i < RX_PDU_ID_TO_STD_ID_TABLE_SIZE; ++i) {
 269              		.loc 1 89 13 is_stmt 1 view .LVU79
 270              	.LVL23:
  90:Src/canif.c   ****                 if (rxHeader.StdId == RxPduIdToStdIdTable[i].stdid) {
 271              		.loc 1 90 13 view .LVU80
 272              	.LBB5:
  90:Src/canif.c   ****                 if (rxHeader.StdId == RxPduIdToStdIdTable[i].stdid) {
 273              		.loc 1 90 18 view .LVU81
 274              	.L15:
  90:Src/canif.c   ****                 if (rxHeader.StdId == RxPduIdToStdIdTable[i].stdid) {
 275              		.loc 1 90 34 discriminator 1 view .LVU82
  90:Src/canif.c   ****                 if (rxHeader.StdId == RxPduIdToStdIdTable[i].stdid) {
 276              		.loc 1 90 13 is_stmt 0 discriminator 1 view .LVU83
 277 0068 082B     		cmp	r3, #8
 278 006a D1D8     		bhi	.L26
  91:Src/canif.c   ****                     PDU_ID = RxPduIdToStdIdTable[i].pduid;
 279              		.loc 1 91 17 is_stmt 1 view .LVU84
  91:Src/canif.c   ****                     PDU_ID = RxPduIdToStdIdTable[i].pduid;
 280              		.loc 1 91 29 is_stmt 0 view .LVU85
 281 006c 0A4A     		ldr	r2, .L28+20
 282 006e 1068     		ldr	r0, [r2]
  91:Src/canif.c   ****                     PDU_ID = RxPduIdToStdIdTable[i].pduid;
 283              		.loc 1 91 61 view .LVU86
 284 0070 03EB4302 		add	r2, r3, r3, lsl #1
 285 0074 9100     		lsls	r1, r2, #2
 286 0076 034A     		ldr	r2, .L28
 287 0078 0A44     		add	r2, r2, r1
 288 007a 5268     		ldr	r2, [r2, #4]
  91:Src/canif.c   ****                     PDU_ID = RxPduIdToStdIdTable[i].pduid;
 289              		.loc 1 91 20 view .LVU87
 290 007c 9042     		cmp	r0, r2
 291 007e C2D0     		beq	.L27
  90:Src/canif.c   ****                 if (rxHeader.StdId == RxPduIdToStdIdTable[i].stdid) {
 292              		.loc 1 90 70 is_stmt 1 discriminator 2 view .LVU88
 293 0080 0133     		adds	r3, r3, #1
 294              	.LVL24:
  90:Src/canif.c   ****                 if (rxHeader.StdId == RxPduIdToStdIdTable[i].stdid) {
 295              		.loc 1 90 70 is_stmt 0 discriminator 2 view .LVU89
 296 0082 F1E7     		b	.L15
 297              	.L29:
 298              		.align	2
 299              	.L28:
 300 0084 00000000 		.word	.LANCHOR3
ARM GAS  C:\Users\wup15j\AppData\Local\Temp\ccH4hPBZ.s 			page 9


 301 0088 00100140 		.word	1073811456
 302 008c 00000000 		.word	.LANCHOR4
 303 0090 00000000 		.word	.LANCHOR2
 304 0094 00000000 		.word	CanIf_Rx
 305 0098 00000000 		.word	.LANCHOR1
 306              	.LBE5:
 307              	.LBE6:
 308              		.cfi_endproc
 309              	.LFE66:
 311              		.section	.text.HAL_CAN_RxFifo0MsgPendingCallback,"ax",%progbits
 312              		.align	1
 313              		.global	HAL_CAN_RxFifo0MsgPendingCallback
 314              		.syntax unified
 315              		.thumb
 316              		.thumb_func
 318              	HAL_CAN_RxFifo0MsgPendingCallback:
 319              	.LVL25:
 320              	.LFB67:
 124:Src/canif.c   ****     }
 125:Src/canif.c   **** }
 126:Src/canif.c   **** 
 127:Src/canif.c   **** void HAL_CAN_RxFifo0MsgPendingCallback(CAN_HandleTypeDef *hcan1) {
 321              		.loc 1 127 66 is_stmt 1 view -0
 322              		.cfi_startproc
 323              		@ args = 0, pretend = 0, frame = 0
 324              		@ frame_needed = 0, uses_anonymous_args = 0
 325              		.loc 1 127 66 is_stmt 0 view .LVU91
 326 0000 08B5     		push	{r3, lr}
 327              	.LCFI4:
 328              		.cfi_def_cfa_offset 8
 329              		.cfi_offset 3, -8
 330              		.cfi_offset 14, -4
 128:Src/canif.c   ****     if (hcan1->Instance == hcan.Instance) {
 331              		.loc 1 128 5 is_stmt 1 view .LVU92
 332              		.loc 1 128 14 is_stmt 0 view .LVU93
 333 0002 0268     		ldr	r2, [r0]
 334              		.loc 1 128 32 view .LVU94
 335 0004 084B     		ldr	r3, .L36
 336 0006 1B68     		ldr	r3, [r3]
 337              		.loc 1 128 8 view .LVU95
 338 0008 9A42     		cmp	r2, r3
 339 000a 00D0     		beq	.L34
 340              	.LVL26:
 341              	.L30:
 129:Src/canif.c   ****         if (HAL_CAN_GetRxMessage(hcan1, CAN_RX_FIFO0, &rxHeader, CanIfPduInfo.Data) != HAL_OK) {
 130:Src/canif.c   ****             Error_Handler();
 131:Src/canif.c   ****         }
 132:Src/canif.c   ****         CanIf_Rx = 1;
 133:Src/canif.c   ****     }
 134:Src/canif.c   **** }
 342              		.loc 1 134 1 view .LVU96
 343 000c 08BD     		pop	{r3, pc}
 344              	.LVL27:
 345              	.L34:
 129:Src/canif.c   ****         if (HAL_CAN_GetRxMessage(hcan1, CAN_RX_FIFO0, &rxHeader, CanIfPduInfo.Data) != HAL_OK) {
 346              		.loc 1 129 9 is_stmt 1 view .LVU97
 129:Src/canif.c   ****         if (HAL_CAN_GetRxMessage(hcan1, CAN_RX_FIFO0, &rxHeader, CanIfPduInfo.Data) != HAL_OK) {
ARM GAS  C:\Users\wup15j\AppData\Local\Temp\ccH4hPBZ.s 			page 10


 347              		.loc 1 129 13 is_stmt 0 view .LVU98
 348 000e 074B     		ldr	r3, .L36+4
 349 0010 074A     		ldr	r2, .L36+8
 350 0012 0021     		movs	r1, #0
 351 0014 FFF7FEFF 		bl	HAL_CAN_GetRxMessage
 352              	.LVL28:
 129:Src/canif.c   ****         if (HAL_CAN_GetRxMessage(hcan1, CAN_RX_FIFO0, &rxHeader, CanIfPduInfo.Data) != HAL_OK) {
 353              		.loc 1 129 12 view .LVU99
 354 0018 18B9     		cbnz	r0, .L35
 355              	.L32:
 132:Src/canif.c   ****     }
 356              		.loc 1 132 9 is_stmt 1 view .LVU100
 132:Src/canif.c   ****     }
 357              		.loc 1 132 18 is_stmt 0 view .LVU101
 358 001a 064B     		ldr	r3, .L36+12
 359 001c 0122     		movs	r2, #1
 360 001e 1A70     		strb	r2, [r3]
 361              		.loc 1 134 1 view .LVU102
 362 0020 F4E7     		b	.L30
 363              	.L35:
 130:Src/canif.c   ****         }
 364              		.loc 1 130 13 is_stmt 1 view .LVU103
 365 0022 FFF7FEFF 		bl	Error_Handler
 366              	.LVL29:
 367 0026 F8E7     		b	.L32
 368              	.L37:
 369              		.align	2
 370              	.L36:
 371 0028 00000000 		.word	hcan
 372 002c 00000000 		.word	.LANCHOR2
 373 0030 00000000 		.word	.LANCHOR1
 374 0034 00000000 		.word	CanIf_Rx
 375              		.cfi_endproc
 376              	.LFE67:
 378              		.section	.text.CanIf_setCallback,"ax",%progbits
 379              		.align	1
 380              		.global	CanIf_setCallback
 381              		.syntax unified
 382              		.thumb
 383              		.thumb_func
 385              	CanIf_setCallback:
 386              	.LVL30:
 387              	.LFB68:
 135:Src/canif.c   **** 
 136:Src/canif.c   **** /* if (CanNm_TxCallback != NULL && TxPduId == 1) {
 137:Src/canif.c   ****         CanNm_TxCallback();
 138:Src/canif.c   ****     } */
 139:Src/canif.c   **** // HAL_GPIO_WritePin(GPIOA, GPIO_PIN_5, 1);  // 可以用于在发送消息后点亮 LED 等。
 140:Src/canif.c   **** 
 141:Src/canif.c   **** void CanIf_setCallback(Std_ReturnType (*IF_Callback)(uint32_t RxPduId, PduInfoTRx* PduInfoPtr)) {
 388              		.loc 1 141 97 view -0
 389              		.cfi_startproc
 390              		@ args = 0, pretend = 0, frame = 0
 391              		@ frame_needed = 0, uses_anonymous_args = 0
 392              		@ link register save eliminated.
 142:Src/canif.c   ****     if (IF_Callback != NULL) {
 393              		.loc 1 142 5 view .LVU105
ARM GAS  C:\Users\wup15j\AppData\Local\Temp\ccH4hPBZ.s 			page 11


 394              		.loc 1 142 8 is_stmt 0 view .LVU106
 395 0000 08B1     		cbz	r0, .L38
 143:Src/canif.c   ****         CanTp_Callback = IF_Callback;
 396              		.loc 1 143 9 is_stmt 1 view .LVU107
 397              		.loc 1 143 24 is_stmt 0 view .LVU108
 398 0002 014A     		ldr	r2, .L40
 399 0004 1060     		str	r0, [r2]
 400              	.L38:
 144:Src/canif.c   ****     }
 145:Src/canif.c   **** }
 401              		.loc 1 145 1 view .LVU109
 402 0006 7047     		bx	lr
 403              	.L41:
 404              		.align	2
 405              	.L40:
 406 0008 00000000 		.word	.LANCHOR4
 407              		.cfi_endproc
 408              	.LFE68:
 410              		.global	TxPduIdToStdIdTable
 411              		.global	RxPduIdToStdIdTable
 412              		.global	CanTp_Callback
 413              		.global	CanIfPduInfo
 414              		.global	rxHeader
 415              		.section	.bss.CanIfPduInfo,"aw",%nobits
 416              		.align	2
 417              		.set	.LANCHOR2,. + 0
 420              	CanIfPduInfo:
 421 0000 00000000 		.space	12
 421      00000000 
 421      00000000 
 422              		.section	.bss.CanTp_Callback,"aw",%nobits
 423              		.align	2
 424              		.set	.LANCHOR4,. + 0
 427              	CanTp_Callback:
 428 0000 00000000 		.space	4
 429              		.section	.bss.rxHeader,"aw",%nobits
 430              		.align	2
 431              		.set	.LANCHOR1,. + 0
 434              	rxHeader:
 435 0000 00000000 		.space	28
 435      00000000 
 435      00000000 
 435      00000000 
 435      00000000 
 436              		.section	.rodata.RxPduIdToStdIdTable,"a"
 437              		.align	2
 438              		.set	.LANCHOR3,. + 0
 441              	RxPduIdToStdIdTable:
 442 0000 00000000 		.word	0
 443 0004 32020000 		.word	562
 444 0008 00       		.byte	0
 445 0009 000000   		.space	3
 446 000c 01000000 		.word	1
 447 0010 00010000 		.word	256
 448 0014 00       		.byte	0
 449 0015 000000   		.space	3
 450 0018 02000000 		.word	2
ARM GAS  C:\Users\wup15j\AppData\Local\Temp\ccH4hPBZ.s 			page 12


 451 001c 51030000 		.word	849
 452 0020 00       		.byte	0
 453 0021 000000   		.space	3
 454 0024 03000000 		.word	3
 455 0028 45020000 		.word	581
 456 002c 00       		.byte	0
 457 002d 000000   		.space	3
 458 0030 04000000 		.word	4
 459 0034 54030000 		.word	852
 460 0038 00       		.byte	0
 461 0039 000000   		.space	3
 462 003c 05000000 		.word	5
 463 0040 FE020000 		.word	766
 464 0044 00       		.byte	0
 465 0045 000000   		.space	3
 466 0048 06000000 		.word	6
 467 004c AA010000 		.word	426
 468 0050 00       		.byte	0
 469 0051 000000   		.space	3
 470 0054 07000000 		.word	7
 471 0058 23050000 		.word	1315
 472 005c 01       		.byte	1
 473 005d 000000   		.space	3
 474 0060 08000000 		.word	8
 475 0064 20070000 		.word	1824
 476 0068 02       		.byte	2
 477 0069 000000   		.space	3
 478              		.section	.rodata.TxPduIdToStdIdTable,"a"
 479              		.align	2
 480              		.set	.LANCHOR0,. + 0
 483              	TxPduIdToStdIdTable:
 484 0000 00000000 		.word	0
 485 0004 32020000 		.word	562
 486 0008 00       		.byte	0
 487 0009 000000   		.space	3
 488 000c 01000000 		.word	1
 489 0010 00010000 		.word	256
 490 0014 00       		.byte	0
 491 0015 000000   		.space	3
 492 0018 02000000 		.word	2
 493 001c 51030000 		.word	849
 494 0020 00       		.byte	0
 495 0021 000000   		.space	3
 496 0024 03000000 		.word	3
 497 0028 45020000 		.word	581
 498 002c 00       		.byte	0
 499 002d 000000   		.space	3
 500 0030 04000000 		.word	4
 501 0034 54030000 		.word	852
 502 0038 00       		.byte	0
 503 0039 000000   		.space	3
 504 003c 05000000 		.word	5
 505 0040 FE020000 		.word	766
 506 0044 00       		.byte	0
 507 0045 000000   		.space	3
 508 0048 06000000 		.word	6
 509 004c AA010000 		.word	426
ARM GAS  C:\Users\wup15j\AppData\Local\Temp\ccH4hPBZ.s 			page 13


 510 0050 00       		.byte	0
 511 0051 000000   		.space	3
 512 0054 07000000 		.word	7
 513 0058 01050000 		.word	1281
 514 005c 01       		.byte	1
 515 005d 000000   		.space	3
 516 0060 08000000 		.word	8
 517 0064 28070000 		.word	1832
 518 0068 02       		.byte	2
 519 0069 000000   		.space	3
 520              		.text
 521              	.Letext0:
 522              		.file 2 "c:\\program files (x86)\\gnu arm embedded toolchain\\10 2021.10\\arm-none-eabi\\include\\
 523              		.file 3 "c:\\program files (x86)\\gnu arm embedded toolchain\\10 2021.10\\arm-none-eabi\\include\\
 524              		.file 4 "Drivers/CMSIS/Device/ST/STM32F1xx/Include/stm32f103x6.h"
 525              		.file 5 "Drivers/CMSIS/Device/ST/STM32F1xx/Include/stm32f1xx.h"
 526              		.file 6 "Drivers/STM32F1xx_HAL_Driver/Inc/stm32f1xx_hal_def.h"
 527              		.file 7 "Drivers/STM32F1xx_HAL_Driver/Inc/stm32f1xx_hal_can.h"
 528              		.file 8 "Inc/canif.h"
 529              		.file 9 "Inc/can.h"
 530              		.file 10 "Inc/main.h"
 531              		.file 11 "Drivers/STM32F1xx_HAL_Driver/Inc/stm32f1xx_hal_gpio.h"
ARM GAS  C:\Users\wup15j\AppData\Local\Temp\ccH4hPBZ.s 			page 14

