ARM GAS  C:\Users\wup15j\AppData\Local\Temp\cc0HQV6h.s 			page 1


   1              		.cpu cortex-m3
   2              		.arch armv7-m
   3              		.fpu softvfp
   4              		.eabi_attribute 20, 1
   5              		.eabi_attribute 21, 1
   6              		.eabi_attribute 23, 3
   7              		.eabi_attribute 24, 1
   8              		.eabi_attribute 25, 1
   9              		.eabi_attribute 26, 1
  10              		.eabi_attribute 30, 1
  11              		.eabi_attribute 34, 1
  12              		.eabi_attribute 18, 4
  13              		.file	"cantp.c"
  14              		.text
  15              	.Ltext0:
  16              		.cfi_sections	.debug_frame
  17              		.section	.text.CanTp_RxIndication,"ax",%progbits
  18              		.align	1
  19              		.global	CanTp_RxIndication
  20              		.syntax unified
  21              		.thumb
  22              		.thumb_func
  24              	CanTp_RxIndication:
  25              	.LVL0:
  26              	.LFB73:
  27              		.file 1 "Src/cantp.c"
   1:Src/cantp.c   **** /*
   2:Src/cantp.c   ****  * CanTp.c
   3:Src/cantp.c   ****  *
   4:Src/cantp.c   ****  *  Created on: Jun 11, 2024
   5:Src/cantp.c   ****  *      Author: DELL
   6:Src/cantp.c   ****  */
   7:Src/cantp.c   **** 
   8:Src/cantp.c   **** #include "CanTp.h"  // åŒ…å« CanTp æ¨¡å—çš„å¤´æ–‡ä»¶ï¼Œå£°æ˜äº†è¯¥æ¨¡å—çš„å‡½æ•°å’Œæ•°æ®ç»“æ„
   9:Src/cantp.c   **** 
  10:Src/cantp.c   **** #define RX_BUFFER_SIZE 100  // å®šä¹‰æ¥æ”¶ç¼“å†²åŒºå¤§å°ä¸º 100 å­—èŠ‚ã€‚
  11:Src/cantp.c   **** #define CAN_FRAME_LENGTH 8  // å®šä¹‰ CAN å¸§çš„é•¿åº¦ä¸º 8 å­—èŠ‚ã€‚
  12:Src/cantp.c   **** #define CAN_MAX_PAYLOAD_LENGTH 7  // å®šä¹‰ CAN å¸§çš„æœ€å¤§æœ‰æ•ˆè´Ÿè½½é•¿åº¦ä¸º 7 å­—èŠ‚ï¼ˆè€ƒè™‘
  13:Src/cantp.c   **** 
  14:Src/cantp.c   **** volatile uint32_t numberOfConsecutiveFramesToSend = 0;  // å®šä¹‰ä¸€ä¸ªç”¨äºå­˜å‚¨è¦å‘é€çš„è¿ç
  15:Src/cantp.c   **** volatile uint32_t currentConsecutiveFrames = 0;  // å®šä¹‰ä¸€ä¸ªå˜é‡ç”¨äºè®°å½•å½“å‰å‘é€çš„è¿
  16:Src/cantp.c   **** volatile uint32_t numberOfConsecutiveFramesToReceive = 0;  // å®šä¹‰ä¸€ä¸ªç”¨äºå­˜å‚¨è¦æ¥æ”¶çš„è
  17:Src/cantp.c   **** volatile uint32_t numberOfRemainingBytesToSend = 0;  // å®šä¹‰ä¸€ä¸ªå˜é‡ç”¨äºè®°å½•å‰©ä½™çš„éœ€è
  18:Src/cantp.c   **** volatile uint32_t numberOfRemainingBytesToReceive = 0;  // å®šä¹‰ä¸€ä¸ªå˜é‡ç”¨äºè®°å½•å‰©ä½™çš„é
  19:Src/cantp.c   **** volatile uint32_t availableBuffers = 10;  // å®šä¹‰ä¸€ä¸ªå˜é‡è¡¨ç¤ºå¯ç”¨çš„ç¼“å†²åŒºæ•°é‡ï¼Œåˆ
  20:Src/cantp.c   **** void (*App_Callback)(uint32_t RxPduId, PduInfoType* PduInfoPtr) = NULL;  // å®šä¹‰ä¸€ä¸ªæŒ‡å‘å›è°
  21:Src/cantp.c   **** 
  22:Src/cantp.c   **** Frame_States expectedFrameState = Any_State;  // å®šä¹‰ä¸€ä¸ªå˜é‡è¡¨ç¤ºé¢„æœŸæ¥æ”¶åˆ°çš„å¸§çŠ¶æ€
  23:Src/cantp.c   **** PduInfoTRx EncodedPduInfo;  // å®šä¹‰ä¸€ä¸ªç»“æ„ä½“ç”¨äºå­˜å‚¨ç¼–ç åçš„ PDU ä¿¡æ¯ã€‚
  24:Src/cantp.c   **** PduInfoTRx DecodedPduInfo;  // å®šä¹‰ä¸€ä¸ªç»“æ„ä½“ç”¨äºå­˜å‚¨è§£ç åçš„ PDU ä¿¡æ¯ã€‚
  25:Src/cantp.c   **** PduInfoType CompletePduInfo;  // å®šä¹‰ä¸€ä¸ªç»“æ„ä½“ç”¨äºå­˜å‚¨å®Œæ•´çš„ PDU ä¿¡æ¯ã€‚
  26:Src/cantp.c   **** PduInfoTRx* GlobalRxPduInfoPtr;  // å®šä¹‰ä¸€ä¸ªæŒ‡é’ˆç”¨äºæŒ‡å‘å…¨å±€æ¥æ”¶ PDU ä¿¡æ¯ç»“æ„ä½“ã
  27:Src/cantp.c   **** PduInfoType* GlobalTxPduInfoPtr;  // å®šä¹‰ä¸€ä¸ªæŒ‡é’ˆç”¨äºæŒ‡å‘å…¨å±€ä¼ è¾“ PDU ä¿¡æ¯ç»“æ„ä½“
  28:Src/cantp.c   **** 
  29:Src/cantp.c   **** volatile uint8_t ConsecSN;  // å®šä¹‰ä¸€ä¸ªå˜é‡ç”¨äºå­˜å‚¨è¿ç»­å¸§çš„åºåˆ—å·ã€‚
  30:Src/cantp.c   **** volatile uint16_t currentIndex;  // å®šä¹‰ä¸€ä¸ªå˜é‡ç”¨äºå­˜å‚¨å½“å‰ç´¢å¼•ï¼ˆé€šå¸¸ç”¨äºç¼“å†²
  31:Src/cantp.c   **** volatile int32_t currentOffset = -1;  // å®šä¹‰ä¸€ä¸ªå˜é‡ç”¨äºå­˜å‚¨å½“å‰çš„åç§»é‡ï¼Œåˆå§‹å
ARM GAS  C:\Users\wup15j\AppData\Local\Temp\cc0HQV6h.s 			page 2


  32:Src/cantp.c   **** volatile int32_t startOffset;  // å®šä¹‰ä¸€ä¸ªå˜é‡ç”¨äºå­˜å‚¨èµ·å§‹åç§»é‡ã€‚
  33:Src/cantp.c   **** 
  34:Src/cantp.c   **** volatile int8_t CanTp_Rx;  // å®šä¹‰ä¸€ä¸ªå˜é‡ç”¨äºè¡¨ç¤º CAN TP æ¥æ”¶çŠ¶æ€ã€‚
  35:Src/cantp.c   **** volatile int8_t CanTp_Tx;  // å®šä¹‰ä¸€ä¸ªå˜é‡ç”¨äºè¡¨ç¤º CAN TP å‘é€çŠ¶æ€ã€‚
  36:Src/cantp.c   **** volatile uint32_t GlobalRxPduId;  // å®šä¹‰ä¸€ä¸ªå˜é‡ç”¨äºå­˜å‚¨å…¨å±€æ¥æ”¶ PDU IDã€‚
  37:Src/cantp.c   **** volatile uint32_t GlobalTxPduId;  // å®šä¹‰ä¸€ä¸ªå˜é‡ç”¨äºå­˜å‚¨å…¨å±€ä¼ è¾“ PDU IDã€‚
  38:Src/cantp.c   **** 
  39:Src/cantp.c   **** uint8_t RxData[8];  // å®šä¹‰ä¸€ä¸ªæ•°ç»„ç”¨äºå­˜å‚¨æ¥æ”¶åˆ°çš„æ•°æ®ï¼Œå¤§å°ä¸º 8 å­—èŠ‚ã€‚
  40:Src/cantp.c   **** // uint8_t TxData[8];  // å®šä¹‰ä¸€ä¸ªæ•°ç»„ç”¨äºå­˜å‚¨è¦å‘é€çš„æ•°æ®ï¼Œå¤§å°ä¸º 8 å­—èŠ‚ï¼ˆå
  41:Src/cantp.c   **** 
  42:Src/cantp.c   **** uint8_t rxBuffer[RX_BUFFER_SIZE];  // å®šä¹‰ä¸€ä¸ªæ¥æ”¶ç¼“å†²åŒºæ•°ç»„ï¼Œå¤§å°ä¸º RX_BUFFER_SIZEï
  43:Src/cantp.c   **** volatile int32_t rxBufferIndex = 0;  // å®šä¹‰ä¸€ä¸ªå˜é‡ç”¨äºè®°å½•æ¥æ”¶ç¼“å†²åŒºçš„å½“å‰ç´¢å¼
  44:Src/cantp.c   **** volatile int32_t rxCurrentMaxIndex = 0;  // å®šä¹‰ä¸€ä¸ªå˜é‡ç”¨äºè®°å½•æ¥æ”¶ç¼“å†²åŒºçš„æœ€å¤§ç
  45:Src/cantp.c   **** 
  46:Src/cantp.c   **** volatile uint8_t rxData = 0;  // å®šä¹‰ä¸€ä¸ªå˜é‡ç”¨äºè¡¨ç¤ºå½“å‰æ¥æ”¶çš„æ•°æ®ã€‚
  47:Src/cantp.c   **** volatile uint8_t rxComplete = 0;  // å®šä¹‰ä¸€ä¸ªå˜é‡ç”¨äºè¡¨ç¤ºæ¥æ”¶æ˜¯å¦å®Œæˆã€‚
  48:Src/cantp.c   **** 
  49:Src/cantp.c   **** // åˆå§‹åŒ– CanTp æ¨¡å—
  50:Src/cantp.c   **** void CanTp_Init(){
  51:Src/cantp.c   **** 	CanIf_setCallback(CanTp_RxIndication);  // è°ƒç”¨ CanIf æ¨¡å—çš„å‡½æ•°ï¼Œè®¾ç½® CanTp æ¨¡å—çš„æ
  52:Src/cantp.c   **** }
  53:Src/cantp.c   **** 
  54:Src/cantp.c   **** void CanTp_MainFunction(){
  55:Src/cantp.c   **** 	while(1){  // æ— é™å¾ªç¯ï¼Œä¸æ–­è½®è¯¢å¤„ç† CAN TP çš„æ¥æ”¶å’Œå‘é€æ“ä½œã€‚
  56:Src/cantp.c   **** 		if(CanTp_Rx){  // å¦‚æœæ¥æ”¶åˆ°æ–°çš„ CAN TP æ•°æ®åŒ…ã€‚
  57:Src/cantp.c   **** 			CanTp_Rx = 0;  // æ¸…é™¤æ¥æ”¶æ ‡å¿—ï¼Œè¡¨ç¤ºæ­£åœ¨å¤„ç†æ¥æ”¶åˆ°çš„æ•°æ®ã€‚
  58:Src/cantp.c   **** 			
  59:Src/cantp.c   **** 			// // å¦‚æœå…¨å±€æ¥æ”¶ PDU ID ä¸ç­‰äº 0ï¼Œåˆ™åœæ­¢ç¨‹åºè¿è¡Œã€‚
  60:Src/cantp.c   **** 			// if(GlobalRxPduId != 0){
  61:Src/cantp.c   **** 			// 	while(1);  // è¿›å…¥æ­»å¾ªç¯ï¼Œé€šå¸¸ç”¨ä½œé”™è¯¯å¤„ç†æˆ–è°ƒè¯•ç›®çš„ã€‚
  62:Src/cantp.c   **** 			// }
  63:Src/cantp.c   **** 
  64:Src/cantp.c   **** 			// è·å–å½“å‰æ¥æ”¶å¸§çš„æ•°æ®ç±»å‹ï¼Œæ ¹æ®å¸§çš„ç¬¬ä¸€ä¸ªå­—èŠ‚ç¡®å®šå¸§ç±»å‹ã€‚
  65:Src/cantp.c   **** 			Frame_Type frame_type = CanTp_GetFrameType(GlobalRxPduInfoPtr->Data[0]);
  66:Src/cantp.c   **** 
  67:Src/cantp.c   **** 			// æ ¹æ®å¸§ç±»å‹è°ƒç”¨ç›¸åº”çš„è§£ç å‡½æ•°ï¼Œå¹¶å¤„ç†æ•°æ®ã€‚
  68:Src/cantp.c   **** 			switch(frame_type){
  69:Src/cantp.c   **** 			case Single_Frame:  // å¦‚æœå¸§ç±»å‹æ˜¯å•å¸§ã€‚
  70:Src/cantp.c   **** 				CanTp_decodeSingleFrame(GlobalRxPduId, GlobalRxPduInfoPtr);  // è§£ç å•å¸§æ•°æ®ã€‚
  71:Src/cantp.c   **** 				break;
  72:Src/cantp.c   **** 			case First_Frame:  // å¦‚æœå¸§ç±»å‹æ˜¯é¦–å¸§ã€‚
  73:Src/cantp.c   **** 				CanTp_decodeFirstFrame(GlobalRxPduId, GlobalRxPduInfoPtr);  // è§£ç é¦–å¸§æ•°æ®ã€‚
  74:Src/cantp.c   **** 				expectedFrameState = FlowControl_Frame_State;  // è®¾ç½®æœŸæœ›çš„ä¸‹ä¸€ä¸ªå¸§çŠ¶æ€ä¸ºæµæ§åˆ¶
  75:Src/cantp.c   **** 				CanTp_Transmit(GlobalRxPduId, (PduInfoType*) GlobalRxPduInfoPtr);  // å‘é€æµæ§åˆ¶å¸§ï¼Œä»¥ä
  76:Src/cantp.c   **** 				break;
  77:Src/cantp.c   **** 			case Consecutive_Frame:  // å¦‚æœå¸§ç±»å‹æ˜¯è¿ç»­å¸§ã€‚
  78:Src/cantp.c   **** 				CanTp_decodeConsecutiveFrame(GlobalRxPduId, GlobalRxPduInfoPtr);  // è§£ç è¿ç»­å¸§æ•°æ®ã€‚
  79:Src/cantp.c   **** 				if(numberOfConsecutiveFramesToReceive == 0 && numberOfRemainingBytesToReceive > 0){
  80:Src/cantp.c   **** 					// å¦‚æœæ¥æ”¶åˆ°çš„è¿ç»­å¸§æ•°é‡ä¸º 0 ä¸”è¿˜æœ‰å‰©ä½™å­—èŠ‚æœªæ¥æ”¶ï¼Œå‘é€æµæ§åˆ¶å¸§ã
  81:Src/cantp.c   **** 					expectedFrameState = FlowControl_Frame_State;  // æ›´æ–°æœŸæœ›çš„å¸§çŠ¶æ€ã€‚
  82:Src/cantp.c   **** 					CanTp_Transmit(GlobalRxPduId, (PduInfoType*) GlobalRxPduInfoPtr);  // å‘é€æµæ§åˆ¶å¸§ã€‚
  83:Src/cantp.c   **** 				}
  84:Src/cantp.c   **** 				break;
  85:Src/cantp.c   **** 			case FlowControl_Frame:  // å¦‚æœå¸§ç±»å‹æ˜¯æµæ§åˆ¶å¸§ã€‚
  86:Src/cantp.c   **** 				// è§£ç æµæ§åˆ¶å¸§ï¼Œå¹¶æ ¹æ®å¯¹æ–¹èŠ‚ç‚¹çš„ç©ºé—²ç¼“å†²åŒºæ•°è°ƒæ•´å¾…å‘é€çš„è¿ç»­å¸§æ•
  87:Src/cantp.c   **** 				CanTp_decodeFlowControlFrame(GlobalRxPduId, GlobalRxPduInfoPtr);
  88:Src/cantp.c   **** 				break;
ARM GAS  C:\Users\wup15j\AppData\Local\Temp\cc0HQV6h.s 			page 3


  89:Src/cantp.c   **** 			default:
  90:Src/cantp.c   **** 				break;  // å…¶ä»–æƒ…å†µä¸åšå¤„ç†ã€‚
  91:Src/cantp.c   **** 			}
  92:Src/cantp.c   **** 
  93:Src/cantp.c   **** 			// å¦‚æœæ¥æ”¶åˆ°çš„å¸§æ˜¯æµæ§åˆ¶å¸§ï¼Œè¿›è¡Œç‰¹å®šå¤„ç†ï¼ˆæœ¬æ®µä»£ç ä¸ºç©ºï¼Œå¯èƒ½é¢„ç•™
  94:Src/cantp.c   **** 			if(frame_type == FlowControl_Frame){
  95:Src/cantp.c   **** 
  96:Src/cantp.c   **** 			}
  97:Src/cantp.c   **** 			else if(numberOfRemainingBytesToReceive == 0){  // å¦‚æœæ‰€æœ‰æ•°æ®éƒ½æ¥æ”¶å®Œæ¯•ã€‚
  98:Src/cantp.c   **** 				if(App_Callback != NULL){  // å¦‚æœåº”ç”¨å±‚å›è°ƒå‡½æ•°ä¸ä¸ºç©ºã€‚
  99:Src/cantp.c   **** 					currentIndex = 0;  // é‡ç½®ç´¢å¼•ã€‚
 100:Src/cantp.c   **** 					App_Callback(GlobalRxPduId, &CompletePduInfo);  // è°ƒç”¨åº”ç”¨å±‚å›è°ƒå‡½æ•°ï¼Œå¤„ç†å®Œæ•´ç
 101:Src/cantp.c   **** 				}
 102:Src/cantp.c   **** 			}
 103:Src/cantp.c   **** 		}
 104:Src/cantp.c   **** 		else if(CanTp_Tx){  // å¦‚æœæœ‰æ–°çš„ CAN TP æ•°æ®éœ€è¦å‘é€ã€‚
 105:Src/cantp.c   **** 			// // å¦‚æœå…¨å±€ä¼ è¾“ PDU ID ä¸ç­‰äº 0ï¼Œåˆ™åœæ­¢ç¨‹åºè¿è¡Œã€‚
 106:Src/cantp.c   **** 			// if(GlobalTxPduId != 0){
 107:Src/cantp.c   **** 			// 	while(1);  // è¿›å…¥æ­»å¾ªç¯ï¼Œé€šå¸¸ç”¨ä½œé”™è¯¯å¤„ç†æˆ–è°ƒè¯•ç›®çš„ã€‚
 108:Src/cantp.c   **** 			// }
 109:Src/cantp.c   **** 
 110:Src/cantp.c   **** 			Frame_Type frame_type = None;  // åˆå§‹åŒ–å¸§ç±»å‹ä¸º Noneã€‚
 111:Src/cantp.c   **** 			if(numberOfRemainingBytesToSend == 0 && expectedFrameState == Any_State){
 112:Src/cantp.c   **** 				// å¦‚æœæ²¡æœ‰å‰©ä½™å­—èŠ‚éœ€è¦å‘é€ä¸”å½“å‰æœŸæœ›çš„å¸§çŠ¶æ€ä¸ºä»»æ„çŠ¶æ€ã€‚
 113:Src/cantp.c   **** 				numberOfRemainingBytesToSend = GlobalTxPduInfoPtr->Length;  // æ›´æ–°å‰©ä½™å¾…å‘é€å­—èŠ‚æ•°ã€
 114:Src/cantp.c   **** 				CompletePduInfo.Length = numberOfRemainingBytesToSend;  // æ›´æ–°å®Œæ•´ PDU çš„é•¿åº¦ã€‚
 115:Src/cantp.c   **** 				if(GlobalTxPduInfoPtr->Length < 8){
 116:Src/cantp.c   **** 					frame_type = Single_Frame;  // å¦‚æœæ•°æ®é•¿åº¦å°äº 8 å­—èŠ‚ï¼Œè®¾ç½®å¸§ç±»å‹ä¸ºå•å¸§ã€‚
 117:Src/cantp.c   **** 				}
 118:Src/cantp.c   **** 				else{
 119:Src/cantp.c   **** 					frame_type = First_Frame;  // å¦åˆ™ï¼Œè®¾ç½®å¸§ç±»å‹ä¸ºé¦–å¸§ã€‚
 120:Src/cantp.c   **** 				}
 121:Src/cantp.c   **** 			}
 122:Src/cantp.c   **** 
 123:Src/cantp.c   **** 			if(numberOfRemainingBytesToSend > 0 || expectedFrameState == FlowControl_Frame_State){
 124:Src/cantp.c   **** 				// å¦‚æœæœ‰å‰©ä½™å­—èŠ‚éœ€è¦å‘é€æˆ–æœŸæœ›çš„å¸§çŠ¶æ€ä¸ºæµæ§åˆ¶å¸§çŠ¶æ€ã€‚
 125:Src/cantp.c   **** 				if(expectedFrameState == Consecutive_Frame_State){
 126:Src/cantp.c   **** 					frame_type = Consecutive_Frame;  // è®¾ç½®å¸§ç±»å‹ä¸ºè¿ç»­å¸§ã€‚
 127:Src/cantp.c   **** 				}
 128:Src/cantp.c   **** 				else if(expectedFrameState == FlowControl_Frame_State){
 129:Src/cantp.c   **** 					frame_type = FlowControl_Frame;  // è®¾ç½®å¸§ç±»å‹ä¸ºæµæ§åˆ¶å¸§ã€‚
 130:Src/cantp.c   **** 				}
 131:Src/cantp.c   **** 				else{
 132:Src/cantp.c   **** 					// å…¶ä»–æƒ…å†µä¸åšå¤„ç†ï¼ˆå¯èƒ½ç”¨äºæ‰©å±•ï¼‰ã€‚
 133:Src/cantp.c   **** 				}
 134:Src/cantp.c   **** 
 135:Src/cantp.c   **** 				// æ ¹æ®å¸§ç±»å‹è°ƒç”¨ç›¸åº”çš„ç¼–ç å‡½æ•°ï¼Œç¼–ç æ•°æ®å¹¶å‘é€ã€‚
 136:Src/cantp.c   **** 				switch(frame_type){
 137:Src/cantp.c   **** 				case Single_Frame:
 138:Src/cantp.c   **** 					CanTp_encodeSingleFrame(GlobalTxPduId, GlobalTxPduInfoPtr);  // ç¼–ç å•å¸§æ•°æ®å¹¶å‘é€ã€‚
 139:Src/cantp.c   **** 					break;
 140:Src/cantp.c   **** 				case First_Frame:
 141:Src/cantp.c   **** 					CanTp_encodeFirstFrame(GlobalTxPduId, GlobalTxPduInfoPtr);  // ç¼–ç é¦–å¸§æ•°æ®å¹¶å‘é€ã€‚
 142:Src/cantp.c   **** 					frame_type = None;  // å‘é€å®Œé¦–å¸§åï¼Œå°†å¸§ç±»å‹é‡ç½®ä¸º Noneã€‚
 143:Src/cantp.c   **** 					break;
 144:Src/cantp.c   **** 				case Consecutive_Frame:
 145:Src/cantp.c   **** 					if(numberOfConsecutiveFramesToSend > 0){  // å¦‚æœä»æœ‰å¾…å‘é€çš„è¿ç»­å¸§ã€‚
ARM GAS  C:\Users\wup15j\AppData\Local\Temp\cc0HQV6h.s 			page 4


 146:Src/cantp.c   **** 						numberOfConsecutiveFramesToSend--;  // é€’å‡è¿ç»­å¸§è®¡æ•°å™¨ã€‚
 147:Src/cantp.c   **** 						CanTp_encodeConsecutiveFrame(GlobalTxPduId, GlobalTxPduInfoPtr);  // ç¼–ç è¿ç»­å¸§æ•°æ®å¹¶
 148:Src/cantp.c   **** 					}
 149:Src/cantp.c   **** 					else{
 150:Src/cantp.c   **** 						frame_type = None;  // å¦‚æœæ²¡æœ‰è¿ç»­å¸§å¾…å‘é€ï¼Œé‡ç½®å¸§ç±»å‹ã€‚
 151:Src/cantp.c   **** 						// ç­‰å¾…æµæ§åˆ¶å¸§æ¥æ”¶ä¸­æ–­é€šçŸ¥æ¥æ›´æ–° numberOfConsecutiveFramesToSend å˜é‡ã€‚
 152:Src/cantp.c   **** 					}
 153:Src/cantp.c   **** 					break;
 154:Src/cantp.c   **** 				case FlowControl_Frame:
 155:Src/cantp.c   **** 					// æ ¹æ® availableBuffers å˜é‡ï¼ˆé€šå¸¸æ˜¯æ¥æ”¶æ•°ç»„çš„å¤§å°ï¼‰å†³å®šå¦‚ä½•å‘é€æµæ§å
 156:Src/cantp.c   **** 					CanTp_encodeFlowControlFrame(GlobalTxPduId, GlobalTxPduInfoPtr);
 157:Src/cantp.c   **** 					break;
 158:Src/cantp.c   **** 				default:
 159:Src/cantp.c   **** 					break;  // å…¶ä»–æƒ…å†µä¸åšå¤„ç†ã€‚
 160:Src/cantp.c   **** 				}
 161:Src/cantp.c   **** 			}
 162:Src/cantp.c   **** 
 163:Src/cantp.c   **** 			// å¦‚æœæ‰€æœ‰æ•°æ®å‘é€å®Œæ¯•ã€‚
 164:Src/cantp.c   **** 			if(numberOfRemainingBytesToSend == 0){
 165:Src/cantp.c   **** 				// é‡ç½®æœŸæœ›å¸§çŠ¶æ€ã€‚
 166:Src/cantp.c   **** 				expectedFrameState = Any_State;
 167:Src/cantp.c   **** 				currentOffset = -1;  // é‡ç½®å½“å‰åç§»é‡ã€‚
 168:Src/cantp.c   **** 				CanTp_Tx = 0;  // æ¸…é™¤å‘é€æ ‡å¿—ï¼Œè¡¨ç¤ºå‘é€æ“ä½œå®Œæˆã€‚
 169:Src/cantp.c   **** 			}
 170:Src/cantp.c   **** 		}
 171:Src/cantp.c   **** 		vTaskDelay(100);  // å»¶è¿Ÿ 100 æ¯«ç§’ï¼Œæ§åˆ¶ä¸»å¾ªç¯çš„æ‰§è¡Œé¢‘ç‡ã€‚
 172:Src/cantp.c   **** 	}
 173:Src/cantp.c   **** }
 174:Src/cantp.c   **** 
 175:Src/cantp.c   **** Std_ReturnType CanTp_Transmit(uint32_t TxPduId, PduInfoType* PduInfoPtr){
 176:Src/cantp.c   **** 	GlobalTxPduInfoPtr = PduInfoPtr;  // å°†ä¼ å…¥çš„ PDU ä¿¡æ¯æŒ‡é’ˆä¿å­˜åˆ°å…¨å±€å˜é‡ä¸­ï¼Œä¾¿äº
 177:Src/cantp.c   **** 	GlobalTxPduId = TxPduId;  // å°†ä¼ å…¥çš„ PDU ID ä¿å­˜åˆ°å…¨å±€å˜é‡ä¸­ã€‚
 178:Src/cantp.c   **** 	CanTp_Tx = 1;  // è®¾ç½®å‘é€æ ‡å¿—ï¼Œè¡¨ç¤ºæœ‰æ•°æ®éœ€è¦å‘é€ã€‚
 179:Src/cantp.c   **** 	return E_OK;  // è¿”å›æ ‡å‡†è¿”å›å€¼ï¼Œè¡¨ç¤ºæ“ä½œæˆåŠŸã€‚
 180:Src/cantp.c   **** }
 181:Src/cantp.c   **** 
 182:Src/cantp.c   **** Std_ReturnType CanTp_RxIndication (uint32_t RxPduId, PduInfoTRx* PduInfoPtr){
  28              		.loc 1 182 77 view -0
  29              		.cfi_startproc
  30              		@ args = 0, pretend = 0, frame = 0
  31              		@ frame_needed = 0, uses_anonymous_args = 0
  32              		@ link register save eliminated.
 183:Src/cantp.c   **** 	GlobalRxPduInfoPtr = PduInfoPtr;  // å°†æ¥æ”¶åˆ°çš„ PDU ä¿¡æ¯æŒ‡é’ˆä¿å­˜åˆ°å…¨å±€å˜é‡ä¸­ï¼Œä¾
  33              		.loc 1 183 2 view .LVU1
  34              		.loc 1 183 21 is_stmt 0 view .LVU2
  35 0000 044B     		ldr	r3, .L2
  36 0002 1960     		str	r1, [r3]
 184:Src/cantp.c   **** 	GlobalRxPduId = RxPduId;  // å°†æ¥æ”¶åˆ°çš„ PDU ID ä¿å­˜åˆ°å…¨å±€å˜é‡ä¸­ã€‚
  37              		.loc 1 184 2 is_stmt 1 view .LVU3
  38              		.loc 1 184 16 is_stmt 0 view .LVU4
  39 0004 044B     		ldr	r3, .L2+4
  40 0006 1860     		str	r0, [r3]
 185:Src/cantp.c   **** 	CanTp_Rx = 1;  // è®¾ç½®æ¥æ”¶æ ‡å¿—ï¼Œè¡¨ç¤ºæœ‰æ•°æ®éœ€è¦å¤„ç†ã€‚
  41              		.loc 1 185 2 is_stmt 1 view .LVU5
  42              		.loc 1 185 11 is_stmt 0 view .LVU6
  43 0008 044B     		ldr	r3, .L2+8
  44 000a 0122     		movs	r2, #1
ARM GAS  C:\Users\wup15j\AppData\Local\Temp\cc0HQV6h.s 			page 5


  45 000c 1A70     		strb	r2, [r3]
 186:Src/cantp.c   **** 	return E_OK;  // è¿”å›æ ‡å‡†è¿”å›å€¼ï¼Œè¡¨ç¤ºæ“ä½œæˆåŠŸã€‚
  46              		.loc 1 186 2 is_stmt 1 view .LVU7
 187:Src/cantp.c   **** }
  47              		.loc 1 187 1 is_stmt 0 view .LVU8
  48 000e 0020     		movs	r0, #0
  49              	.LVL1:
  50              		.loc 1 187 1 view .LVU9
  51 0010 7047     		bx	lr
  52              	.L3:
  53 0012 00BF     		.align	2
  54              	.L2:
  55 0014 00000000 		.word	.LANCHOR0
  56 0018 00000000 		.word	.LANCHOR1
  57 001c 00000000 		.word	.LANCHOR2
  58              		.cfi_endproc
  59              	.LFE73:
  61              		.section	.text.CanTp_Init,"ax",%progbits
  62              		.align	1
  63              		.global	CanTp_Init
  64              		.syntax unified
  65              		.thumb
  66              		.thumb_func
  68              	CanTp_Init:
  69              	.LFB70:
  50:Src/cantp.c   **** 	CanIf_setCallback(CanTp_RxIndication);  // è°ƒç”¨ CanIf æ¨¡å—çš„å‡½æ•°ï¼Œè®¾ç½® CanTp æ¨¡å—çš„æ
  70              		.loc 1 50 18 is_stmt 1 view -0
  71              		.cfi_startproc
  72              		@ args = 0, pretend = 0, frame = 0
  73              		@ frame_needed = 0, uses_anonymous_args = 0
  74 0000 08B5     		push	{r3, lr}
  75              	.LCFI0:
  76              		.cfi_def_cfa_offset 8
  77              		.cfi_offset 3, -8
  78              		.cfi_offset 14, -4
  51:Src/cantp.c   **** }
  79              		.loc 1 51 2 view .LVU11
  80 0002 0248     		ldr	r0, .L6
  81 0004 FFF7FEFF 		bl	CanIf_setCallback
  82              	.LVL2:
  52:Src/cantp.c   **** 
  83              		.loc 1 52 1 is_stmt 0 view .LVU12
  84 0008 08BD     		pop	{r3, pc}
  85              	.L7:
  86 000a 00BF     		.align	2
  87              	.L6:
  88 000c 00000000 		.word	CanTp_RxIndication
  89              		.cfi_endproc
  90              	.LFE70:
  92              		.section	.text.CanTp_Transmit,"ax",%progbits
  93              		.align	1
  94              		.global	CanTp_Transmit
  95              		.syntax unified
  96              		.thumb
  97              		.thumb_func
  99              	CanTp_Transmit:
 100              	.LVL3:
ARM GAS  C:\Users\wup15j\AppData\Local\Temp\cc0HQV6h.s 			page 6


 101              	.LFB72:
 175:Src/cantp.c   **** 	GlobalTxPduInfoPtr = PduInfoPtr;  // å°†ä¼ å…¥çš„ PDU ä¿¡æ¯æŒ‡é’ˆä¿å­˜åˆ°å…¨å±€å˜é‡ä¸­ï¼Œä¾¿äº
 102              		.loc 1 175 73 is_stmt 1 view -0
 103              		.cfi_startproc
 104              		@ args = 0, pretend = 0, frame = 0
 105              		@ frame_needed = 0, uses_anonymous_args = 0
 106              		@ link register save eliminated.
 176:Src/cantp.c   **** 	GlobalTxPduId = TxPduId;  // å°†ä¼ å…¥çš„ PDU ID ä¿å­˜åˆ°å…¨å±€å˜é‡ä¸­ã€‚
 107              		.loc 1 176 2 view .LVU14
 176:Src/cantp.c   **** 	GlobalTxPduId = TxPduId;  // å°†ä¼ å…¥çš„ PDU ID ä¿å­˜åˆ°å…¨å±€å˜é‡ä¸­ã€‚
 108              		.loc 1 176 21 is_stmt 0 view .LVU15
 109 0000 044B     		ldr	r3, .L9
 110 0002 1960     		str	r1, [r3]
 177:Src/cantp.c   **** 	CanTp_Tx = 1;  // è®¾ç½®å‘é€æ ‡å¿—ï¼Œè¡¨ç¤ºæœ‰æ•°æ®éœ€è¦å‘é€ã€‚
 111              		.loc 1 177 2 is_stmt 1 view .LVU16
 177:Src/cantp.c   **** 	CanTp_Tx = 1;  // è®¾ç½®å‘é€æ ‡å¿—ï¼Œè¡¨ç¤ºæœ‰æ•°æ®éœ€è¦å‘é€ã€‚
 112              		.loc 1 177 16 is_stmt 0 view .LVU17
 113 0004 044B     		ldr	r3, .L9+4
 114 0006 1860     		str	r0, [r3]
 178:Src/cantp.c   **** 	return E_OK;  // è¿”å›æ ‡å‡†è¿”å›å€¼ï¼Œè¡¨ç¤ºæ“ä½œæˆåŠŸã€‚
 115              		.loc 1 178 2 is_stmt 1 view .LVU18
 178:Src/cantp.c   **** 	return E_OK;  // è¿”å›æ ‡å‡†è¿”å›å€¼ï¼Œè¡¨ç¤ºæ“ä½œæˆåŠŸã€‚
 116              		.loc 1 178 11 is_stmt 0 view .LVU19
 117 0008 044B     		ldr	r3, .L9+8
 118 000a 0122     		movs	r2, #1
 119 000c 1A70     		strb	r2, [r3]
 179:Src/cantp.c   **** }
 120              		.loc 1 179 2 is_stmt 1 view .LVU20
 180:Src/cantp.c   **** 
 121              		.loc 1 180 1 is_stmt 0 view .LVU21
 122 000e 0020     		movs	r0, #0
 123              	.LVL4:
 180:Src/cantp.c   **** 
 124              		.loc 1 180 1 view .LVU22
 125 0010 7047     		bx	lr
 126              	.L10:
 127 0012 00BF     		.align	2
 128              	.L9:
 129 0014 00000000 		.word	.LANCHOR3
 130 0018 00000000 		.word	.LANCHOR4
 131 001c 00000000 		.word	.LANCHOR5
 132              		.cfi_endproc
 133              	.LFE72:
 135              		.section	.text.CanTp_GetFrameType,"ax",%progbits
 136              		.align	1
 137              		.global	CanTp_GetFrameType
 138              		.syntax unified
 139              		.thumb
 140              		.thumb_func
 142              	CanTp_GetFrameType:
 143              	.LVL5:
 144              	.LFB74:
 188:Src/cantp.c   **** 
 189:Src/cantp.c   **** Frame_Type CanTp_GetFrameType(uint8_t PCI){
 145              		.loc 1 189 43 is_stmt 1 view -0
 146              		.cfi_startproc
 147              		@ args = 0, pretend = 0, frame = 0
ARM GAS  C:\Users\wup15j\AppData\Local\Temp\cc0HQV6h.s 			page 7


 148              		@ frame_needed = 0, uses_anonymous_args = 0
 149              		@ link register save eliminated.
 150              		.loc 1 189 43 is_stmt 0 view .LVU24
 151 0000 0346     		mov	r3, r0
 190:Src/cantp.c   **** 	PCI >>= 4;  // å°† PCI å­—èŠ‚å³ç§» 4 ä½ï¼Œæå–å¸§ç±»å‹ä¿¡æ¯ï¼ˆå³ PCI çš„é«˜ 4 ä½ï¼‰ã€‚
 152              		.loc 1 190 2 is_stmt 1 view .LVU25
 153              		.loc 1 190 6 is_stmt 0 view .LVU26
 154 0002 0009     		lsrs	r0, r0, #4
 155              	.LVL6:
 191:Src/cantp.c   **** 	if(PCI < 4){  // å¦‚æœ PCI çš„å€¼å°äº 4ï¼Œè¡¨ç¤ºè¿™æ˜¯ä¸€ä¸ªæœ‰æ•ˆçš„å¸§ç±»å‹ã€‚
 156              		.loc 1 191 2 is_stmt 1 view .LVU27
 157              		.loc 1 191 4 is_stmt 0 view .LVU28
 158 0004 3F2B     		cmp	r3, #63
 159 0006 00D8     		bhi	.L14
 160              	.LVL7:
 161              	.L12:
 192:Src/cantp.c   **** 		return (Frame_Type) PCI;  // è¿”å›ç›¸åº”çš„å¸§ç±»å‹æšä¸¾å€¼ã€‚
 193:Src/cantp.c   **** 	}
 194:Src/cantp.c   **** 	else{
 195:Src/cantp.c   **** 		return None;  // å¦åˆ™ï¼Œè¿”å› `None`ï¼Œè¡¨ç¤ºæ— æ•ˆçš„å¸§ç±»å‹ã€‚
 196:Src/cantp.c   **** 	}
 197:Src/cantp.c   **** }
 162              		.loc 1 197 1 view .LVU29
 163 0008 7047     		bx	lr
 164              	.LVL8:
 165              	.L14:
 195:Src/cantp.c   **** 	}
 166              		.loc 1 195 10 view .LVU30
 167 000a 0420     		movs	r0, #4
 168              	.LVL9:
 195:Src/cantp.c   **** 	}
 169              		.loc 1 195 10 view .LVU31
 170 000c FCE7     		b	.L12
 171              		.cfi_endproc
 172              	.LFE74:
 174              		.section	.text.CanTp_setCallback,"ax",%progbits
 175              		.align	1
 176              		.global	CanTp_setCallback
 177              		.syntax unified
 178              		.thumb
 179              		.thumb_func
 181              	CanTp_setCallback:
 182              	.LVL10:
 183              	.LFB75:
 198:Src/cantp.c   **** 
 199:Src/cantp.c   **** void CanTp_setCallback(void (*PTF)(uint32_t TxPduId, PduInfoType* PduInfoPtr)){
 184              		.loc 1 199 79 is_stmt 1 view -0
 185              		.cfi_startproc
 186              		@ args = 0, pretend = 0, frame = 0
 187              		@ frame_needed = 0, uses_anonymous_args = 0
 188              		@ link register save eliminated.
 200:Src/cantp.c   **** 	if(PTF != NULL){  // å¦‚æœä¼ å…¥çš„å‡½æ•°æŒ‡é’ˆéç©ºã€‚
 189              		.loc 1 200 2 view .LVU33
 190              		.loc 1 200 4 is_stmt 0 view .LVU34
 191 0000 08B1     		cbz	r0, .L15
 201:Src/cantp.c   **** 		App_Callback = PTF;  // å°†å…¶ä¿å­˜åˆ°å…¨å±€å˜é‡ `App_Callback` ä¸­ï¼Œä¾¿äºåœ¨æ¥æ”¶æ•°æ®æ—¶
 192              		.loc 1 201 3 is_stmt 1 view .LVU35
ARM GAS  C:\Users\wup15j\AppData\Local\Temp\cc0HQV6h.s 			page 8


 193              		.loc 1 201 16 is_stmt 0 view .LVU36
 194 0002 014A     		ldr	r2, .L17
 195 0004 1060     		str	r0, [r2]
 196              	.L15:
 202:Src/cantp.c   **** 	}
 203:Src/cantp.c   **** }
 197              		.loc 1 203 1 view .LVU37
 198 0006 7047     		bx	lr
 199              	.L18:
 200              		.align	2
 201              	.L17:
 202 0008 00000000 		.word	.LANCHOR6
 203              		.cfi_endproc
 204              	.LFE75:
 206              		.section	.text.CanTp_encodeSingleFrame,"ax",%progbits
 207              		.align	1
 208              		.global	CanTp_encodeSingleFrame
 209              		.syntax unified
 210              		.thumb
 211              		.thumb_func
 213              	CanTp_encodeSingleFrame:
 214              	.LVL11:
 215              	.LFB76:
 204:Src/cantp.c   **** 
 205:Src/cantp.c   **** void CanTp_encodeSingleFrame(uint32_t TxPduId, PduInfoType* PduInfoPtr){
 216              		.loc 1 205 72 is_stmt 1 view -0
 217              		.cfi_startproc
 218              		@ args = 0, pretend = 0, frame = 0
 219              		@ frame_needed = 0, uses_anonymous_args = 0
 220              		.loc 1 205 72 is_stmt 0 view .LVU39
 221 0000 38B5     		push	{r3, r4, r5, lr}
 222              	.LCFI1:
 223              		.cfi_def_cfa_offset 16
 224              		.cfi_offset 3, -16
 225              		.cfi_offset 4, -12
 226              		.cfi_offset 5, -8
 227              		.cfi_offset 14, -4
 206:Src/cantp.c   ****     // è·å–éœ€è¦å‘é€çš„æ•°æ®çš„é•¿åº¦
 207:Src/cantp.c   ****     uint32_t dataLength = PduInfoPtr->Length;
 228              		.loc 1 207 5 is_stmt 1 view .LVU40
 229              		.loc 1 207 14 is_stmt 0 view .LVU41
 230 0002 D1F80032 		ldr	r3, [r1, #512]
 231              	.LVL12:
 208:Src/cantp.c   ****     // å°†è¦å‘é€çš„æ•°æ®é•¿åº¦ä¿å­˜åœ¨å…¨å±€çš„ç¼–ç ä¿¡æ¯ç»“æ„ä½“ä¸­
 209:Src/cantp.c   ****     EncodedPduInfo.Length = PduInfoPtr->Length;
 232              		.loc 1 209 5 is_stmt 1 view .LVU42
 233              		.loc 1 209 27 is_stmt 0 view .LVU43
 234 0006 104C     		ldr	r4, .L25
 235 0008 A360     		str	r3, [r4, #8]
 210:Src/cantp.c   ****     // æ›´æ–°å‰©ä½™è¦å‘é€çš„å­—èŠ‚æ•°
 211:Src/cantp.c   ****     numberOfRemainingBytesToSend -= dataLength;
 236              		.loc 1 211 5 is_stmt 1 view .LVU44
 237              		.loc 1 211 34 is_stmt 0 view .LVU45
 238 000a 104D     		ldr	r5, .L25+4
 239 000c 2A68     		ldr	r2, [r5]
 240 000e D21A     		subs	r2, r2, r3
 241 0010 2A60     		str	r2, [r5]
ARM GAS  C:\Users\wup15j\AppData\Local\Temp\cc0HQV6h.s 			page 9


 212:Src/cantp.c   **** 
 213:Src/cantp.c   ****     // è®¾ç½® CAN å¸§çš„ç¬¬ä¸€ä¸ªå­—èŠ‚ä¸º PCIï¼ˆåè®®æ§åˆ¶ä¿¡æ¯ï¼‰ï¼Œå…¶ä½ 4 ä½ä¸ºæ•°æ®é•¿åº
 214:Src/cantp.c   ****     EncodedPduInfo.Data[0] = 0x00 | (dataLength & 0x0F);
 242              		.loc 1 214 5 is_stmt 1 view .LVU46
 243              		.loc 1 214 35 is_stmt 0 view .LVU47
 244 0012 03F00F02 		and	r2, r3, #15
 245              		.loc 1 214 28 view .LVU48
 246 0016 2270     		strb	r2, [r4]
 215:Src/cantp.c   **** 
 216:Src/cantp.c   ****     // åˆå§‹åŒ–ä¸€ä¸ªå¾ªç¯è®¡æ•°å˜é‡ i
 217:Src/cantp.c   ****     uint32_t i;
 247              		.loc 1 217 5 is_stmt 1 view .LVU49
 218:Src/cantp.c   ****     // å°†æ•°æ®ä» PduInfoPtr å¤åˆ¶åˆ° CAN å¸§ï¼Œä»ç¬¬äºŒä¸ªå­—èŠ‚ï¼ˆç´¢å¼•ä¸º 1ï¼‰å¼€å§‹
 219:Src/cantp.c   ****     for (i = 0; i < dataLength; i++) {
 248              		.loc 1 219 5 view .LVU50
 249              	.LVL13:
 250              		.loc 1 219 12 is_stmt 0 view .LVU51
 251 0018 0022     		movs	r2, #0
 252              		.loc 1 219 5 view .LVU52
 253 001a 07E0     		b	.L20
 254              	.LVL14:
 255              	.L21:
 220:Src/cantp.c   ****         EncodedPduInfo.Data[i + 1] = PduInfoPtr->Data[i];
 256              		.loc 1 220 9 is_stmt 1 discriminator 3 view .LVU53
 257              		.loc 1 220 31 is_stmt 0 discriminator 3 view .LVU54
 258 001c 02F1010C 		add	ip, r2, #1
 259              		.loc 1 220 54 discriminator 3 view .LVU55
 260 0020 11F802E0 		ldrb	lr, [r1, r2]	@ zero_extendqisi2
 261              		.loc 1 220 36 discriminator 3 view .LVU56
 262 0024 084A     		ldr	r2, .L25
 263              	.LVL15:
 264              		.loc 1 220 36 discriminator 3 view .LVU57
 265 0026 02F80CE0 		strb	lr, [r2, ip]
 219:Src/cantp.c   ****         EncodedPduInfo.Data[i + 1] = PduInfoPtr->Data[i];
 266              		.loc 1 219 33 is_stmt 1 discriminator 3 view .LVU58
 267              	.LVL16:
 219:Src/cantp.c   ****         EncodedPduInfo.Data[i + 1] = PduInfoPtr->Data[i];
 268              		.loc 1 219 34 is_stmt 0 discriminator 3 view .LVU59
 269 002a 6246     		mov	r2, ip
 270              	.LVL17:
 271              	.L20:
 219:Src/cantp.c   ****         EncodedPduInfo.Data[i + 1] = PduInfoPtr->Data[i];
 272              		.loc 1 219 17 is_stmt 1 discriminator 1 view .LVU60
 219:Src/cantp.c   ****         EncodedPduInfo.Data[i + 1] = PduInfoPtr->Data[i];
 273              		.loc 1 219 5 is_stmt 0 discriminator 1 view .LVU61
 274 002c 9A42     		cmp	r2, r3
 275 002e F5D3     		bcc	.L21
 221:Src/cantp.c   ****     }
 222:Src/cantp.c   **** 
 223:Src/cantp.c   ****     // å¦‚æœæ•°æ®æœªå¡«æ»¡æ•´ä¸ª CAN å¸§ï¼Œå°†å‰©ä½™çš„å­—èŠ‚å¡«å……ä¸ºé›¶
 224:Src/cantp.c   ****     for (i = dataLength + 1; i < CAN_FRAME_LENGTH; i++) {
 276              		.loc 1 224 5 is_stmt 1 view .LVU62
 277              		.loc 1 224 12 is_stmt 0 view .LVU63
 278 0030 0133     		adds	r3, r3, #1
 279              	.LVL18:
 280              		.loc 1 224 5 view .LVU64
 281 0032 03E0     		b	.L22
ARM GAS  C:\Users\wup15j\AppData\Local\Temp\cc0HQV6h.s 			page 10


 282              	.LVL19:
 283              	.L23:
 225:Src/cantp.c   ****         EncodedPduInfo.Data[i] = 0;
 284              		.loc 1 225 9 is_stmt 1 discriminator 3 view .LVU65
 285              		.loc 1 225 32 is_stmt 0 discriminator 3 view .LVU66
 286 0034 044A     		ldr	r2, .L25
 287 0036 0021     		movs	r1, #0
 288 0038 D154     		strb	r1, [r2, r3]
 224:Src/cantp.c   ****         EncodedPduInfo.Data[i] = 0;
 289              		.loc 1 224 52 is_stmt 1 discriminator 3 view .LVU67
 224:Src/cantp.c   ****         EncodedPduInfo.Data[i] = 0;
 290              		.loc 1 224 53 is_stmt 0 discriminator 3 view .LVU68
 291 003a 0133     		adds	r3, r3, #1
 292              	.LVL20:
 293              	.L22:
 224:Src/cantp.c   ****         EncodedPduInfo.Data[i] = 0;
 294              		.loc 1 224 30 is_stmt 1 discriminator 1 view .LVU69
 224:Src/cantp.c   ****         EncodedPduInfo.Data[i] = 0;
 295              		.loc 1 224 5 is_stmt 0 discriminator 1 view .LVU70
 296 003c 072B     		cmp	r3, #7
 297 003e F9D9     		bls	.L23
 226:Src/cantp.c   ****     }
 227:Src/cantp.c   **** 
 228:Src/cantp.c   ****     // è°ƒç”¨ CanIf_Transmit å‡½æ•°å‘é€ç¼–ç åçš„ CAN å¸§
 229:Src/cantp.c   ****     CanIf_Transmit(TxPduId, &EncodedPduInfo);
 298              		.loc 1 229 5 is_stmt 1 view .LVU71
 299 0040 0149     		ldr	r1, .L25
 300 0042 FFF7FEFF 		bl	CanIf_Transmit
 301              	.LVL21:
 230:Src/cantp.c   **** }
 302              		.loc 1 230 1 is_stmt 0 view .LVU72
 303 0046 38BD     		pop	{r3, r4, r5, pc}
 304              	.L26:
 305              		.align	2
 306              	.L25:
 307 0048 00000000 		.word	.LANCHOR7
 308 004c 00000000 		.word	.LANCHOR8
 309              		.cfi_endproc
 310              	.LFE76:
 312              		.section	.text.CanTp_encodeFirstFrame,"ax",%progbits
 313              		.align	1
 314              		.global	CanTp_encodeFirstFrame
 315              		.syntax unified
 316              		.thumb
 317              		.thumb_func
 319              	CanTp_encodeFirstFrame:
 320              	.LVL22:
 321              	.LFB77:
 231:Src/cantp.c   **** 
 232:Src/cantp.c   **** void CanTp_encodeFirstFrame(uint32_t TxPduId, PduInfoType* PduInfoPtr){
 322              		.loc 1 232 71 is_stmt 1 view -0
 323              		.cfi_startproc
 324              		@ args = 0, pretend = 0, frame = 16
 325              		@ frame_needed = 0, uses_anonymous_args = 0
 326              		.loc 1 232 71 is_stmt 0 view .LVU74
 327 0000 10B5     		push	{r4, lr}
 328              	.LCFI2:
ARM GAS  C:\Users\wup15j\AppData\Local\Temp\cc0HQV6h.s 			page 11


 329              		.cfi_def_cfa_offset 8
 330              		.cfi_offset 4, -8
 331              		.cfi_offset 14, -4
 332 0002 84B0     		sub	sp, sp, #16
 333              	.LCFI3:
 334              		.cfi_def_cfa_offset 24
 233:Src/cantp.c   ****     // å®šä¹‰ä¸€ä¸ªå¾ªç¯è®¡æ•°å˜é‡ Counter
 234:Src/cantp.c   ****     uint8_t Counter = 0;
 335              		.loc 1 234 5 is_stmt 1 view .LVU75
 336              	.LVL23:
 235:Src/cantp.c   ****     // å®šä¹‰ä¸€ä¸ªå±€éƒ¨å˜é‡ EncodedPduInfo æ¥å­˜å‚¨ç¼–ç åçš„ PDU ä¿¡æ¯
 236:Src/cantp.c   ****     PduInfoTRx EncodedPduInfo;
 337              		.loc 1 236 5 view .LVU76
 237:Src/cantp.c   **** 
 238:Src/cantp.c   ****     // è®¾ç½® CAN å¸§çš„ç¬¬ä¸€ä¸ªå­—èŠ‚ä¸ºå¸§ç±»å‹ï¼ˆé¦–å¸§ï¼‰ï¼Œå¹¶ä¸”å°†æ•°æ®é•¿åº¦çš„é«˜ 4 ä½
 239:Src/cantp.c   ****     EncodedPduInfo.Data[0] = (0x01 << 4) | ((PduInfoPtr->Length) >> 8 & 0x0F);
 338              		.loc 1 239 5 view .LVU77
 339              		.loc 1 239 56 is_stmt 0 view .LVU78
 340 0004 D1F80042 		ldr	r4, [r1, #512]
 341              		.loc 1 239 71 view .LVU79
 342 0008 C4F30323 		ubfx	r3, r4, #8, #4
 343              		.loc 1 239 42 view .LVU80
 344 000c 43F01003 		orr	r3, r3, #16
 345              		.loc 1 239 28 view .LVU81
 346 0010 8DF80430 		strb	r3, [sp, #4]
 240:Src/cantp.c   ****     // è®¾ç½® CAN å¸§çš„ç¬¬äºŒä¸ªå­—èŠ‚ä¸ºæ•°æ®é•¿åº¦çš„ä½ 8 ä½
 241:Src/cantp.c   ****     EncodedPduInfo.Data[1] = (PduInfoPtr->Length) & 0xFF;
 347              		.loc 1 241 5 is_stmt 1 view .LVU82
 348              		.loc 1 241 28 is_stmt 0 view .LVU83
 349 0014 8DF80540 		strb	r4, [sp, #5]
 242:Src/cantp.c   **** 
 243:Src/cantp.c   ****     // å°†æ•°æ®ä» PduInfoPtr å¤åˆ¶åˆ° CAN å¸§ï¼Œä»ç¬¬ä¸‰ä¸ªå­—èŠ‚ï¼ˆç´¢å¼•ä¸º 2ï¼‰å¼€å§‹
 244:Src/cantp.c   ****     for (Counter = 2; Counter < 8; Counter++) {
 350              		.loc 1 244 5 is_stmt 1 view .LVU84
 351              	.LVL24:
 352              		.loc 1 244 18 is_stmt 0 view .LVU85
 353 0018 0223     		movs	r3, #2
 354              		.loc 1 244 5 view .LVU86
 355 001a 09E0     		b	.L28
 356              	.LVL25:
 357              	.L29:
 245:Src/cantp.c   ****         EncodedPduInfo.Data[Counter] = PduInfoPtr->Data[Counter - 2];
 358              		.loc 1 245 9 is_stmt 1 discriminator 3 view .LVU87
 359              		.loc 1 245 65 is_stmt 0 discriminator 3 view .LVU88
 360 001c 9A1E     		subs	r2, r3, #2
 361              		.loc 1 245 56 discriminator 3 view .LVU89
 362 001e 11F802C0 		ldrb	ip, [r1, r2]	@ zero_extendqisi2
 363              		.loc 1 245 38 discriminator 3 view .LVU90
 364 0022 03F11002 		add	r2, r3, #16
 365 0026 6A44     		add	r2, sp, r2
 366 0028 02F80CCC 		strb	ip, [r2, #-12]
 244:Src/cantp.c   ****         EncodedPduInfo.Data[Counter] = PduInfoPtr->Data[Counter - 2];
 367              		.loc 1 244 36 is_stmt 1 discriminator 3 view .LVU91
 244:Src/cantp.c   ****         EncodedPduInfo.Data[Counter] = PduInfoPtr->Data[Counter - 2];
 368              		.loc 1 244 43 is_stmt 0 discriminator 3 view .LVU92
 369 002c 0133     		adds	r3, r3, #1
 370              	.LVL26:
ARM GAS  C:\Users\wup15j\AppData\Local\Temp\cc0HQV6h.s 			page 12


 244:Src/cantp.c   ****         EncodedPduInfo.Data[Counter] = PduInfoPtr->Data[Counter - 2];
 371              		.loc 1 244 43 discriminator 3 view .LVU93
 372 002e DBB2     		uxtb	r3, r3
 373              	.LVL27:
 374              	.L28:
 244:Src/cantp.c   ****         EncodedPduInfo.Data[Counter] = PduInfoPtr->Data[Counter - 2];
 375              		.loc 1 244 23 is_stmt 1 discriminator 1 view .LVU94
 244:Src/cantp.c   ****         EncodedPduInfo.Data[Counter] = PduInfoPtr->Data[Counter - 2];
 376              		.loc 1 244 5 is_stmt 0 discriminator 1 view .LVU95
 377 0030 072B     		cmp	r3, #7
 378 0032 F3D9     		bls	.L29
 246:Src/cantp.c   ****     }
 247:Src/cantp.c   **** 
 248:Src/cantp.c   ****     // æ›´æ–°å‰©ä½™éœ€è¦å‘é€çš„å­—èŠ‚æ•°ï¼ˆæ€»é•¿åº¦å‡å»é¦–å¸§ä¸­å·²å‘é€çš„ 6 ä¸ªå­—èŠ‚ï¼‰
 249:Src/cantp.c   ****     numberOfRemainingBytesToSend = (PduInfoPtr->Length - 6);
 379              		.loc 1 249 5 is_stmt 1 view .LVU96
 380              		.loc 1 249 56 is_stmt 0 view .LVU97
 381 0034 063C     		subs	r4, r4, #6
 382              		.loc 1 249 34 view .LVU98
 383 0036 034B     		ldr	r3, .L31
 384              	.LVL28:
 385              		.loc 1 249 34 view .LVU99
 386 0038 1C60     		str	r4, [r3]
 250:Src/cantp.c   ****     // è°ƒç”¨ CanIf_Transmit å‡½æ•°å‘é€ç¼–ç åçš„ CAN å¸§
 251:Src/cantp.c   ****     CanIf_Transmit(TxPduId, &EncodedPduInfo);
 387              		.loc 1 251 5 is_stmt 1 view .LVU100
 388 003a 01A9     		add	r1, sp, #4
 389              	.LVL29:
 390              		.loc 1 251 5 is_stmt 0 view .LVU101
 391 003c FFF7FEFF 		bl	CanIf_Transmit
 392              	.LVL30:
 252:Src/cantp.c   **** }
 393              		.loc 1 252 1 view .LVU102
 394 0040 04B0     		add	sp, sp, #16
 395              	.LCFI4:
 396              		.cfi_def_cfa_offset 8
 397              		@ sp needed
 398 0042 10BD     		pop	{r4, pc}
 399              	.L32:
 400              		.align	2
 401              	.L31:
 402 0044 00000000 		.word	.LANCHOR8
 403              		.cfi_endproc
 404              	.LFE77:
 406              		.section	.text.CanTp_encodeConsecutiveFrame,"ax",%progbits
 407              		.align	1
 408              		.global	CanTp_encodeConsecutiveFrame
 409              		.syntax unified
 410              		.thumb
 411              		.thumb_func
 413              	CanTp_encodeConsecutiveFrame:
 414              	.LVL31:
 415              	.LFB78:
 253:Src/cantp.c   **** 
 254:Src/cantp.c   **** void CanTp_encodeConsecutiveFrame(uint32_t TxPduId, PduInfoType* PduInfoPtr){
 416              		.loc 1 254 77 is_stmt 1 view -0
 417              		.cfi_startproc
ARM GAS  C:\Users\wup15j\AppData\Local\Temp\cc0HQV6h.s 			page 13


 418              		@ args = 0, pretend = 0, frame = 0
 419              		@ frame_needed = 0, uses_anonymous_args = 0
 420              		.loc 1 254 77 is_stmt 0 view .LVU104
 421 0000 38B5     		push	{r3, r4, r5, lr}
 422              	.LCFI5:
 423              		.cfi_def_cfa_offset 16
 424              		.cfi_offset 3, -16
 425              		.cfi_offset 4, -12
 426              		.cfi_offset 5, -8
 427              		.cfi_offset 14, -4
 255:Src/cantp.c   ****     // å®šä¹‰ä¸€ä¸ªå¾ªç¯è®¡æ•°å˜é‡ i
 256:Src/cantp.c   ****     uint8_t i = 0;
 428              		.loc 1 256 5 is_stmt 1 view .LVU105
 429              	.LVL32:
 257:Src/cantp.c   ****     // æ ¹æ®å‰©ä½™å­—èŠ‚æ•°è®¾ç½®å½“å‰å¸§çš„é•¿åº¦ï¼Œå¦‚æœå‰©ä½™å­—èŠ‚æ•°å¤§äº 7ï¼Œåˆ™æœ¬å¸§ä¼ 
 258:Src/cantp.c   ****     EncodedPduInfo.Length = numberOfRemainingBytesToSend > 7 ? 7 : numberOfRemainingBytesToSend;
 430              		.loc 1 258 5 view .LVU106
 431              		.loc 1 258 58 is_stmt 0 view .LVU107
 432 0002 1E4B     		ldr	r3, .L40
 433 0004 1B68     		ldr	r3, [r3]
 434              		.loc 1 258 66 view .LVU108
 435 0006 072B     		cmp	r3, #7
 436 0008 12D8     		bhi	.L38
 437              		.loc 1 258 66 discriminator 1 view .LVU109
 438 000a 1C4B     		ldr	r3, .L40
 439 000c 1C68     		ldr	r4, [r3]
 440              	.L34:
 441              		.loc 1 258 27 discriminator 4 view .LVU110
 442 000e 1C4D     		ldr	r5, .L40+4
 443 0010 AC60     		str	r4, [r5, #8]
 259:Src/cantp.c   ****     // è®¾ç½® CAN å¸§çš„ç¬¬ä¸€ä¸ªå­—èŠ‚ä¸ºå¸§ç±»å‹ï¼ˆè¿ç»­å¸§ï¼‰ï¼Œå¹¶å°†å¸§åºå·ç¼–ç è¿›å»
 260:Src/cantp.c   ****     EncodedPduInfo.Data[0] = (0x02 << 4) | ConsecSN;
 444              		.loc 1 260 5 is_stmt 1 discriminator 4 view .LVU111
 445              		.loc 1 260 28 is_stmt 0 discriminator 4 view .LVU112
 446 0012 1C4A     		ldr	r2, .L40+8
 447 0014 1378     		ldrb	r3, [r2]	@ zero_extendqisi2
 448 0016 43F02003 		orr	r3, r3, #32
 449 001a 2B70     		strb	r3, [r5]
 261:Src/cantp.c   **** 
 262:Src/cantp.c   ****     // è®¡ç®—å½“å‰æ•°æ®çš„åç§»é‡ï¼Œå³ä»å“ªé‡Œå¼€å§‹è¯»å–æ•°æ®
 263:Src/cantp.c   ****     currentOffset = startOffset + ConsecSN * 7;
 450              		.loc 1 263 5 is_stmt 1 discriminator 4 view .LVU113
 451              		.loc 1 263 44 is_stmt 0 discriminator 4 view .LVU114
 452 001c 1378     		ldrb	r3, [r2]	@ zero_extendqisi2
 453 001e C3EBC303 		rsb	r3, r3, r3, lsl #3
 454              		.loc 1 263 33 discriminator 4 view .LVU115
 455 0022 194A     		ldr	r2, .L40+12
 456 0024 1268     		ldr	r2, [r2]
 457 0026 1344     		add	r3, r3, r2
 458              		.loc 1 263 19 discriminator 4 view .LVU116
 459 0028 184A     		ldr	r2, .L40+16
 460 002a 1360     		str	r3, [r2]
 264:Src/cantp.c   **** 
 265:Src/cantp.c   ****     // å°†æ•°æ®ä» PduInfoPtr å¤åˆ¶åˆ° CAN å¸§ï¼Œä»ç¬¬äºŒä¸ªå­—èŠ‚ï¼ˆç´¢å¼•ä¸º 1ï¼‰å¼€å§‹
 266:Src/cantp.c   ****     for (i = 0; i < EncodedPduInfo.Length; i++) {
 461              		.loc 1 266 5 is_stmt 1 discriminator 4 view .LVU117
 462              		.loc 1 266 12 is_stmt 0 discriminator 4 view .LVU118
ARM GAS  C:\Users\wup15j\AppData\Local\Temp\cc0HQV6h.s 			page 14


 463 002c 0023     		movs	r3, #0
 464              		.loc 1 266 5 discriminator 4 view .LVU119
 465 002e 0BE0     		b	.L35
 466              	.L38:
 258:Src/cantp.c   ****     // è®¾ç½® CAN å¸§çš„ç¬¬ä¸€ä¸ªå­—èŠ‚ä¸ºå¸§ç±»å‹ï¼ˆè¿ç»­å¸§ï¼‰ï¼Œå¹¶å°†å¸§åºå·ç¼–ç è¿›å»
 467              		.loc 1 258 66 view .LVU120
 468 0030 0724     		movs	r4, #7
 469 0032 ECE7     		b	.L34
 470              	.LVL33:
 471              	.L36:
 267:Src/cantp.c   ****         EncodedPduInfo.Data[i + 1] = PduInfoPtr->Data[i + currentOffset];
 472              		.loc 1 267 9 is_stmt 1 discriminator 3 view .LVU121
 473              		.loc 1 267 57 is_stmt 0 discriminator 3 view .LVU122
 474 0034 154A     		ldr	r2, .L40+16
 475 0036 1268     		ldr	r2, [r2]
 476 0038 1A44     		add	r2, r2, r3
 477              		.loc 1 267 31 discriminator 3 view .LVU123
 478 003a 0133     		adds	r3, r3, #1
 479              	.LVL34:
 480              		.loc 1 267 54 discriminator 3 view .LVU124
 481 003c 11F802C0 		ldrb	ip, [r1, r2]	@ zero_extendqisi2
 482              		.loc 1 267 36 discriminator 3 view .LVU125
 483 0040 0F4A     		ldr	r2, .L40+4
 484 0042 02F803C0 		strb	ip, [r2, r3]
 266:Src/cantp.c   ****         EncodedPduInfo.Data[i + 1] = PduInfoPtr->Data[i + currentOffset];
 485              		.loc 1 266 44 is_stmt 1 discriminator 3 view .LVU126
 266:Src/cantp.c   ****         EncodedPduInfo.Data[i + 1] = PduInfoPtr->Data[i + currentOffset];
 486              		.loc 1 266 45 is_stmt 0 discriminator 3 view .LVU127
 487 0046 DBB2     		uxtb	r3, r3
 488              	.LVL35:
 489              	.L35:
 266:Src/cantp.c   ****         EncodedPduInfo.Data[i + 1] = PduInfoPtr->Data[i + currentOffset];
 490              		.loc 1 266 17 is_stmt 1 discriminator 1 view .LVU128
 266:Src/cantp.c   ****         EncodedPduInfo.Data[i + 1] = PduInfoPtr->Data[i + currentOffset];
 491              		.loc 1 266 5 is_stmt 0 discriminator 1 view .LVU129
 492 0048 A342     		cmp	r3, r4
 493 004a F3D3     		bcc	.L36
 268:Src/cantp.c   ****     }
 269:Src/cantp.c   **** 
 270:Src/cantp.c   ****     // å¢åŠ å¸§åºå·ï¼Œå¦‚æœåºå·è¶…è¿‡ 0xFï¼ˆå³ 15ï¼‰ï¼Œåˆ™é‡ç½®ä¸º 0 å¹¶æ›´æ–°èµ·å§‹åç§»é
 271:Src/cantp.c   ****     ConsecSN++;
 494              		.loc 1 271 5 is_stmt 1 view .LVU130
 495              		.loc 1 271 13 is_stmt 0 view .LVU131
 496 004c 0D4A     		ldr	r2, .L40+8
 497 004e 1378     		ldrb	r3, [r2]	@ zero_extendqisi2
 498              	.LVL36:
 499              		.loc 1 271 13 view .LVU132
 500 0050 0133     		adds	r3, r3, #1
 501 0052 DBB2     		uxtb	r3, r3
 502 0054 1370     		strb	r3, [r2]
 272:Src/cantp.c   ****     if (ConsecSN > 0xF) {
 503              		.loc 1 272 5 is_stmt 1 view .LVU133
 504              		.loc 1 272 18 is_stmt 0 view .LVU134
 505 0056 1378     		ldrb	r3, [r2]	@ zero_extendqisi2
 506 0058 DBB2     		uxtb	r3, r3
 507              		.loc 1 272 8 view .LVU135
 508 005a 0F2B     		cmp	r3, #15
ARM GAS  C:\Users\wup15j\AppData\Local\Temp\cc0HQV6h.s 			page 15


 509 005c 06D9     		bls	.L37
 273:Src/cantp.c   ****         startOffset = currentOffset;
 510              		.loc 1 273 9 is_stmt 1 view .LVU136
 511              		.loc 1 273 21 is_stmt 0 view .LVU137
 512 005e 0B4B     		ldr	r3, .L40+16
 513 0060 1A68     		ldr	r2, [r3]
 514 0062 094B     		ldr	r3, .L40+12
 515 0064 1A60     		str	r2, [r3]
 274:Src/cantp.c   ****         ConsecSN = 0;
 516              		.loc 1 274 9 is_stmt 1 view .LVU138
 517              		.loc 1 274 18 is_stmt 0 view .LVU139
 518 0066 074B     		ldr	r3, .L40+8
 519 0068 0022     		movs	r2, #0
 520 006a 1A70     		strb	r2, [r3]
 521              	.L37:
 275:Src/cantp.c   ****     }
 276:Src/cantp.c   **** 
 277:Src/cantp.c   ****     // æ›´æ–°å‰©ä½™éœ€è¦å‘é€çš„å­—èŠ‚æ•°
 278:Src/cantp.c   ****     numberOfRemainingBytesToSend -= EncodedPduInfo.Length;
 522              		.loc 1 278 5 is_stmt 1 view .LVU140
 523              		.loc 1 278 34 is_stmt 0 view .LVU141
 524 006c 034A     		ldr	r2, .L40
 525 006e 1368     		ldr	r3, [r2]
 526 0070 1C1B     		subs	r4, r3, r4
 527 0072 1460     		str	r4, [r2]
 279:Src/cantp.c   ****     // è°ƒç”¨ CanIf_Transmit å‡½æ•°å‘é€ç¼–ç åçš„ CAN å¸§
 280:Src/cantp.c   ****     CanIf_Transmit(TxPduId, &EncodedPduInfo);
 528              		.loc 1 280 5 is_stmt 1 view .LVU142
 529 0074 0249     		ldr	r1, .L40+4
 530              	.LVL37:
 531              		.loc 1 280 5 is_stmt 0 view .LVU143
 532 0076 FFF7FEFF 		bl	CanIf_Transmit
 533              	.LVL38:
 281:Src/cantp.c   **** }
 534              		.loc 1 281 1 view .LVU144
 535 007a 38BD     		pop	{r3, r4, r5, pc}
 536              	.L41:
 537              		.align	2
 538              	.L40:
 539 007c 00000000 		.word	.LANCHOR8
 540 0080 00000000 		.word	.LANCHOR7
 541 0084 00000000 		.word	.LANCHOR9
 542 0088 00000000 		.word	.LANCHOR10
 543 008c 00000000 		.word	.LANCHOR11
 544              		.cfi_endproc
 545              	.LFE78:
 547              		.section	.text.CanTp_encodeFlowControlFrame,"ax",%progbits
 548              		.align	1
 549              		.global	CanTp_encodeFlowControlFrame
 550              		.syntax unified
 551              		.thumb
 552              		.thumb_func
 554              	CanTp_encodeFlowControlFrame:
 555              	.LVL39:
 556              	.LFB79:
 282:Src/cantp.c   **** 
 283:Src/cantp.c   **** void CanTp_encodeFlowControlFrame(uint32_t TxPduId, PduInfoType* PduInfoPtr){
ARM GAS  C:\Users\wup15j\AppData\Local\Temp\cc0HQV6h.s 			page 16


 557              		.loc 1 283 77 is_stmt 1 view -0
 558              		.cfi_startproc
 559              		@ args = 0, pretend = 0, frame = 0
 560              		@ frame_needed = 0, uses_anonymous_args = 0
 561              		.loc 1 283 77 is_stmt 0 view .LVU146
 562 0000 08B5     		push	{r3, lr}
 563              	.LCFI6:
 564              		.cfi_def_cfa_offset 8
 565              		.cfi_offset 3, -8
 566              		.cfi_offset 14, -4
 284:Src/cantp.c   ****     // è®¾ç½®æµæ§åˆ¶å¸§çš„ç¬¬ä¸€ä¸ªå­—èŠ‚ï¼Œæµæ§çŠ¶æ€ä¸ºç»§ç»­å‘é€ï¼ˆCTSï¼‰
 285:Src/cantp.c   ****     EncodedPduInfo.Data[0] = 0x30;
 567              		.loc 1 285 5 is_stmt 1 view .LVU147
 568              		.loc 1 285 28 is_stmt 0 view .LVU148
 569 0002 0D4B     		ldr	r3, .L46
 570 0004 3022     		movs	r2, #48
 571 0006 1A70     		strb	r2, [r3]
 286:Src/cantp.c   ****     // è®¾ç½®æµæ§åˆ¶å¸§çš„ç¬¬äºŒä¸ªå­—èŠ‚ä¸ºå—å¤§å°ï¼Œå³å¯ç”¨ç¼“å†²åŒºçš„æ•°é‡
 287:Src/cantp.c   ****     EncodedPduInfo.Data[1] = availableBuffers;
 572              		.loc 1 287 5 is_stmt 1 view .LVU149
 573              		.loc 1 287 28 is_stmt 0 view .LVU150
 574 0008 0C4A     		ldr	r2, .L46+4
 575 000a 1168     		ldr	r1, [r2]
 576              	.LVL40:
 577              		.loc 1 287 28 view .LVU151
 578 000c 5970     		strb	r1, [r3, #1]
 288:Src/cantp.c   ****     // è®¾ç½®æµæ§åˆ¶å¸§çš„ç¬¬ä¸‰ä¸ªå­—èŠ‚ä¸ºåˆ†ç¦»æ—¶é—´ï¼ˆSTï¼‰ï¼Œè¿™é‡Œè®¾ä¸º 0 æ¯«ç§’
 289:Src/cantp.c   ****     EncodedPduInfo.Data[2] = 0x00;
 579              		.loc 1 289 5 is_stmt 1 view .LVU152
 580              		.loc 1 289 28 is_stmt 0 view .LVU153
 581 000e 0021     		movs	r1, #0
 582 0010 9970     		strb	r1, [r3, #2]
 290:Src/cantp.c   **** 
 291:Src/cantp.c   ****     // æ›´æ–°æ¥æ”¶ç«¯å¯ä»¥æ¥æ”¶çš„è¿ç»­å¸§çš„æ•°é‡
 292:Src/cantp.c   ****     numberOfConsecutiveFramesToReceive = availableBuffers;
 583              		.loc 1 292 5 is_stmt 1 view .LVU154
 584              		.loc 1 292 40 is_stmt 0 view .LVU155
 585 0012 1268     		ldr	r2, [r2]
 586 0014 0A4B     		ldr	r3, .L46+8
 587 0016 1A60     		str	r2, [r3]
 293:Src/cantp.c   **** 
 294:Src/cantp.c   ****     // å°†æµæ§å¸§ä¸­å‰©ä½™çš„å­—èŠ‚å¡«å……ä¸º 0
 295:Src/cantp.c   ****     for (uint8_t i = 3; i < 8; i++) {
 588              		.loc 1 295 5 is_stmt 1 view .LVU156
 589              	.LBB2:
 590              		.loc 1 295 10 view .LVU157
 591              	.LVL41:
 592              		.loc 1 295 18 is_stmt 0 view .LVU158
 593 0018 0323     		movs	r3, #3
 594              		.loc 1 295 5 view .LVU159
 595 001a 04E0     		b	.L43
 596              	.LVL42:
 597              	.L44:
 296:Src/cantp.c   ****         EncodedPduInfo.Data[i] = 0x00;
 598              		.loc 1 296 9 is_stmt 1 discriminator 3 view .LVU160
 599              		.loc 1 296 32 is_stmt 0 discriminator 3 view .LVU161
 600 001c 064A     		ldr	r2, .L46
ARM GAS  C:\Users\wup15j\AppData\Local\Temp\cc0HQV6h.s 			page 17


 601 001e 0021     		movs	r1, #0
 602 0020 D154     		strb	r1, [r2, r3]
 295:Src/cantp.c   ****         EncodedPduInfo.Data[i] = 0x00;
 603              		.loc 1 295 32 is_stmt 1 discriminator 3 view .LVU162
 295:Src/cantp.c   ****         EncodedPduInfo.Data[i] = 0x00;
 604              		.loc 1 295 33 is_stmt 0 discriminator 3 view .LVU163
 605 0022 0133     		adds	r3, r3, #1
 606              	.LVL43:
 295:Src/cantp.c   ****         EncodedPduInfo.Data[i] = 0x00;
 607              		.loc 1 295 33 discriminator 3 view .LVU164
 608 0024 DBB2     		uxtb	r3, r3
 609              	.LVL44:
 610              	.L43:
 295:Src/cantp.c   ****         EncodedPduInfo.Data[i] = 0x00;
 611              		.loc 1 295 25 is_stmt 1 discriminator 1 view .LVU165
 295:Src/cantp.c   ****         EncodedPduInfo.Data[i] = 0x00;
 612              		.loc 1 295 5 is_stmt 0 discriminator 1 view .LVU166
 613 0026 072B     		cmp	r3, #7
 614 0028 F8D9     		bls	.L44
 615              	.LBE2:
 297:Src/cantp.c   ****     }
 298:Src/cantp.c   **** 
 299:Src/cantp.c   ****     // åˆå§‹åŒ–å¸§åºå·ä¸º 1
 300:Src/cantp.c   ****     ConsecSN = 1;
 616              		.loc 1 300 5 is_stmt 1 view .LVU167
 617              		.loc 1 300 14 is_stmt 0 view .LVU168
 618 002a 064B     		ldr	r3, .L46+12
 619              	.LVL45:
 620              		.loc 1 300 14 view .LVU169
 621 002c 0122     		movs	r2, #1
 622 002e 1A70     		strb	r2, [r3]
 301:Src/cantp.c   ****     // è°ƒç”¨ CanIf_Transmit å‡½æ•°å‘é€ç¼–ç åçš„æµæ§å¸§
 302:Src/cantp.c   ****     CanIf_Transmit(TxPduId, &EncodedPduInfo);
 623              		.loc 1 302 5 is_stmt 1 view .LVU170
 624 0030 0149     		ldr	r1, .L46
 625 0032 FFF7FEFF 		bl	CanIf_Transmit
 626              	.LVL46:
 303:Src/cantp.c   **** }
 627              		.loc 1 303 1 is_stmt 0 view .LVU171
 628 0036 08BD     		pop	{r3, pc}
 629              	.L47:
 630              		.align	2
 631              	.L46:
 632 0038 00000000 		.word	.LANCHOR7
 633 003c 00000000 		.word	.LANCHOR12
 634 0040 00000000 		.word	.LANCHOR13
 635 0044 00000000 		.word	.LANCHOR9
 636              		.cfi_endproc
 637              	.LFE79:
 639              		.section	.text.CanTp_decodeFlowControlFrame,"ax",%progbits
 640              		.align	1
 641              		.global	CanTp_decodeFlowControlFrame
 642              		.syntax unified
 643              		.thumb
 644              		.thumb_func
 646              	CanTp_decodeFlowControlFrame:
 647              	.LVL47:
ARM GAS  C:\Users\wup15j\AppData\Local\Temp\cc0HQV6h.s 			page 18


 648              	.LFB83:
 304:Src/cantp.c   **** 
 305:Src/cantp.c   **** void CanTp_decodeSingleFrame(uint32_t RxPduId, PduInfoTRx* PduInfoPtr){
 306:Src/cantp.c   ****     // ä» CAN å¸§çš„ç¬¬ä¸€ä¸ªå­—èŠ‚ä¸­æå–æ•°æ®é•¿åº¦ï¼Œæ•°æ®é•¿åº¦åœ¨ PCI çš„ä½ 4 ä½
 307:Src/cantp.c   ****     uint32_t dataLength = PduInfoPtr->Data[0] & 0x0F;
 308:Src/cantp.c   ****     // æ›´æ–°å…¨å±€å˜é‡ï¼Œè®°å½•å‰©ä½™è¦æ¥æ”¶çš„å­—èŠ‚æ•°
 309:Src/cantp.c   ****     numberOfRemainingBytesToReceive = dataLength;
 310:Src/cantp.c   ****     // è®¾ç½® CompletePduInfo ç»“æ„ä½“ä¸­çš„é•¿åº¦ä¸ºæ¥æ”¶åˆ°çš„å­—èŠ‚æ•°
 311:Src/cantp.c   ****     CompletePduInfo.Length = numberOfRemainingBytesToReceive;
 312:Src/cantp.c   **** 
 313:Src/cantp.c   ****     // åˆå§‹åŒ–ä¸€ä¸ªå¾ªç¯è®¡æ•°å˜é‡ i
 314:Src/cantp.c   ****     int i;
 315:Src/cantp.c   ****     // å°†æ•°æ®ä»æ¥æ”¶åˆ°çš„ CAN å¸§ä¸­å¤åˆ¶åˆ°è§£ç åçš„æ•°æ®ç»“æ„ä¸­
 316:Src/cantp.c   ****     for (i = 0; i < dataLength; i++) {
 317:Src/cantp.c   ****         DecodedPduInfo.Data[i] = PduInfoPtr->Data[i+1];
 318:Src/cantp.c   ****     }
 319:Src/cantp.c   **** 
 320:Src/cantp.c   ****     // å°†è§£ç åçš„æ•°æ®é•¿åº¦è®¾ç½®ä¸º dataLength
 321:Src/cantp.c   ****     DecodedPduInfo.Length = dataLength;
 322:Src/cantp.c   **** 
 323:Src/cantp.c   ****     // è°ƒç”¨ CanTp_ConnectData å‡½æ•°ï¼Œå°†è§£ç åçš„æ•°æ®ä¸å®Œæ•´çš„ PDU ä¿¡æ¯è¿æ¥èµ·æ¥
 324:Src/cantp.c   ****     CanTp_ConnectData(&DecodedPduInfo);
 325:Src/cantp.c   **** }
 326:Src/cantp.c   **** 
 327:Src/cantp.c   **** void CanTp_decodeFirstFrame(uint32_t RxPduId, PduInfoTRx* PduInfoPtr){
 328:Src/cantp.c   ****     // ä»é¦–å¸§çš„ç¬¬ä¸€ä¸ªå­—èŠ‚çš„ä½ 4 ä½å’Œç¬¬äºŒä¸ªå­—èŠ‚æå–æ•°æ®é•¿åº¦
 329:Src/cantp.c   ****     numberOfRemainingBytesToReceive = ((PduInfoPtr->Data[0] & 0x0F) << 8) | PduInfoPtr->Data[1];
 330:Src/cantp.c   ****     // è®¾ç½® CompletePduInfo ç»“æ„ä½“ä¸­çš„é•¿åº¦ä¸ºæ¥æ”¶åˆ°çš„æ€»å­—èŠ‚æ•°
 331:Src/cantp.c   ****     CompletePduInfo.Length = numberOfRemainingBytesToReceive;
 332:Src/cantp.c   ****     // é¦–å¸§ä¸­å®é™…æœ‰æ•ˆè´Ÿè½½æ•°æ®é•¿åº¦ä¸º 6 ä¸ªå­—èŠ‚
 333:Src/cantp.c   ****     DecodedPduInfo.Length = 6;
 334:Src/cantp.c   **** 
 335:Src/cantp.c   ****     // å®šä¹‰ä¸€ä¸ªå¾ªç¯è®¡æ•°å˜é‡ Counter
 336:Src/cantp.c   ****     uint8_t Counter = 0;
 337:Src/cantp.c   **** 
 338:Src/cantp.c   ****     // å°†é¦–å¸§ä¸­çš„æ•°æ®å¤åˆ¶åˆ°è§£ç åçš„æ•°æ®ç»“æ„ä¸­ï¼Œä» CAN å¸§çš„ç¬¬ä¸‰ä¸ªå­—èŠ‚ï¼ˆ
 339:Src/cantp.c   ****     for (Counter = 0; Counter < 8; Counter++) {
 340:Src/cantp.c   ****         DecodedPduInfo.Data[Counter] = PduInfoPtr->Data[Counter + 2];
 341:Src/cantp.c   ****     }
 342:Src/cantp.c   **** 
 343:Src/cantp.c   ****     // è°ƒç”¨ CanTp_ConnectData å‡½æ•°ï¼Œå°†è§£ç åçš„æ•°æ®ä¸å®Œæ•´çš„ PDU ä¿¡æ¯è¿æ¥èµ·æ¥
 344:Src/cantp.c   ****     CanTp_ConnectData(&DecodedPduInfo);
 345:Src/cantp.c   **** }
 346:Src/cantp.c   **** 
 347:Src/cantp.c   **** void CanTp_decodeConsecutiveFrame(uint32_t RxPduId, PduInfoTRx* PduInfoPtr){
 348:Src/cantp.c   ****     // æ¯æ”¶åˆ°ä¸€ä¸ªè¿ç»­å¸§ï¼Œå°±å‡å°‘å‰©ä½™è¦æ¥æ”¶çš„å¸§æ•°
 349:Src/cantp.c   ****     numberOfConsecutiveFramesToReceive--;
 350:Src/cantp.c   ****     // åˆå§‹åŒ–ä¸€ä¸ªå¾ªç¯è®¡æ•°å˜é‡ i
 351:Src/cantp.c   ****     uint8_t i = 0;
 352:Src/cantp.c   ****     // è®¾ç½®è§£ç åçš„å¸§é•¿åº¦ä¸º 7 å­—èŠ‚æˆ–å‰©ä½™å­—èŠ‚æ•°ä¸­çš„è¾ƒå°è€…
 353:Src/cantp.c   ****     DecodedPduInfo.Length = numberOfRemainingBytesToReceive > 7 ? 7 : numberOfRemainingBytesToRecei
 354:Src/cantp.c   **** 
 355:Src/cantp.c   ****     // æ£€æŸ¥è¿ç»­å¸§çš„åºå·æ˜¯å¦ä¸å½“å‰æœŸæœ›çš„åºå·åŒ¹é…
 356:Src/cantp.c   ****     if (ConsecSN == (PduInfoPtr->Data[0] & 0x0F)) {
 357:Src/cantp.c   ****         // å°†æ•°æ®ä»æ¥æ”¶åˆ°çš„ CAN å¸§ä¸­å¤åˆ¶åˆ°è§£ç åçš„æ•°æ®ç»“æ„ä¸­
 358:Src/cantp.c   ****         for (i = 0; i < DecodedPduInfo.Length; i++) {
 359:Src/cantp.c   ****             DecodedPduInfo.Data[i] = PduInfoPtr->Data[i+1];
ARM GAS  C:\Users\wup15j\AppData\Local\Temp\cc0HQV6h.s 			page 19


 360:Src/cantp.c   ****         }
 361:Src/cantp.c   **** 
 362:Src/cantp.c   ****         // æ›´æ–°åºå·ï¼Œå¦‚æœåºå·è¶…è¿‡ 0xFï¼ˆå³ 15ï¼‰ï¼Œåˆ™é‡ç½®ä¸º 0ï¼Œå¦åˆ™é€’å¢
 363:Src/cantp.c   ****         ConsecSN = ConsecSN + 1 > 0xF ? 0 : ConsecSN + 1;
 364:Src/cantp.c   **** 
 365:Src/cantp.c   ****         // è°ƒç”¨ CanTp_ConnectData å‡½æ•°ï¼Œå°†è§£ç åçš„æ•°æ®ä¸å®Œæ•´çš„ PDU ä¿¡æ¯è¿æ¥èµ·æ
 366:Src/cantp.c   ****         CanTp_ConnectData(&DecodedPduInfo);
 367:Src/cantp.c   ****     }
 368:Src/cantp.c   **** }
 369:Src/cantp.c   **** 
 370:Src/cantp.c   **** void CanTp_decodeFlowControlFrame(uint32_t RxPduId, PduInfoTRx* PduInfoPtr){
 649              		.loc 1 370 76 is_stmt 1 view -0
 650              		.cfi_startproc
 651              		@ args = 0, pretend = 0, frame = 0
 652              		@ frame_needed = 0, uses_anonymous_args = 0
 653              		@ link register save eliminated.
 371:Src/cantp.c   ****     // ä»æ¥æ”¶åˆ°çš„ PDU ä¸­æå–æµæ§åˆ¶çŠ¶æ€ã€å—å¤§å°å’Œåˆ†ç¦»æ—¶é—´ï¼ˆSTï¼‰
 372:Src/cantp.c   ****     uint8_t flowStatus = PduInfoPtr->Data[0];
 654              		.loc 1 372 5 view .LVU173
 655              		.loc 1 372 13 is_stmt 0 view .LVU174
 656 0000 0B78     		ldrb	r3, [r1]	@ zero_extendqisi2
 657              	.LVL48:
 373:Src/cantp.c   ****     uint8_t blockSize = PduInfoPtr->Data[1];
 658              		.loc 1 373 5 is_stmt 1 view .LVU175
 659              		.loc 1 373 13 is_stmt 0 view .LVU176
 660 0002 4978     		ldrb	r1, [r1, #1]	@ zero_extendqisi2
 661              	.LVL49:
 374:Src/cantp.c   **** 
 375:Src/cantp.c   ****     // æ›´æ–°å¯ä»¥å‘é€çš„è¿ç»­å¸§çš„æ•°é‡
 376:Src/cantp.c   ****     numberOfConsecutiveFramesToSend = blockSize;
 662              		.loc 1 376 5 is_stmt 1 view .LVU177
 663              		.loc 1 376 37 is_stmt 0 view .LVU178
 664 0004 0A4A     		ldr	r2, .L52
 665 0006 1160     		str	r1, [r2]
 377:Src/cantp.c   **** 
 378:Src/cantp.c   ****     // æ ¹æ®ä¸åŒçš„æµæ§åˆ¶çŠ¶æ€æ‰§è¡Œç›¸åº”æ“ä½œ
 379:Src/cantp.c   ****     switch (flowStatus) {
 666              		.loc 1 379 5 is_stmt 1 view .LVU179
 667 0008 302B     		cmp	r3, #48
 668 000a 02D0     		beq	.L49
 669 000c 312B     		cmp	r3, #49
 670 000e 0AD0     		beq	.L50
 671 0010 7047     		bx	lr
 672              	.L49:
 380:Src/cantp.c   ****         case 0x30:  // ç»§ç»­å‘é€ (CTS)
 381:Src/cantp.c   ****             // æ›´æ–°æœŸæœ›çš„å¸§çŠ¶æ€ä¸ºè¿ç»­å¸§
 382:Src/cantp.c   ****             expectedFrameState = Consecutive_Frame_State;
 673              		.loc 1 382 13 view .LVU180
 674              		.loc 1 382 32 is_stmt 0 view .LVU181
 675 0012 0123     		movs	r3, #1
 676              	.LVL50:
 677              		.loc 1 382 32 view .LVU182
 678 0014 074A     		ldr	r2, .L52+4
 679 0016 1370     		strb	r3, [r2]
 383:Src/cantp.c   ****             // æ›´æ–°å½“å‰åç§»é‡ä¸ºèµ·å§‹åç§»é‡
 384:Src/cantp.c   ****             startOffset = currentOffset;
 680              		.loc 1 384 13 is_stmt 1 view .LVU183
ARM GAS  C:\Users\wup15j\AppData\Local\Temp\cc0HQV6h.s 			page 20


 681              		.loc 1 384 25 is_stmt 0 view .LVU184
 682 0018 074A     		ldr	r2, .L52+8
 683 001a 1168     		ldr	r1, [r2]
 684              	.LVL51:
 685              		.loc 1 384 25 view .LVU185
 686 001c 074A     		ldr	r2, .L52+12
 687 001e 1160     		str	r1, [r2]
 688              	.LVL52:
 385:Src/cantp.c   ****             // åˆå§‹åŒ–å¸§åºå·ä¸º 1
 386:Src/cantp.c   ****             ConsecSN = 1;
 689              		.loc 1 386 13 is_stmt 1 view .LVU186
 690              		.loc 1 386 22 is_stmt 0 view .LVU187
 691 0020 074A     		ldr	r2, .L52+16
 692 0022 1370     		strb	r3, [r2]
 387:Src/cantp.c   ****             break;
 693              		.loc 1 387 13 is_stmt 1 view .LVU188
 694 0024 7047     		bx	lr
 695              	.LVL53:
 696              	.L50:
 388:Src/cantp.c   **** 
 389:Src/cantp.c   ****         case 0x31:  // ç­‰å¾… (WT)
 390:Src/cantp.c   ****             // æµæ§åˆ¶çŠ¶æ€ä¸ºç­‰å¾…
 391:Src/cantp.c   ****             expectedFrameState = FlowControl_Frame_State;
 697              		.loc 1 391 13 view .LVU189
 698              		.loc 1 391 32 is_stmt 0 view .LVU190
 699 0026 034B     		ldr	r3, .L52+4
 700              	.LVL54:
 701              		.loc 1 391 32 view .LVU191
 702 0028 0222     		movs	r2, #2
 703 002a 1A70     		strb	r2, [r3]
 392:Src/cantp.c   ****             break;
 704              		.loc 1 392 13 is_stmt 1 view .LVU192
 393:Src/cantp.c   **** 
 394:Src/cantp.c   ****         case 0x32:  // æº¢å‡º/ä¸­æ­¢ (OVFLW/ABORT)
 395:Src/cantp.c   ****             // å¤„ç†æº¢å‡ºæˆ–ä¸­æ­¢æ¡ä»¶
 396:Src/cantp.c   ****             // æ›´æ–°æœŸæœ›çš„å¸§çŠ¶æ€ä¸ºä»»æ„çŠ¶æ€ï¼ˆå¦‚éœ€è¦ï¼‰
 397:Src/cantp.c   ****             // expectedFrameState = Any_State;
 398:Src/cantp.c   ****             // æ‰§è¡Œé¢å¤–çš„ä¸­æ­¢æ“ä½œï¼Œå¦‚é€šçŸ¥ä¸Šå±‚åè®®
 399:Src/cantp.c   ****             break;
 400:Src/cantp.c   **** 
 401:Src/cantp.c   ****         default:
 402:Src/cantp.c   ****             // å¤„ç†æ— æ•ˆçš„æµæ§åˆ¶çŠ¶æ€ï¼Œå¦‚è®¾ç½®é”™è¯¯çŠ¶æ€
 403:Src/cantp.c   ****             // expectedFrameState = Any_State;
 404:Src/cantp.c   ****             break;
 405:Src/cantp.c   ****     }
 406:Src/cantp.c   **** }
 705              		.loc 1 406 1 is_stmt 0 view .LVU193
 706 002c 7047     		bx	lr
 707              	.L53:
 708 002e 00BF     		.align	2
 709              	.L52:
 710 0030 00000000 		.word	.LANCHOR14
 711 0034 00000000 		.word	.LANCHOR15
 712 0038 00000000 		.word	.LANCHOR11
 713 003c 00000000 		.word	.LANCHOR10
 714 0040 00000000 		.word	.LANCHOR9
 715              		.cfi_endproc
ARM GAS  C:\Users\wup15j\AppData\Local\Temp\cc0HQV6h.s 			page 21


 716              	.LFE83:
 718              		.section	.text.CanTp_ConnectData,"ax",%progbits
 719              		.align	1
 720              		.global	CanTp_ConnectData
 721              		.syntax unified
 722              		.thumb
 723              		.thumb_func
 725              	CanTp_ConnectData:
 726              	.LVL55:
 727              	.LFB84:
 407:Src/cantp.c   **** 
 408:Src/cantp.c   **** void CanTp_ConnectData(PduInfoTRx* PduInfoPtr){
 728              		.loc 1 408 47 is_stmt 1 view -0
 729              		.cfi_startproc
 730              		@ args = 0, pretend = 0, frame = 0
 731              		@ frame_needed = 0, uses_anonymous_args = 0
 732              		.loc 1 408 47 is_stmt 0 view .LVU195
 733 0000 00B5     		push	{lr}
 734              	.LCFI7:
 735              		.cfi_def_cfa_offset 4
 736              		.cfi_offset 14, -4
 409:Src/cantp.c   ****     // ä½¿ç”¨ CompletePduInfo ç»“æ„ä½“ï¼Œå°†æ¥æ”¶åˆ°çš„æ•°æ®ä¸å®Œæ•´çš„ PDU ä¿¡æ¯è¿æ¥èµ·æ¥
 410:Src/cantp.c   ****     // å®šä¹‰ä¸€ä¸ªä¸´æ—¶å˜é‡ tempCurrentIndexï¼Œä¿å­˜å½“å‰ç´¢å¼•
 411:Src/cantp.c   ****     uint16_t tempCurrentIndex = currentIndex;
 737              		.loc 1 411 5 is_stmt 1 view .LVU196
 738              		.loc 1 411 14 is_stmt 0 view .LVU197
 739 0002 124B     		ldr	r3, .L58
 740 0004 B3F800C0 		ldrh	ip, [r3]
 741 0008 1FFA8CFC 		uxth	ip, ip
 742              	.LVL56:
 412:Src/cantp.c   ****     
 413:Src/cantp.c   ****     // å°†æ¥æ”¶åˆ°çš„ PDU æ•°æ®é€å­—èŠ‚è¿æ¥åˆ° CompletePduInfo æ•°æ®ä¸­
 414:Src/cantp.c   ****     while (currentIndex < PduInfoPtr->Length + tempCurrentIndex) {
 743              		.loc 1 414 5 is_stmt 1 view .LVU198
 744              		.loc 1 414 11 is_stmt 0 view .LVU199
 745 000c 10E0     		b	.L55
 746              	.L56:
 415:Src/cantp.c   ****         CompletePduInfo.Data[currentIndex] = PduInfoPtr->Data[currentIndex - tempCurrentIndex];
 747              		.loc 1 415 9 is_stmt 1 view .LVU200
 748              		.loc 1 415 76 is_stmt 0 view .LVU201
 749 000e 0F4A     		ldr	r2, .L58
 750 0010 1388     		ldrh	r3, [r2]
 751 0012 9BB2     		uxth	r3, r3
 752 0014 A3EB0C03 		sub	r3, r3, ip
 753              		.loc 1 415 29 view .LVU202
 754 0018 1188     		ldrh	r1, [r2]
 755 001a 89B2     		uxth	r1, r1
 756              		.loc 1 415 62 view .LVU203
 757 001c 10F803E0 		ldrb	lr, [r0, r3]	@ zero_extendqisi2
 758              		.loc 1 415 44 view .LVU204
 759 0020 0B4B     		ldr	r3, .L58+4
 760 0022 03F801E0 		strb	lr, [r3, r1]
 416:Src/cantp.c   ****         // æ›´æ–°å½“å‰ç´¢å¼•
 417:Src/cantp.c   ****         currentIndex++;
 761              		.loc 1 417 9 is_stmt 1 view .LVU205
 762              		.loc 1 417 21 is_stmt 0 view .LVU206
 763 0026 1388     		ldrh	r3, [r2]
ARM GAS  C:\Users\wup15j\AppData\Local\Temp\cc0HQV6h.s 			page 22


 764 0028 9BB2     		uxth	r3, r3
 765 002a 0133     		adds	r3, r3, #1
 766 002c 9BB2     		uxth	r3, r3
 767 002e 1380     		strh	r3, [r2]	@ movhi
 768              	.L55:
 414:Src/cantp.c   ****         CompletePduInfo.Data[currentIndex] = PduInfoPtr->Data[currentIndex - tempCurrentIndex];
 769              		.loc 1 414 11 is_stmt 1 view .LVU207
 414:Src/cantp.c   ****         CompletePduInfo.Data[currentIndex] = PduInfoPtr->Data[currentIndex - tempCurrentIndex];
 770              		.loc 1 414 25 is_stmt 0 view .LVU208
 771 0030 064B     		ldr	r3, .L58
 772 0032 1B88     		ldrh	r3, [r3]
 773 0034 9BB2     		uxth	r3, r3
 414:Src/cantp.c   ****         CompletePduInfo.Data[currentIndex] = PduInfoPtr->Data[currentIndex - tempCurrentIndex];
 774              		.loc 1 414 37 view .LVU209
 775 0036 8268     		ldr	r2, [r0, #8]
 414:Src/cantp.c   ****         CompletePduInfo.Data[currentIndex] = PduInfoPtr->Data[currentIndex - tempCurrentIndex];
 776              		.loc 1 414 46 view .LVU210
 777 0038 0CEB0201 		add	r1, ip, r2
 414:Src/cantp.c   ****         CompletePduInfo.Data[currentIndex] = PduInfoPtr->Data[currentIndex - tempCurrentIndex];
 778              		.loc 1 414 11 view .LVU211
 779 003c 8B42     		cmp	r3, r1
 780 003e E6D3     		bcc	.L56
 418:Src/cantp.c   ****     }
 419:Src/cantp.c   **** 
 420:Src/cantp.c   ****     // æ›´æ–°å‰©ä½™éœ€è¦æ¥æ”¶çš„å­—èŠ‚æ•°
 421:Src/cantp.c   ****     numberOfRemainingBytesToReceive -= PduInfoPtr->Length;
 781              		.loc 1 421 5 is_stmt 1 view .LVU212
 782              		.loc 1 421 37 is_stmt 0 view .LVU213
 783 0040 0449     		ldr	r1, .L58+8
 784 0042 0B68     		ldr	r3, [r1]
 785 0044 9A1A     		subs	r2, r3, r2
 786 0046 0A60     		str	r2, [r1]
 422:Src/cantp.c   **** }
 787              		.loc 1 422 1 view .LVU214
 788 0048 5DF804FB 		ldr	pc, [sp], #4
 789              	.L59:
 790              		.align	2
 791              	.L58:
 792 004c 00000000 		.word	.LANCHOR16
 793 0050 00000000 		.word	.LANCHOR17
 794 0054 00000000 		.word	.LANCHOR18
 795              		.cfi_endproc
 796              	.LFE84:
 798              		.section	.text.CanTp_decodeSingleFrame,"ax",%progbits
 799              		.align	1
 800              		.global	CanTp_decodeSingleFrame
 801              		.syntax unified
 802              		.thumb
 803              		.thumb_func
 805              	CanTp_decodeSingleFrame:
 806              	.LVL57:
 807              	.LFB80:
 305:Src/cantp.c   ****     // ä» CAN å¸§çš„ç¬¬ä¸€ä¸ªå­—èŠ‚ä¸­æå–æ•°æ®é•¿åº¦ï¼Œæ•°æ®é•¿åº¦åœ¨ PCI çš„ä½ 4 ä½
 808              		.loc 1 305 71 is_stmt 1 view -0
 809              		.cfi_startproc
 810              		@ args = 0, pretend = 0, frame = 0
 811              		@ frame_needed = 0, uses_anonymous_args = 0
ARM GAS  C:\Users\wup15j\AppData\Local\Temp\cc0HQV6h.s 			page 23


 305:Src/cantp.c   ****     // ä» CAN å¸§çš„ç¬¬ä¸€ä¸ªå­—èŠ‚ä¸­æå–æ•°æ®é•¿åº¦ï¼Œæ•°æ®é•¿åº¦åœ¨ PCI çš„ä½ 4 ä½
 812              		.loc 1 305 71 is_stmt 0 view .LVU216
 813 0000 10B5     		push	{r4, lr}
 814              	.LCFI8:
 815              		.cfi_def_cfa_offset 8
 816              		.cfi_offset 4, -8
 817              		.cfi_offset 14, -4
 307:Src/cantp.c   ****     // æ›´æ–°å…¨å±€å˜é‡ï¼Œè®°å½•å‰©ä½™è¦æ¥æ”¶çš„å­—èŠ‚æ•°
 818              		.loc 1 307 5 is_stmt 1 view .LVU217
 307:Src/cantp.c   ****     // æ›´æ–°å…¨å±€å˜é‡ï¼Œè®°å½•å‰©ä½™è¦æ¥æ”¶çš„å­—èŠ‚æ•°
 819              		.loc 1 307 43 is_stmt 0 view .LVU218
 820 0002 0C78     		ldrb	r4, [r1]	@ zero_extendqisi2
 307:Src/cantp.c   ****     // æ›´æ–°å…¨å±€å˜é‡ï¼Œè®°å½•å‰©ä½™è¦æ¥æ”¶çš„å­—èŠ‚æ•°
 821              		.loc 1 307 14 view .LVU219
 822 0004 04F00F04 		and	r4, r4, #15
 823              	.LVL58:
 309:Src/cantp.c   ****     // è®¾ç½® CompletePduInfo ç»“æ„ä½“ä¸­çš„é•¿åº¦ä¸ºæ¥æ”¶åˆ°çš„å­—èŠ‚æ•°
 824              		.loc 1 309 5 is_stmt 1 view .LVU220
 309:Src/cantp.c   ****     // è®¾ç½® CompletePduInfo ç»“æ„ä½“ä¸­çš„é•¿åº¦ä¸ºæ¥æ”¶åˆ°çš„å­—èŠ‚æ•°
 825              		.loc 1 309 37 is_stmt 0 view .LVU221
 826 0008 0A4B     		ldr	r3, .L64
 827 000a 1C60     		str	r4, [r3]
 311:Src/cantp.c   **** 
 828              		.loc 1 311 5 is_stmt 1 view .LVU222
 311:Src/cantp.c   **** 
 829              		.loc 1 311 28 is_stmt 0 view .LVU223
 830 000c 1A68     		ldr	r2, [r3]
 831 000e 0A4B     		ldr	r3, .L64+4
 832 0010 C3F80022 		str	r2, [r3, #512]
 314:Src/cantp.c   ****     // å°†æ•°æ®ä»æ¥æ”¶åˆ°çš„ CAN å¸§ä¸­å¤åˆ¶åˆ°è§£ç åçš„æ•°æ®ç»“æ„ä¸­
 833              		.loc 1 314 5 is_stmt 1 view .LVU224
 316:Src/cantp.c   ****         DecodedPduInfo.Data[i] = PduInfoPtr->Data[i+1];
 834              		.loc 1 316 5 view .LVU225
 835              	.LVL59:
 316:Src/cantp.c   ****         DecodedPduInfo.Data[i] = PduInfoPtr->Data[i+1];
 836              		.loc 1 316 12 is_stmt 0 view .LVU226
 837 0014 0023     		movs	r3, #0
 316:Src/cantp.c   ****         DecodedPduInfo.Data[i] = PduInfoPtr->Data[i+1];
 838              		.loc 1 316 5 view .LVU227
 839 0016 06E0     		b	.L61
 840              	.LVL60:
 841              	.L62:
 317:Src/cantp.c   ****     }
 842              		.loc 1 317 9 is_stmt 1 discriminator 3 view .LVU228
 317:Src/cantp.c   ****     }
 843              		.loc 1 317 52 is_stmt 0 discriminator 3 view .LVU229
 844 0018 5A1C     		adds	r2, r3, #1
 317:Src/cantp.c   ****     }
 845              		.loc 1 317 50 discriminator 3 view .LVU230
 846 001a 11F802C0 		ldrb	ip, [r1, r2]	@ zero_extendqisi2
 317:Src/cantp.c   ****     }
 847              		.loc 1 317 32 discriminator 3 view .LVU231
 848 001e 0748     		ldr	r0, .L64+8
 849 0020 00F803C0 		strb	ip, [r0, r3]
 316:Src/cantp.c   ****         DecodedPduInfo.Data[i] = PduInfoPtr->Data[i+1];
 850              		.loc 1 316 33 is_stmt 1 discriminator 3 view .LVU232
 851              	.LVL61:
ARM GAS  C:\Users\wup15j\AppData\Local\Temp\cc0HQV6h.s 			page 24


 316:Src/cantp.c   ****         DecodedPduInfo.Data[i] = PduInfoPtr->Data[i+1];
 852              		.loc 1 316 34 is_stmt 0 discriminator 3 view .LVU233
 853 0024 1346     		mov	r3, r2
 854              	.LVL62:
 855              	.L61:
 316:Src/cantp.c   ****         DecodedPduInfo.Data[i] = PduInfoPtr->Data[i+1];
 856              		.loc 1 316 17 is_stmt 1 discriminator 1 view .LVU234
 316:Src/cantp.c   ****         DecodedPduInfo.Data[i] = PduInfoPtr->Data[i+1];
 857              		.loc 1 316 5 is_stmt 0 discriminator 1 view .LVU235
 858 0026 A342     		cmp	r3, r4
 859 0028 F6D3     		bcc	.L62
 321:Src/cantp.c   **** 
 860              		.loc 1 321 5 is_stmt 1 view .LVU236
 321:Src/cantp.c   **** 
 861              		.loc 1 321 27 is_stmt 0 view .LVU237
 862 002a 0448     		ldr	r0, .L64+8
 863 002c 8460     		str	r4, [r0, #8]
 324:Src/cantp.c   **** }
 864              		.loc 1 324 5 is_stmt 1 view .LVU238
 865 002e FFF7FEFF 		bl	CanTp_ConnectData
 866              	.LVL63:
 325:Src/cantp.c   **** 
 867              		.loc 1 325 1 is_stmt 0 view .LVU239
 868 0032 10BD     		pop	{r4, pc}
 869              	.LVL64:
 870              	.L65:
 325:Src/cantp.c   **** 
 871              		.loc 1 325 1 view .LVU240
 872              		.align	2
 873              	.L64:
 874 0034 00000000 		.word	.LANCHOR18
 875 0038 00000000 		.word	.LANCHOR17
 876 003c 00000000 		.word	.LANCHOR19
 877              		.cfi_endproc
 878              	.LFE80:
 880              		.section	.text.CanTp_decodeFirstFrame,"ax",%progbits
 881              		.align	1
 882              		.global	CanTp_decodeFirstFrame
 883              		.syntax unified
 884              		.thumb
 885              		.thumb_func
 887              	CanTp_decodeFirstFrame:
 888              	.LVL65:
 889              	.LFB81:
 327:Src/cantp.c   ****     // ä»é¦–å¸§çš„ç¬¬ä¸€ä¸ªå­—èŠ‚çš„ä½ 4 ä½å’Œç¬¬äºŒä¸ªå­—èŠ‚æå–æ•°æ®é•¿åº¦
 890              		.loc 1 327 70 is_stmt 1 view -0
 891              		.cfi_startproc
 892              		@ args = 0, pretend = 0, frame = 0
 893              		@ frame_needed = 0, uses_anonymous_args = 0
 327:Src/cantp.c   ****     // ä»é¦–å¸§çš„ç¬¬ä¸€ä¸ªå­—èŠ‚çš„ä½ 4 ä½å’Œç¬¬äºŒä¸ªå­—èŠ‚æå–æ•°æ®é•¿åº¦
 894              		.loc 1 327 70 is_stmt 0 view .LVU242
 895 0000 08B5     		push	{r3, lr}
 896              	.LCFI9:
 897              		.cfi_def_cfa_offset 8
 898              		.cfi_offset 3, -8
 899              		.cfi_offset 14, -4
 329:Src/cantp.c   ****     // è®¾ç½® CompletePduInfo ç»“æ„ä½“ä¸­çš„é•¿åº¦ä¸ºæ¥æ”¶åˆ°çš„æ€»å­—èŠ‚æ•°
ARM GAS  C:\Users\wup15j\AppData\Local\Temp\cc0HQV6h.s 			page 25


 900              		.loc 1 329 5 is_stmt 1 view .LVU243
 329:Src/cantp.c   ****     // è®¾ç½® CompletePduInfo ç»“æ„ä½“ä¸­çš„é•¿åº¦ä¸ºæ¥æ”¶åˆ°çš„æ€»å­—èŠ‚æ•°
 901              		.loc 1 329 57 is_stmt 0 view .LVU244
 902 0002 0B78     		ldrb	r3, [r1]	@ zero_extendqisi2
 329:Src/cantp.c   ****     // è®¾ç½® CompletePduInfo ç»“æ„ä½“ä¸­çš„é•¿åº¦ä¸ºæ¥æ”¶åˆ°çš„æ€»å­—èŠ‚æ•°
 903              		.loc 1 329 69 view .LVU245
 904 0004 1B02     		lsls	r3, r3, #8
 905 0006 03F47063 		and	r3, r3, #3840
 329:Src/cantp.c   ****     // è®¾ç½® CompletePduInfo ç»“æ„ä½“ä¸­çš„é•¿åº¦ä¸ºæ¥æ”¶åˆ°çš„æ€»å­—èŠ‚æ•°
 906              		.loc 1 329 93 view .LVU246
 907 000a 4A78     		ldrb	r2, [r1, #1]	@ zero_extendqisi2
 329:Src/cantp.c   ****     // è®¾ç½® CompletePduInfo ç»“æ„ä½“ä¸­çš„é•¿åº¦ä¸ºæ¥æ”¶åˆ°çš„æ€»å­—èŠ‚æ•°
 908              		.loc 1 329 75 view .LVU247
 909 000c 1343     		orrs	r3, r3, r2
 329:Src/cantp.c   ****     // è®¾ç½® CompletePduInfo ç»“æ„ä½“ä¸­çš„é•¿åº¦ä¸ºæ¥æ”¶åˆ°çš„æ€»å­—èŠ‚æ•°
 910              		.loc 1 329 37 view .LVU248
 911 000e 0B4A     		ldr	r2, .L70
 912 0010 1360     		str	r3, [r2]
 331:Src/cantp.c   ****     // é¦–å¸§ä¸­å®é™…æœ‰æ•ˆè´Ÿè½½æ•°æ®é•¿åº¦ä¸º 6 ä¸ªå­—èŠ‚
 913              		.loc 1 331 5 is_stmt 1 view .LVU249
 331:Src/cantp.c   ****     // é¦–å¸§ä¸­å®é™…æœ‰æ•ˆè´Ÿè½½æ•°æ®é•¿åº¦ä¸º 6 ä¸ªå­—èŠ‚
 914              		.loc 1 331 28 is_stmt 0 view .LVU250
 915 0012 1268     		ldr	r2, [r2]
 916 0014 0A4B     		ldr	r3, .L70+4
 917 0016 C3F80022 		str	r2, [r3, #512]
 333:Src/cantp.c   **** 
 918              		.loc 1 333 5 is_stmt 1 view .LVU251
 333:Src/cantp.c   **** 
 919              		.loc 1 333 27 is_stmt 0 view .LVU252
 920 001a 0A4B     		ldr	r3, .L70+8
 921 001c 0622     		movs	r2, #6
 922 001e 9A60     		str	r2, [r3, #8]
 336:Src/cantp.c   **** 
 923              		.loc 1 336 5 is_stmt 1 view .LVU253
 924              	.LVL66:
 339:Src/cantp.c   ****         DecodedPduInfo.Data[Counter] = PduInfoPtr->Data[Counter + 2];
 925              		.loc 1 339 5 view .LVU254
 339:Src/cantp.c   ****         DecodedPduInfo.Data[Counter] = PduInfoPtr->Data[Counter + 2];
 926              		.loc 1 339 18 is_stmt 0 view .LVU255
 927 0020 0023     		movs	r3, #0
 339:Src/cantp.c   ****         DecodedPduInfo.Data[Counter] = PduInfoPtr->Data[Counter + 2];
 928              		.loc 1 339 5 view .LVU256
 929 0022 05E0     		b	.L67
 930              	.LVL67:
 931              	.L68:
 340:Src/cantp.c   ****     }
 932              		.loc 1 340 9 is_stmt 1 discriminator 3 view .LVU257
 340:Src/cantp.c   ****     }
 933              		.loc 1 340 65 is_stmt 0 discriminator 3 view .LVU258
 934 0024 9A1C     		adds	r2, r3, #2
 340:Src/cantp.c   ****     }
 935              		.loc 1 340 56 discriminator 3 view .LVU259
 936 0026 885C     		ldrb	r0, [r1, r2]	@ zero_extendqisi2
 340:Src/cantp.c   ****     }
 937              		.loc 1 340 38 discriminator 3 view .LVU260
 938 0028 064A     		ldr	r2, .L70+8
 939 002a D054     		strb	r0, [r2, r3]
ARM GAS  C:\Users\wup15j\AppData\Local\Temp\cc0HQV6h.s 			page 26


 339:Src/cantp.c   ****         DecodedPduInfo.Data[Counter] = PduInfoPtr->Data[Counter + 2];
 940              		.loc 1 339 36 is_stmt 1 discriminator 3 view .LVU261
 339:Src/cantp.c   ****         DecodedPduInfo.Data[Counter] = PduInfoPtr->Data[Counter + 2];
 941              		.loc 1 339 43 is_stmt 0 discriminator 3 view .LVU262
 942 002c 0133     		adds	r3, r3, #1
 943              	.LVL68:
 339:Src/cantp.c   ****         DecodedPduInfo.Data[Counter] = PduInfoPtr->Data[Counter + 2];
 944              		.loc 1 339 43 discriminator 3 view .LVU263
 945 002e DBB2     		uxtb	r3, r3
 946              	.LVL69:
 947              	.L67:
 339:Src/cantp.c   ****         DecodedPduInfo.Data[Counter] = PduInfoPtr->Data[Counter + 2];
 948              		.loc 1 339 23 is_stmt 1 discriminator 1 view .LVU264
 339:Src/cantp.c   ****         DecodedPduInfo.Data[Counter] = PduInfoPtr->Data[Counter + 2];
 949              		.loc 1 339 5 is_stmt 0 discriminator 1 view .LVU265
 950 0030 072B     		cmp	r3, #7
 951 0032 F7D9     		bls	.L68
 344:Src/cantp.c   **** }
 952              		.loc 1 344 5 is_stmt 1 view .LVU266
 953 0034 0348     		ldr	r0, .L70+8
 954 0036 FFF7FEFF 		bl	CanTp_ConnectData
 955              	.LVL70:
 345:Src/cantp.c   **** 
 956              		.loc 1 345 1 is_stmt 0 view .LVU267
 957 003a 08BD     		pop	{r3, pc}
 958              	.L71:
 959              		.align	2
 960              	.L70:
 961 003c 00000000 		.word	.LANCHOR18
 962 0040 00000000 		.word	.LANCHOR17
 963 0044 00000000 		.word	.LANCHOR19
 964              		.cfi_endproc
 965              	.LFE81:
 967              		.section	.text.CanTp_decodeConsecutiveFrame,"ax",%progbits
 968              		.align	1
 969              		.global	CanTp_decodeConsecutiveFrame
 970              		.syntax unified
 971              		.thumb
 972              		.thumb_func
 974              	CanTp_decodeConsecutiveFrame:
 975              	.LVL71:
 976              	.LFB82:
 347:Src/cantp.c   ****     // æ¯æ”¶åˆ°ä¸€ä¸ªè¿ç»­å¸§ï¼Œå°±å‡å°‘å‰©ä½™è¦æ¥æ”¶çš„å¸§æ•°
 977              		.loc 1 347 76 is_stmt 1 view -0
 978              		.cfi_startproc
 979              		@ args = 0, pretend = 0, frame = 0
 980              		@ frame_needed = 0, uses_anonymous_args = 0
 347:Src/cantp.c   ****     // æ¯æ”¶åˆ°ä¸€ä¸ªè¿ç»­å¸§ï¼Œå°±å‡å°‘å‰©ä½™è¦æ¥æ”¶çš„å¸§æ•°
 981              		.loc 1 347 76 is_stmt 0 view .LVU269
 982 0000 10B5     		push	{r4, lr}
 983              	.LCFI10:
 984              		.cfi_def_cfa_offset 8
 985              		.cfi_offset 4, -8
 986              		.cfi_offset 14, -4
 349:Src/cantp.c   ****     // åˆå§‹åŒ–ä¸€ä¸ªå¾ªç¯è®¡æ•°å˜é‡ i
 987              		.loc 1 349 5 is_stmt 1 view .LVU270
 349:Src/cantp.c   ****     // åˆå§‹åŒ–ä¸€ä¸ªå¾ªç¯è®¡æ•°å˜é‡ i
ARM GAS  C:\Users\wup15j\AppData\Local\Temp\cc0HQV6h.s 			page 27


 988              		.loc 1 349 39 is_stmt 0 view .LVU271
 989 0002 194A     		ldr	r2, .L83
 990 0004 1368     		ldr	r3, [r2]
 991 0006 013B     		subs	r3, r3, #1
 992 0008 1360     		str	r3, [r2]
 351:Src/cantp.c   ****     // è®¾ç½®è§£ç åçš„å¸§é•¿åº¦ä¸º 7 å­—èŠ‚æˆ–å‰©ä½™å­—èŠ‚æ•°ä¸­çš„è¾ƒå°è€…
 993              		.loc 1 351 5 is_stmt 1 view .LVU272
 994              	.LVL72:
 353:Src/cantp.c   **** 
 995              		.loc 1 353 5 view .LVU273
 353:Src/cantp.c   **** 
 996              		.loc 1 353 61 is_stmt 0 view .LVU274
 997 000a 184B     		ldr	r3, .L83+4
 998 000c 1B68     		ldr	r3, [r3]
 353:Src/cantp.c   **** 
 999              		.loc 1 353 69 view .LVU275
 1000 000e 072B     		cmp	r3, #7
 1001 0010 0CD8     		bhi	.L78
 353:Src/cantp.c   **** 
 1002              		.loc 1 353 69 discriminator 1 view .LVU276
 1003 0012 164B     		ldr	r3, .L83+4
 1004 0014 1C68     		ldr	r4, [r3]
 1005              	.L73:
 353:Src/cantp.c   **** 
 1006              		.loc 1 353 27 discriminator 4 view .LVU277
 1007 0016 164B     		ldr	r3, .L83+8
 1008 0018 9C60     		str	r4, [r3, #8]
 356:Src/cantp.c   ****         // å°†æ•°æ®ä»æ¥æ”¶åˆ°çš„ CAN å¸§ä¸­å¤åˆ¶åˆ°è§£ç åçš„æ•°æ®ç»“æ„ä¸­
 1009              		.loc 1 356 5 is_stmt 1 discriminator 4 view .LVU278
 356:Src/cantp.c   ****         // å°†æ•°æ®ä»æ¥æ”¶åˆ°çš„ CAN å¸§ä¸­å¤åˆ¶åˆ°è§£ç åçš„æ•°æ®ç»“æ„ä¸­
 1010              		.loc 1 356 18 is_stmt 0 discriminator 4 view .LVU279
 1011 001a 164B     		ldr	r3, .L83+12
 1012 001c 1A78     		ldrb	r2, [r3]	@ zero_extendqisi2
 1013 001e D2B2     		uxtb	r2, r2
 356:Src/cantp.c   ****         // å°†æ•°æ®ä»æ¥æ”¶åˆ°çš„ CAN å¸§ä¸­å¤åˆ¶åˆ°è§£ç åçš„æ•°æ®ç»“æ„ä¸­
 1014              		.loc 1 356 38 discriminator 4 view .LVU280
 1015 0020 0B78     		ldrb	r3, [r1]	@ zero_extendqisi2
 356:Src/cantp.c   ****         // å°†æ•°æ®ä»æ¥æ”¶åˆ°çš„ CAN å¸§ä¸­å¤åˆ¶åˆ°è§£ç åçš„æ•°æ®ç»“æ„ä¸­
 1016              		.loc 1 356 8 discriminator 4 view .LVU281
 1017 0022 03F00F03 		and	r3, r3, #15
 1018 0026 9A42     		cmp	r2, r3
 1019 0028 1AD0     		beq	.L82
 1020              	.LVL73:
 1021              	.L72:
 368:Src/cantp.c   **** 
 1022              		.loc 1 368 1 view .LVU282
 1023 002a 10BD     		pop	{r4, pc}
 1024              	.LVL74:
 1025              	.L78:
 353:Src/cantp.c   **** 
 1026              		.loc 1 353 69 view .LVU283
 1027 002c 0724     		movs	r4, #7
 1028 002e F2E7     		b	.L73
 1029              	.LVL75:
 1030              	.L76:
 359:Src/cantp.c   ****         }
 1031              		.loc 1 359 13 is_stmt 1 discriminator 3 view .LVU284
ARM GAS  C:\Users\wup15j\AppData\Local\Temp\cc0HQV6h.s 			page 28


 359:Src/cantp.c   ****         }
 1032              		.loc 1 359 56 is_stmt 0 discriminator 3 view .LVU285
 1033 0030 5A1C     		adds	r2, r3, #1
 359:Src/cantp.c   ****         }
 1034              		.loc 1 359 54 discriminator 3 view .LVU286
 1035 0032 11F802C0 		ldrb	ip, [r1, r2]	@ zero_extendqisi2
 359:Src/cantp.c   ****         }
 1036              		.loc 1 359 36 discriminator 3 view .LVU287
 1037 0036 0E48     		ldr	r0, .L83+8
 1038 0038 00F803C0 		strb	ip, [r0, r3]
 358:Src/cantp.c   ****             DecodedPduInfo.Data[i] = PduInfoPtr->Data[i+1];
 1039              		.loc 1 358 48 is_stmt 1 discriminator 3 view .LVU288
 358:Src/cantp.c   ****             DecodedPduInfo.Data[i] = PduInfoPtr->Data[i+1];
 1040              		.loc 1 358 49 is_stmt 0 discriminator 3 view .LVU289
 1041 003c D3B2     		uxtb	r3, r2
 1042              	.LVL76:
 1043              	.L74:
 358:Src/cantp.c   ****             DecodedPduInfo.Data[i] = PduInfoPtr->Data[i+1];
 1044              		.loc 1 358 21 is_stmt 1 discriminator 1 view .LVU290
 358:Src/cantp.c   ****             DecodedPduInfo.Data[i] = PduInfoPtr->Data[i+1];
 1045              		.loc 1 358 9 is_stmt 0 discriminator 1 view .LVU291
 1046 003e A342     		cmp	r3, r4
 1047 0040 F6D3     		bcc	.L76
 363:Src/cantp.c   **** 
 1048              		.loc 1 363 9 is_stmt 1 view .LVU292
 363:Src/cantp.c   **** 
 1049              		.loc 1 363 33 is_stmt 0 view .LVU293
 1050 0042 0C4B     		ldr	r3, .L83+12
 1051              	.LVL77:
 363:Src/cantp.c   **** 
 1052              		.loc 1 363 33 view .LVU294
 1053 0044 1B78     		ldrb	r3, [r3]	@ zero_extendqisi2
 1054 0046 DBB2     		uxtb	r3, r3
 363:Src/cantp.c   **** 
 1055              		.loc 1 363 18 view .LVU295
 1056 0048 0E2B     		cmp	r3, #14
 1057 004a 0BD8     		bhi	.L80
 363:Src/cantp.c   **** 
 1058              		.loc 1 363 54 discriminator 1 view .LVU296
 1059 004c 094B     		ldr	r3, .L83+12
 1060 004e 1B78     		ldrb	r3, [r3]	@ zero_extendqisi2
 363:Src/cantp.c   **** 
 1061              		.loc 1 363 18 discriminator 1 view .LVU297
 1062 0050 0133     		adds	r3, r3, #1
 1063 0052 DBB2     		uxtb	r3, r3
 1064              	.L77:
 363:Src/cantp.c   **** 
 1065              		.loc 1 363 18 discriminator 4 view .LVU298
 1066 0054 074A     		ldr	r2, .L83+12
 1067 0056 1370     		strb	r3, [r2]
 366:Src/cantp.c   ****     }
 1068              		.loc 1 366 9 is_stmt 1 discriminator 4 view .LVU299
 1069 0058 0548     		ldr	r0, .L83+8
 1070 005a FFF7FEFF 		bl	CanTp_ConnectData
 1071              	.LVL78:
 368:Src/cantp.c   **** 
 1072              		.loc 1 368 1 is_stmt 0 discriminator 4 view .LVU300
ARM GAS  C:\Users\wup15j\AppData\Local\Temp\cc0HQV6h.s 			page 29


 1073 005e E4E7     		b	.L72
 1074              	.LVL79:
 1075              	.L82:
 358:Src/cantp.c   ****             DecodedPduInfo.Data[i] = PduInfoPtr->Data[i+1];
 1076              		.loc 1 358 16 view .LVU301
 1077 0060 0023     		movs	r3, #0
 1078 0062 ECE7     		b	.L74
 1079              	.LVL80:
 1080              	.L80:
 363:Src/cantp.c   **** 
 1081              		.loc 1 363 18 view .LVU302
 1082 0064 0023     		movs	r3, #0
 1083 0066 F5E7     		b	.L77
 1084              	.L84:
 1085              		.align	2
 1086              	.L83:
 1087 0068 00000000 		.word	.LANCHOR13
 1088 006c 00000000 		.word	.LANCHOR18
 1089 0070 00000000 		.word	.LANCHOR19
 1090 0074 00000000 		.word	.LANCHOR9
 1091              		.cfi_endproc
 1092              	.LFE82:
 1094              		.section	.text.CanTp_MainFunction,"ax",%progbits
 1095              		.align	1
 1096              		.global	CanTp_MainFunction
 1097              		.syntax unified
 1098              		.thumb
 1099              		.thumb_func
 1101              	CanTp_MainFunction:
 1102              	.LFB71:
  54:Src/cantp.c   **** 	while(1){  // æ— é™å¾ªç¯ï¼Œä¸æ–­è½®è¯¢å¤„ç† CAN TP çš„æ¥æ”¶å’Œå‘é€æ“ä½œã€‚
 1103              		.loc 1 54 26 is_stmt 1 view -0
 1104              		.cfi_startproc
 1105              		@ args = 0, pretend = 0, frame = 0
 1106              		@ frame_needed = 0, uses_anonymous_args = 0
 1107 0000 70B5     		push	{r4, r5, r6, lr}
 1108              	.LCFI11:
 1109              		.cfi_def_cfa_offset 16
 1110              		.cfi_offset 4, -16
 1111              		.cfi_offset 5, -12
 1112              		.cfi_offset 6, -8
 1113              		.cfi_offset 14, -4
 1114 0002 74E0     		b	.L102
 1115              	.LVL81:
 1116              	.L92:
 1117              	.LBB3:
  70:Src/cantp.c   **** 				break;
 1118              		.loc 1 70 5 view .LVU304
 1119 0004 614B     		ldr	r3, .L107
 1120 0006 1868     		ldr	r0, [r3]
 1121              	.LVL82:
  70:Src/cantp.c   **** 				break;
 1122              		.loc 1 70 5 is_stmt 0 view .LVU305
 1123 0008 2946     		mov	r1, r5
 1124 000a FFF7FEFF 		bl	CanTp_decodeSingleFrame
 1125              	.LVL83:
  71:Src/cantp.c   **** 			case First_Frame:  // å¦‚æœå¸§ç±»å‹æ˜¯é¦–å¸§ã€‚
ARM GAS  C:\Users\wup15j\AppData\Local\Temp\cc0HQV6h.s 			page 30


 1126              		.loc 1 71 5 is_stmt 1 view .LVU306
 1127              	.L87:
  94:Src/cantp.c   **** 
 1128              		.loc 1 94 4 view .LVU307
  94:Src/cantp.c   **** 
 1129              		.loc 1 94 6 is_stmt 0 view .LVU308
 1130 000e 032C     		cmp	r4, #3
 1131 0010 6AD0     		beq	.L93
  97:Src/cantp.c   **** 				if(App_Callback != NULL){  // å¦‚æœåº”ç”¨å±‚å›è°ƒå‡½æ•°ä¸ä¸ºç©ºã€‚
 1132              		.loc 1 97 9 is_stmt 1 view .LVU309
  97:Src/cantp.c   **** 				if(App_Callback != NULL){  // å¦‚æœåº”ç”¨å±‚å›è°ƒå‡½æ•°ä¸ä¸ºç©ºã€‚
 1133              		.loc 1 97 44 is_stmt 0 view .LVU310
 1134 0012 5F4B     		ldr	r3, .L107+4
 1135 0014 1B68     		ldr	r3, [r3]
  97:Src/cantp.c   **** 				if(App_Callback != NULL){  // å¦‚æœåº”ç”¨å±‚å›è°ƒå‡½æ•°ä¸ä¸ºç©ºã€‚
 1136              		.loc 1 97 11 view .LVU311
 1137 0016 002B     		cmp	r3, #0
 1138 0018 66D1     		bne	.L93
  98:Src/cantp.c   **** 					currentIndex = 0;  // é‡ç½®ç´¢å¼•ã€‚
 1139              		.loc 1 98 5 is_stmt 1 view .LVU312
  98:Src/cantp.c   **** 					currentIndex = 0;  // é‡ç½®ç´¢å¼•ã€‚
 1140              		.loc 1 98 21 is_stmt 0 view .LVU313
 1141 001a 5E4B     		ldr	r3, .L107+8
 1142 001c 1B68     		ldr	r3, [r3]
  98:Src/cantp.c   **** 					currentIndex = 0;  // é‡ç½®ç´¢å¼•ã€‚
 1143              		.loc 1 98 7 view .LVU314
 1144 001e 002B     		cmp	r3, #0
 1145 0020 62D0     		beq	.L93
  99:Src/cantp.c   **** 					App_Callback(GlobalRxPduId, &CompletePduInfo);  // è°ƒç”¨åº”ç”¨å±‚å›è°ƒå‡½æ•°ï¼Œå¤„ç†å®Œæ•´ç
 1146              		.loc 1 99 6 is_stmt 1 view .LVU315
  99:Src/cantp.c   **** 					App_Callback(GlobalRxPduId, &CompletePduInfo);  // è°ƒç”¨åº”ç”¨å±‚å›è°ƒå‡½æ•°ï¼Œå¤„ç†å®Œæ•´ç
 1147              		.loc 1 99 19 is_stmt 0 view .LVU316
 1148 0022 5D4A     		ldr	r2, .L107+12
 1149 0024 0021     		movs	r1, #0
 1150 0026 1180     		strh	r1, [r2]	@ movhi
 100:Src/cantp.c   **** 				}
 1151              		.loc 1 100 6 is_stmt 1 view .LVU317
 1152 0028 584A     		ldr	r2, .L107
 1153 002a 1068     		ldr	r0, [r2]
 1154 002c 5B49     		ldr	r1, .L107+16
 1155 002e 9847     		blx	r3
 1156              	.LVL84:
 1157 0030 5AE0     		b	.L93
 1158              	.LVL85:
 1159              	.L91:
  73:Src/cantp.c   **** 				expectedFrameState = FlowControl_Frame_State;  // è®¾ç½®æœŸæœ›çš„ä¸‹ä¸€ä¸ªå¸§çŠ¶æ€ä¸ºæµæ§åˆ¶
 1160              		.loc 1 73 5 view .LVU318
 1161 0032 564E     		ldr	r6, .L107
 1162 0034 3068     		ldr	r0, [r6]
 1163              	.LVL86:
  73:Src/cantp.c   **** 				expectedFrameState = FlowControl_Frame_State;  // è®¾ç½®æœŸæœ›çš„ä¸‹ä¸€ä¸ªå¸§çŠ¶æ€ä¸ºæµæ§åˆ¶
 1164              		.loc 1 73 5 is_stmt 0 view .LVU319
 1165 0036 2946     		mov	r1, r5
 1166 0038 FFF7FEFF 		bl	CanTp_decodeFirstFrame
 1167              	.LVL87:
  74:Src/cantp.c   **** 				CanTp_Transmit(GlobalRxPduId, (PduInfoType*) GlobalRxPduInfoPtr);  // å‘é€æµæ§åˆ¶å¸§ï¼Œä»¥ä
 1168              		.loc 1 74 5 is_stmt 1 view .LVU320
ARM GAS  C:\Users\wup15j\AppData\Local\Temp\cc0HQV6h.s 			page 31


  74:Src/cantp.c   **** 				CanTp_Transmit(GlobalRxPduId, (PduInfoType*) GlobalRxPduInfoPtr);  // å‘é€æµæ§åˆ¶å¸§ï¼Œä»¥ä
 1169              		.loc 1 74 24 is_stmt 0 view .LVU321
 1170 003c 584B     		ldr	r3, .L107+20
 1171 003e 0222     		movs	r2, #2
 1172 0040 1A70     		strb	r2, [r3]
  75:Src/cantp.c   **** 				break;
 1173              		.loc 1 75 5 is_stmt 1 view .LVU322
 1174 0042 3068     		ldr	r0, [r6]
 1175 0044 574B     		ldr	r3, .L107+24
 1176 0046 1968     		ldr	r1, [r3]
 1177 0048 FFF7FEFF 		bl	CanTp_Transmit
 1178              	.LVL88:
  76:Src/cantp.c   **** 			case Consecutive_Frame:  // å¦‚æœå¸§ç±»å‹æ˜¯è¿ç»­å¸§ã€‚
 1179              		.loc 1 76 5 view .LVU323
 1180 004c DFE7     		b	.L87
 1181              	.LVL89:
 1182              	.L90:
  78:Src/cantp.c   **** 				if(numberOfConsecutiveFramesToReceive == 0 && numberOfRemainingBytesToReceive > 0){
 1183              		.loc 1 78 5 view .LVU324
 1184 004e 4F4B     		ldr	r3, .L107
 1185 0050 1868     		ldr	r0, [r3]
 1186              	.LVL90:
  78:Src/cantp.c   **** 				if(numberOfConsecutiveFramesToReceive == 0 && numberOfRemainingBytesToReceive > 0){
 1187              		.loc 1 78 5 is_stmt 0 view .LVU325
 1188 0052 2946     		mov	r1, r5
 1189 0054 FFF7FEFF 		bl	CanTp_decodeConsecutiveFrame
 1190              	.LVL91:
  79:Src/cantp.c   **** 					// å¦‚æœæ¥æ”¶åˆ°çš„è¿ç»­å¸§æ•°é‡ä¸º 0 ä¸”è¿˜æœ‰å‰©ä½™å­—èŠ‚æœªæ¥æ”¶ï¼Œå‘é€æµæ§åˆ¶å¸§ã
 1191              		.loc 1 79 5 is_stmt 1 view .LVU326
  79:Src/cantp.c   **** 					// å¦‚æœæ¥æ”¶åˆ°çš„è¿ç»­å¸§æ•°é‡ä¸º 0 ä¸”è¿˜æœ‰å‰©ä½™å­—èŠ‚æœªæ¥æ”¶ï¼Œå‘é€æµæ§åˆ¶å¸§ã
 1192              		.loc 1 79 43 is_stmt 0 view .LVU327
 1193 0058 534B     		ldr	r3, .L107+28
 1194 005a 1B68     		ldr	r3, [r3]
  79:Src/cantp.c   **** 					// å¦‚æœæ¥æ”¶åˆ°çš„è¿ç»­å¸§æ•°é‡ä¸º 0 ä¸”è¿˜æœ‰å‰©ä½™å­—èŠ‚æœªæ¥æ”¶ï¼Œå‘é€æµæ§åˆ¶å¸§ã
 1195              		.loc 1 79 7 view .LVU328
 1196 005c 002B     		cmp	r3, #0
 1197 005e D6D1     		bne	.L87
  79:Src/cantp.c   **** 					// å¦‚æœæ¥æ”¶åˆ°çš„è¿ç»­å¸§æ•°é‡ä¸º 0 ä¸”è¿˜æœ‰å‰©ä½™å­—èŠ‚æœªæ¥æ”¶ï¼Œå‘é€æµæ§åˆ¶å¸§ã
 1198              		.loc 1 79 83 discriminator 1 view .LVU329
 1199 0060 4B4B     		ldr	r3, .L107+4
 1200 0062 1B68     		ldr	r3, [r3]
  79:Src/cantp.c   **** 					// å¦‚æœæ¥æ”¶åˆ°çš„è¿ç»­å¸§æ•°é‡ä¸º 0 ä¸”è¿˜æœ‰å‰©ä½™å­—èŠ‚æœªæ¥æ”¶ï¼Œå‘é€æµæ§åˆ¶å¸§ã
 1201              		.loc 1 79 48 discriminator 1 view .LVU330
 1202 0064 002B     		cmp	r3, #0
 1203 0066 D2D0     		beq	.L87
  81:Src/cantp.c   **** 					CanTp_Transmit(GlobalRxPduId, (PduInfoType*) GlobalRxPduInfoPtr);  // å‘é€æµæ§åˆ¶å¸§ã€‚
 1204              		.loc 1 81 6 is_stmt 1 view .LVU331
  81:Src/cantp.c   **** 					CanTp_Transmit(GlobalRxPduId, (PduInfoType*) GlobalRxPduInfoPtr);  // å‘é€æµæ§åˆ¶å¸§ã€‚
 1205              		.loc 1 81 25 is_stmt 0 view .LVU332
 1206 0068 4D4B     		ldr	r3, .L107+20
 1207 006a 0222     		movs	r2, #2
 1208 006c 1A70     		strb	r2, [r3]
  82:Src/cantp.c   **** 				}
 1209              		.loc 1 82 6 is_stmt 1 view .LVU333
 1210 006e 474B     		ldr	r3, .L107
 1211 0070 1868     		ldr	r0, [r3]
 1212 0072 4C4B     		ldr	r3, .L107+24
ARM GAS  C:\Users\wup15j\AppData\Local\Temp\cc0HQV6h.s 			page 32


 1213 0074 1968     		ldr	r1, [r3]
 1214 0076 FFF7FEFF 		bl	CanTp_Transmit
 1215              	.LVL92:
 1216 007a C8E7     		b	.L87
 1217              	.LVL93:
 1218              	.L88:
  87:Src/cantp.c   **** 				break;
 1219              		.loc 1 87 5 view .LVU334
 1220 007c 434B     		ldr	r3, .L107
 1221 007e 1868     		ldr	r0, [r3]
 1222              	.LVL94:
  87:Src/cantp.c   **** 				break;
 1223              		.loc 1 87 5 is_stmt 0 view .LVU335
 1224 0080 2946     		mov	r1, r5
 1225 0082 FFF7FEFF 		bl	CanTp_decodeFlowControlFrame
 1226              	.LVL95:
  88:Src/cantp.c   **** 			default:
 1227              		.loc 1 88 5 is_stmt 1 view .LVU336
 1228 0086 C2E7     		b	.L87
 1229              	.L86:
  88:Src/cantp.c   **** 			default:
 1230              		.loc 1 88 5 is_stmt 0 view .LVU337
 1231              	.LBE3:
 104:Src/cantp.c   **** 			// // å¦‚æœå…¨å±€ä¼ è¾“ PDU ID ä¸ç­‰äº 0ï¼Œåˆ™åœæ­¢ç¨‹åºè¿è¡Œã€‚
 1232              		.loc 1 104 8 is_stmt 1 view .LVU338
 104:Src/cantp.c   **** 			// // å¦‚æœå…¨å±€ä¼ è¾“ PDU ID ä¸ç­‰äº 0ï¼Œåˆ™åœæ­¢ç¨‹åºè¿è¡Œã€‚
 1233              		.loc 1 104 11 is_stmt 0 view .LVU339
 1234 0088 484B     		ldr	r3, .L107+32
 1235 008a 1B78     		ldrb	r3, [r3]	@ zero_extendqisi2
 1236 008c 5BB2     		sxtb	r3, r3
 104:Src/cantp.c   **** 			// // å¦‚æœå…¨å±€ä¼ è¾“ PDU ID ä¸ç­‰äº 0ï¼Œåˆ™åœæ­¢ç¨‹åºè¿è¡Œã€‚
 1237              		.loc 1 104 10 view .LVU340
 1238 008e 002B     		cmp	r3, #0
 1239 0090 2AD0     		beq	.L93
 1240              	.LBB4:
 110:Src/cantp.c   **** 			if(numberOfRemainingBytesToSend == 0 && expectedFrameState == Any_State){
 1241              		.loc 1 110 4 is_stmt 1 view .LVU341
 1242              	.LVL96:
 111:Src/cantp.c   **** 				// å¦‚æœæ²¡æœ‰å‰©ä½™å­—èŠ‚éœ€è¦å‘é€ä¸”å½“å‰æœŸæœ›çš„å¸§çŠ¶æ€ä¸ºä»»æ„çŠ¶æ€ã€‚
 1243              		.loc 1 111 4 view .LVU342
 111:Src/cantp.c   **** 				// å¦‚æœæ²¡æœ‰å‰©ä½™å­—èŠ‚éœ€è¦å‘é€ä¸”å½“å‰æœŸæœ›çš„å¸§çŠ¶æ€ä¸ºä»»æ„çŠ¶æ€ã€‚
 1244              		.loc 1 111 36 is_stmt 0 view .LVU343
 1245 0092 474B     		ldr	r3, .L107+36
 1246 0094 1B68     		ldr	r3, [r3]
 111:Src/cantp.c   **** 				// å¦‚æœæ²¡æœ‰å‰©ä½™å­—èŠ‚éœ€è¦å‘é€ä¸”å½“å‰æœŸæœ›çš„å¸§çŠ¶æ€ä¸ºä»»æ„çŠ¶æ€ã€‚
 1247              		.loc 1 111 6 view .LVU344
 1248 0096 9BB9     		cbnz	r3, .L103
 111:Src/cantp.c   **** 				// å¦‚æœæ²¡æœ‰å‰©ä½™å­—èŠ‚éœ€è¦å‘é€ä¸”å½“å‰æœŸæœ›çš„å¸§çŠ¶æ€ä¸ºä»»æ„çŠ¶æ€ã€‚
 1249              		.loc 1 111 63 discriminator 1 view .LVU345
 1250 0098 414B     		ldr	r3, .L107+20
 1251 009a 1B78     		ldrb	r3, [r3]	@ zero_extendqisi2
 111:Src/cantp.c   **** 				// å¦‚æœæ²¡æœ‰å‰©ä½™å­—èŠ‚éœ€è¦å‘é€ä¸”å½“å‰æœŸæœ›çš„å¸§çŠ¶æ€ä¸ºä»»æ„çŠ¶æ€ã€‚
 1252              		.loc 1 111 41 discriminator 1 view .LVU346
 1253 009c 002B     		cmp	r3, #0
 1254 009e 43D1     		bne	.L104
 113:Src/cantp.c   **** 				CompletePduInfo.Length = numberOfRemainingBytesToSend;  // æ›´æ–°å®Œæ•´ PDU çš„é•¿åº¦ã€‚
 1255              		.loc 1 113 5 is_stmt 1 view .LVU347
ARM GAS  C:\Users\wup15j\AppData\Local\Temp\cc0HQV6h.s 			page 33


 113:Src/cantp.c   **** 				CompletePduInfo.Length = numberOfRemainingBytesToSend;  // æ›´æ–°å®Œæ•´ PDU çš„é•¿åº¦ã€‚
 1256              		.loc 1 113 54 is_stmt 0 view .LVU348
 1257 00a0 444A     		ldr	r2, .L107+40
 1258 00a2 1268     		ldr	r2, [r2]
 1259 00a4 D2F80002 		ldr	r0, [r2, #512]
 113:Src/cantp.c   **** 				CompletePduInfo.Length = numberOfRemainingBytesToSend;  // æ›´æ–°å®Œæ•´ PDU çš„é•¿åº¦ã€‚
 1260              		.loc 1 113 34 view .LVU349
 1261 00a8 4149     		ldr	r1, .L107+36
 1262 00aa 0860     		str	r0, [r1]
 114:Src/cantp.c   **** 				if(GlobalTxPduInfoPtr->Length < 8){
 1263              		.loc 1 114 5 is_stmt 1 view .LVU350
 114:Src/cantp.c   **** 				if(GlobalTxPduInfoPtr->Length < 8){
 1264              		.loc 1 114 28 is_stmt 0 view .LVU351
 1265 00ac 0868     		ldr	r0, [r1]
 1266 00ae 3B49     		ldr	r1, .L107+16
 1267 00b0 C1F80002 		str	r0, [r1, #512]
 115:Src/cantp.c   **** 					frame_type = Single_Frame;  // å¦‚æœæ•°æ®é•¿åº¦å°äº 8 å­—èŠ‚ï¼Œè®¾ç½®å¸§ç±»å‹ä¸ºå•å¸§ã€‚
 1268              		.loc 1 115 5 is_stmt 1 view .LVU352
 115:Src/cantp.c   **** 					frame_type = Single_Frame;  // å¦‚æœæ•°æ®é•¿åº¦å°äº 8 å­—èŠ‚ï¼Œè®¾ç½®å¸§ç±»å‹ä¸ºå•å¸§ã€‚
 1269              		.loc 1 115 26 is_stmt 0 view .LVU353
 1270 00b4 D2F80022 		ldr	r2, [r2, #512]
 115:Src/cantp.c   **** 					frame_type = Single_Frame;  // å¦‚æœæ•°æ®é•¿åº¦å°äº 8 å­—èŠ‚ï¼Œè®¾ç½®å¸§ç±»å‹ä¸ºå•å¸§ã€‚
 1271              		.loc 1 115 7 view .LVU354
 1272 00b8 072A     		cmp	r2, #7
 1273 00ba 02D9     		bls	.L94
 119:Src/cantp.c   **** 				}
 1274              		.loc 1 119 17 view .LVU355
 1275 00bc 0123     		movs	r3, #1
 1276 00be 00E0     		b	.L94
 1277              	.L103:
 110:Src/cantp.c   **** 			if(numberOfRemainingBytesToSend == 0 && expectedFrameState == Any_State){
 1278              		.loc 1 110 15 view .LVU356
 1279 00c0 0423     		movs	r3, #4
 1280              	.L94:
 1281              	.LVL97:
 123:Src/cantp.c   **** 				// å¦‚æœæœ‰å‰©ä½™å­—èŠ‚éœ€è¦å‘é€æˆ–æœŸæœ›çš„å¸§çŠ¶æ€ä¸ºæµæ§åˆ¶å¸§çŠ¶æ€ã€‚
 1282              		.loc 1 123 4 is_stmt 1 view .LVU357
 123:Src/cantp.c   **** 				// å¦‚æœæœ‰å‰©ä½™å­—èŠ‚éœ€è¦å‘é€æˆ–æœŸæœ›çš„å¸§çŠ¶æ€ä¸ºæµæ§åˆ¶å¸§çŠ¶æ€ã€‚
 1283              		.loc 1 123 36 is_stmt 0 view .LVU358
 1284 00c2 3B4A     		ldr	r2, .L107+36
 1285 00c4 1268     		ldr	r2, [r2]
 123:Src/cantp.c   **** 				// å¦‚æœæœ‰å‰©ä½™å­—èŠ‚éœ€è¦å‘é€æˆ–æœŸæœ›çš„å¸§çŠ¶æ€ä¸ºæµæ§åˆ¶å¸§çŠ¶æ€ã€‚
 1286              		.loc 1 123 6 view .LVU359
 1287 00c6 002A     		cmp	r2, #0
 1288 00c8 30D1     		bne	.L95
 123:Src/cantp.c   **** 				// å¦‚æœæœ‰å‰©ä½™å­—èŠ‚éœ€è¦å‘é€æˆ–æœŸæœ›çš„å¸§çŠ¶æ€ä¸ºæµæ§åˆ¶å¸§çŠ¶æ€ã€‚
 1289              		.loc 1 123 62 discriminator 1 view .LVU360
 1290 00ca 354A     		ldr	r2, .L107+20
 1291 00cc 1278     		ldrb	r2, [r2]	@ zero_extendqisi2
 123:Src/cantp.c   **** 				// å¦‚æœæœ‰å‰©ä½™å­—èŠ‚éœ€è¦å‘é€æˆ–æœŸæœ›çš„å¸§çŠ¶æ€ä¸ºæµæ§åˆ¶å¸§çŠ¶æ€ã€‚
 1292              		.loc 1 123 40 discriminator 1 view .LVU361
 1293 00ce 022A     		cmp	r2, #2
 1294 00d0 2CD0     		beq	.L95
 1295              	.LVL98:
 1296              	.L96:
 164:Src/cantp.c   **** 				// é‡ç½®æœŸæœ›å¸§çŠ¶æ€ã€‚
 1297              		.loc 1 164 4 is_stmt 1 view .LVU362
ARM GAS  C:\Users\wup15j\AppData\Local\Temp\cc0HQV6h.s 			page 34


 164:Src/cantp.c   **** 				// é‡ç½®æœŸæœ›å¸§çŠ¶æ€ã€‚
 1298              		.loc 1 164 36 is_stmt 0 view .LVU363
 1299 00d2 374B     		ldr	r3, .L107+36
 1300 00d4 1B68     		ldr	r3, [r3]
 164:Src/cantp.c   **** 				// é‡ç½®æœŸæœ›å¸§çŠ¶æ€ã€‚
 1301              		.loc 1 164 6 view .LVU364
 1302 00d6 3BB9     		cbnz	r3, .L93
 166:Src/cantp.c   **** 				currentOffset = -1;  // é‡ç½®å½“å‰åç§»é‡ã€‚
 1303              		.loc 1 166 5 is_stmt 1 view .LVU365
 166:Src/cantp.c   **** 				currentOffset = -1;  // é‡ç½®å½“å‰åç§»é‡ã€‚
 1304              		.loc 1 166 24 is_stmt 0 view .LVU366
 1305 00d8 314A     		ldr	r2, .L107+20
 1306 00da 1370     		strb	r3, [r2]
 167:Src/cantp.c   **** 				CanTp_Tx = 0;  // æ¸…é™¤å‘é€æ ‡å¿—ï¼Œè¡¨ç¤ºå‘é€æ“ä½œå®Œæˆã€‚
 1307              		.loc 1 167 5 is_stmt 1 view .LVU367
 167:Src/cantp.c   **** 				CanTp_Tx = 0;  // æ¸…é™¤å‘é€æ ‡å¿—ï¼Œè¡¨ç¤ºå‘é€æ“ä½œå®Œæˆã€‚
 1308              		.loc 1 167 19 is_stmt 0 view .LVU368
 1309 00dc 364A     		ldr	r2, .L107+44
 1310 00de 4FF0FF31 		mov	r1, #-1
 1311 00e2 1160     		str	r1, [r2]
 168:Src/cantp.c   **** 			}
 1312              		.loc 1 168 5 is_stmt 1 view .LVU369
 168:Src/cantp.c   **** 			}
 1313              		.loc 1 168 14 is_stmt 0 view .LVU370
 1314 00e4 314A     		ldr	r2, .L107+32
 1315 00e6 1370     		strb	r3, [r2]
 1316              	.L93:
 1317              	.LBE4:
 171:Src/cantp.c   **** 	}
 1318              		.loc 1 171 3 is_stmt 1 view .LVU371
 1319 00e8 6420     		movs	r0, #100
 1320 00ea FFF7FEFF 		bl	vTaskDelay
 1321              	.LVL99:
  55:Src/cantp.c   **** 		if(CanTp_Rx){  // å¦‚æœæ¥æ”¶åˆ°æ–°çš„ CAN TP æ•°æ®åŒ…ã€‚
 1322              		.loc 1 55 7 view .LVU372
 1323              	.L102:
  55:Src/cantp.c   **** 		if(CanTp_Rx){  // å¦‚æœæ¥æ”¶åˆ°æ–°çš„ CAN TP æ•°æ®åŒ…ã€‚
 1324              		.loc 1 55 2 view .LVU373
  56:Src/cantp.c   **** 			CanTp_Rx = 0;  // æ¸…é™¤æ¥æ”¶æ ‡å¿—ï¼Œè¡¨ç¤ºæ­£åœ¨å¤„ç†æ¥æ”¶åˆ°çš„æ•°æ®ã€‚
 1325              		.loc 1 56 3 view .LVU374
  56:Src/cantp.c   **** 			CanTp_Rx = 0;  // æ¸…é™¤æ¥æ”¶æ ‡å¿—ï¼Œè¡¨ç¤ºæ­£åœ¨å¤„ç†æ¥æ”¶åˆ°çš„æ•°æ®ã€‚
 1326              		.loc 1 56 6 is_stmt 0 view .LVU375
 1327 00ee 334B     		ldr	r3, .L107+48
 1328 00f0 1B78     		ldrb	r3, [r3]	@ zero_extendqisi2
 1329 00f2 5BB2     		sxtb	r3, r3
  56:Src/cantp.c   **** 			CanTp_Rx = 0;  // æ¸…é™¤æ¥æ”¶æ ‡å¿—ï¼Œè¡¨ç¤ºæ­£åœ¨å¤„ç†æ¥æ”¶åˆ°çš„æ•°æ®ã€‚
 1330              		.loc 1 56 5 view .LVU376
 1331 00f4 002B     		cmp	r3, #0
 1332 00f6 C7D0     		beq	.L86
 1333              	.LBB5:
  57:Src/cantp.c   **** 			
 1334              		.loc 1 57 4 is_stmt 1 view .LVU377
  57:Src/cantp.c   **** 			
 1335              		.loc 1 57 13 is_stmt 0 view .LVU378
 1336 00f8 304B     		ldr	r3, .L107+48
 1337 00fa 0022     		movs	r2, #0
 1338 00fc 1A70     		strb	r2, [r3]
ARM GAS  C:\Users\wup15j\AppData\Local\Temp\cc0HQV6h.s 			page 35


  65:Src/cantp.c   **** 
 1339              		.loc 1 65 4 is_stmt 1 view .LVU379
  65:Src/cantp.c   **** 
 1340              		.loc 1 65 65 is_stmt 0 view .LVU380
 1341 00fe 294B     		ldr	r3, .L107+24
 1342 0100 1D68     		ldr	r5, [r3]
  65:Src/cantp.c   **** 
 1343              		.loc 1 65 28 view .LVU381
 1344 0102 2878     		ldrb	r0, [r5]	@ zero_extendqisi2
 1345 0104 FFF7FEFF 		bl	CanTp_GetFrameType
 1346              	.LVL100:
 1347 0108 0446     		mov	r4, r0
 1348              	.LVL101:
  68:Src/cantp.c   **** 			case Single_Frame:  // å¦‚æœå¸§ç±»å‹æ˜¯å•å¸§ã€‚
 1349              		.loc 1 68 4 is_stmt 1 view .LVU382
 1350 010a 0328     		cmp	r0, #3
 1351 010c 3FF67FAF 		bhi	.L87
 1352 0110 01A3     		adr	r3, .L89
 1353 0112 53F820F0 		ldr	pc, [r3, r0, lsl #2]
 1354 0116 00BF     		.p2align 2
 1355              	.L89:
 1356 0118 05000000 		.word	.L92+1
 1357 011c 33000000 		.word	.L91+1
 1358 0120 4F000000 		.word	.L90+1
 1359 0124 7D000000 		.word	.L88+1
 1360              	.LVL102:
 1361              		.p2align 1
 1362              	.L104:
  68:Src/cantp.c   **** 			case Single_Frame:  // å¦‚æœå¸§ç±»å‹æ˜¯å•å¸§ã€‚
 1363              		.loc 1 68 4 is_stmt 0 view .LVU383
 1364              	.LBE5:
 1365              	.LBB6:
 110:Src/cantp.c   **** 			if(numberOfRemainingBytesToSend == 0 && expectedFrameState == Any_State){
 1366              		.loc 1 110 15 view .LVU384
 1367 0128 0423     		movs	r3, #4
 1368 012a CAE7     		b	.L94
 1369              	.LVL103:
 1370              	.L95:
 125:Src/cantp.c   **** 					frame_type = Consecutive_Frame;  // è®¾ç½®å¸§ç±»å‹ä¸ºè¿ç»­å¸§ã€‚
 1371              		.loc 1 125 5 is_stmt 1 view .LVU385
 125:Src/cantp.c   **** 					frame_type = Consecutive_Frame;  // è®¾ç½®å¸§ç±»å‹ä¸ºè¿ç»­å¸§ã€‚
 1372              		.loc 1 125 27 is_stmt 0 view .LVU386
 1373 012c 1C4A     		ldr	r2, .L107+20
 1374 012e 1278     		ldrb	r2, [r2]	@ zero_extendqisi2
 125:Src/cantp.c   **** 					frame_type = Consecutive_Frame;  // è®¾ç½®å¸§ç±»å‹ä¸ºè¿ç»­å¸§ã€‚
 1375              		.loc 1 125 7 view .LVU387
 1376 0130 012A     		cmp	r2, #1
 1377 0132 15D0     		beq	.L97
 128:Src/cantp.c   **** 					frame_type = FlowControl_Frame;  // è®¾ç½®å¸§ç±»å‹ä¸ºæµæ§åˆ¶å¸§ã€‚
 1378              		.loc 1 128 10 is_stmt 1 view .LVU388
 128:Src/cantp.c   **** 					frame_type = FlowControl_Frame;  // è®¾ç½®å¸§ç±»å‹ä¸ºæµæ§åˆ¶å¸§ã€‚
 1379              		.loc 1 128 12 is_stmt 0 view .LVU389
 1380 0134 022A     		cmp	r2, #2
 1381 0136 22D0     		beq	.L98
 133:Src/cantp.c   **** 
 1382              		.loc 1 133 5 is_stmt 1 view .LVU390
 136:Src/cantp.c   **** 				case Single_Frame:
ARM GAS  C:\Users\wup15j\AppData\Local\Temp\cc0HQV6h.s 			page 36


 1383              		.loc 1 136 5 view .LVU391
 1384 0138 032B     		cmp	r3, #3
 1385 013a CAD8     		bhi	.L96
 1386 013c DFE803F0 		tbb	[pc, r3]
 1387              	.L99:
 1388 0140 02       		.byte	(.L101-.L99)/2
 1389 0141 09       		.byte	(.L100-.L99)/2
 1390 0142 10       		.byte	(.L97-.L99)/2
 1391 0143 1F       		.byte	(.L98-.L99)/2
 1392              		.p2align 1
 1393              	.L101:
 138:Src/cantp.c   **** 					break;
 1394              		.loc 1 138 6 view .LVU392
 1395 0144 1E4B     		ldr	r3, .L107+52
 1396              	.LVL104:
 138:Src/cantp.c   **** 					break;
 1397              		.loc 1 138 6 is_stmt 0 view .LVU393
 1398 0146 1868     		ldr	r0, [r3]
 1399 0148 1A4B     		ldr	r3, .L107+40
 1400 014a 1968     		ldr	r1, [r3]
 1401 014c FFF7FEFF 		bl	CanTp_encodeSingleFrame
 1402              	.LVL105:
 139:Src/cantp.c   **** 				case First_Frame:
 1403              		.loc 1 139 6 is_stmt 1 view .LVU394
 1404 0150 BFE7     		b	.L96
 1405              	.LVL106:
 1406              	.L100:
 141:Src/cantp.c   **** 					frame_type = None;  // å‘é€å®Œé¦–å¸§åï¼Œå°†å¸§ç±»å‹é‡ç½®ä¸º Noneã€‚
 1407              		.loc 1 141 6 view .LVU395
 1408 0152 1B4B     		ldr	r3, .L107+52
 1409              	.LVL107:
 141:Src/cantp.c   **** 					frame_type = None;  // å‘é€å®Œé¦–å¸§åï¼Œå°†å¸§ç±»å‹é‡ç½®ä¸º Noneã€‚
 1410              		.loc 1 141 6 is_stmt 0 view .LVU396
 1411 0154 1868     		ldr	r0, [r3]
 1412 0156 174B     		ldr	r3, .L107+40
 1413 0158 1968     		ldr	r1, [r3]
 1414 015a FFF7FEFF 		bl	CanTp_encodeFirstFrame
 1415              	.LVL108:
 142:Src/cantp.c   **** 					break;
 1416              		.loc 1 142 6 is_stmt 1 view .LVU397
 143:Src/cantp.c   **** 				case Consecutive_Frame:
 1417              		.loc 1 143 6 view .LVU398
 1418 015e B8E7     		b	.L96
 1419              	.LVL109:
 1420              	.L97:
 145:Src/cantp.c   **** 						numberOfConsecutiveFramesToSend--;  // é€’å‡è¿ç»­å¸§è®¡æ•°å™¨ã€‚
 1421              		.loc 1 145 6 view .LVU399
 145:Src/cantp.c   **** 						numberOfConsecutiveFramesToSend--;  // é€’å‡è¿ç»­å¸§è®¡æ•°å™¨ã€‚
 1422              		.loc 1 145 41 is_stmt 0 view .LVU400
 1423 0160 184B     		ldr	r3, .L107+56
 1424 0162 1B68     		ldr	r3, [r3]
 145:Src/cantp.c   **** 						numberOfConsecutiveFramesToSend--;  // é€’å‡è¿ç»­å¸§è®¡æ•°å™¨ã€‚
 1425              		.loc 1 145 8 view .LVU401
 1426 0164 002B     		cmp	r3, #0
 1427 0166 B4D0     		beq	.L96
 146:Src/cantp.c   **** 						CanTp_encodeConsecutiveFrame(GlobalTxPduId, GlobalTxPduInfoPtr);  // ç¼–ç è¿ç»­å¸§æ•°æ®å¹¶
 1428              		.loc 1 146 7 is_stmt 1 view .LVU402
ARM GAS  C:\Users\wup15j\AppData\Local\Temp\cc0HQV6h.s 			page 37


 146:Src/cantp.c   **** 						CanTp_encodeConsecutiveFrame(GlobalTxPduId, GlobalTxPduInfoPtr);  // ç¼–ç è¿ç»­å¸§æ•°æ®å¹¶
 1429              		.loc 1 146 38 is_stmt 0 view .LVU403
 1430 0168 164A     		ldr	r2, .L107+56
 1431 016a 1368     		ldr	r3, [r2]
 1432 016c 013B     		subs	r3, r3, #1
 1433 016e 1360     		str	r3, [r2]
 147:Src/cantp.c   **** 					}
 1434              		.loc 1 147 7 is_stmt 1 view .LVU404
 1435 0170 134B     		ldr	r3, .L107+52
 1436 0172 1868     		ldr	r0, [r3]
 1437 0174 0F4B     		ldr	r3, .L107+40
 1438 0176 1968     		ldr	r1, [r3]
 1439 0178 FFF7FEFF 		bl	CanTp_encodeConsecutiveFrame
 1440              	.LVL110:
 1441 017c A9E7     		b	.L96
 1442              	.LVL111:
 1443              	.L98:
 156:Src/cantp.c   **** 					break;
 1444              		.loc 1 156 6 view .LVU405
 1445 017e 104B     		ldr	r3, .L107+52
 1446 0180 1868     		ldr	r0, [r3]
 1447 0182 0C4B     		ldr	r3, .L107+40
 1448 0184 1968     		ldr	r1, [r3]
 1449 0186 FFF7FEFF 		bl	CanTp_encodeFlowControlFrame
 1450              	.LVL112:
 157:Src/cantp.c   **** 				default:
 1451              		.loc 1 157 6 view .LVU406
 1452 018a A2E7     		b	.L96
 1453              	.L108:
 1454              		.align	2
 1455              	.L107:
 1456 018c 00000000 		.word	.LANCHOR1
 1457 0190 00000000 		.word	.LANCHOR18
 1458 0194 00000000 		.word	.LANCHOR6
 1459 0198 00000000 		.word	.LANCHOR16
 1460 019c 00000000 		.word	.LANCHOR17
 1461 01a0 00000000 		.word	.LANCHOR15
 1462 01a4 00000000 		.word	.LANCHOR0
 1463 01a8 00000000 		.word	.LANCHOR13
 1464 01ac 00000000 		.word	.LANCHOR5
 1465 01b0 00000000 		.word	.LANCHOR8
 1466 01b4 00000000 		.word	.LANCHOR3
 1467 01b8 00000000 		.word	.LANCHOR11
 1468 01bc 00000000 		.word	.LANCHOR2
 1469 01c0 00000000 		.word	.LANCHOR4
 1470 01c4 00000000 		.word	.LANCHOR14
 1471              	.LBE6:
 1472              		.cfi_endproc
 1473              	.LFE71:
 1475              		.global	rxComplete
 1476              		.global	rxData
 1477              		.global	rxCurrentMaxIndex
 1478              		.global	rxBufferIndex
 1479              		.global	rxBuffer
 1480              		.global	RxData
 1481              		.global	GlobalTxPduId
 1482              		.global	GlobalRxPduId
ARM GAS  C:\Users\wup15j\AppData\Local\Temp\cc0HQV6h.s 			page 38


 1483              		.global	CanTp_Tx
 1484              		.global	CanTp_Rx
 1485              		.global	startOffset
 1486              		.global	currentOffset
 1487              		.global	currentIndex
 1488              		.global	ConsecSN
 1489              		.global	GlobalTxPduInfoPtr
 1490              		.global	GlobalRxPduInfoPtr
 1491              		.global	CompletePduInfo
 1492              		.global	DecodedPduInfo
 1493              		.global	EncodedPduInfo
 1494              		.global	expectedFrameState
 1495              		.global	App_Callback
 1496              		.global	availableBuffers
 1497              		.global	numberOfRemainingBytesToReceive
 1498              		.global	numberOfRemainingBytesToSend
 1499              		.global	numberOfConsecutiveFramesToReceive
 1500              		.global	currentConsecutiveFrames
 1501              		.global	numberOfConsecutiveFramesToSend
 1502              		.section	.bss.App_Callback,"aw",%nobits
 1503              		.align	2
 1504              		.set	.LANCHOR6,. + 0
 1507              	App_Callback:
 1508 0000 00000000 		.space	4
 1509              		.section	.bss.CanTp_Rx,"aw",%nobits
 1510              		.set	.LANCHOR2,. + 0
 1513              	CanTp_Rx:
 1514 0000 00       		.space	1
 1515              		.section	.bss.CanTp_Tx,"aw",%nobits
 1516              		.set	.LANCHOR5,. + 0
 1519              	CanTp_Tx:
 1520 0000 00       		.space	1
 1521              		.section	.bss.CompletePduInfo,"aw",%nobits
 1522              		.align	2
 1523              		.set	.LANCHOR17,. + 0
 1526              	CompletePduInfo:
 1527 0000 00000000 		.space	516
 1527      00000000 
 1527      00000000 
 1527      00000000 
 1527      00000000 
 1528              		.section	.bss.ConsecSN,"aw",%nobits
 1529              		.set	.LANCHOR9,. + 0
 1532              	ConsecSN:
 1533 0000 00       		.space	1
 1534              		.section	.bss.DecodedPduInfo,"aw",%nobits
 1535              		.align	2
 1536              		.set	.LANCHOR19,. + 0
 1539              	DecodedPduInfo:
 1540 0000 00000000 		.space	12
 1540      00000000 
 1540      00000000 
 1541              		.section	.bss.EncodedPduInfo,"aw",%nobits
 1542              		.align	2
 1543              		.set	.LANCHOR7,. + 0
 1546              	EncodedPduInfo:
 1547 0000 00000000 		.space	12
ARM GAS  C:\Users\wup15j\AppData\Local\Temp\cc0HQV6h.s 			page 39


 1547      00000000 
 1547      00000000 
 1548              		.section	.bss.GlobalRxPduId,"aw",%nobits
 1549              		.align	2
 1550              		.set	.LANCHOR1,. + 0
 1553              	GlobalRxPduId:
 1554 0000 00000000 		.space	4
 1555              		.section	.bss.GlobalRxPduInfoPtr,"aw",%nobits
 1556              		.align	2
 1557              		.set	.LANCHOR0,. + 0
 1560              	GlobalRxPduInfoPtr:
 1561 0000 00000000 		.space	4
 1562              		.section	.bss.GlobalTxPduId,"aw",%nobits
 1563              		.align	2
 1564              		.set	.LANCHOR4,. + 0
 1567              	GlobalTxPduId:
 1568 0000 00000000 		.space	4
 1569              		.section	.bss.GlobalTxPduInfoPtr,"aw",%nobits
 1570              		.align	2
 1571              		.set	.LANCHOR3,. + 0
 1574              	GlobalTxPduInfoPtr:
 1575 0000 00000000 		.space	4
 1576              		.section	.bss.RxData,"aw",%nobits
 1577              		.align	2
 1580              	RxData:
 1581 0000 00000000 		.space	8
 1581      00000000 
 1582              		.section	.bss.currentConsecutiveFrames,"aw",%nobits
 1583              		.align	2
 1586              	currentConsecutiveFrames:
 1587 0000 00000000 		.space	4
 1588              		.section	.bss.currentIndex,"aw",%nobits
 1589              		.align	1
 1590              		.set	.LANCHOR16,. + 0
 1593              	currentIndex:
 1594 0000 0000     		.space	2
 1595              		.section	.bss.expectedFrameState,"aw",%nobits
 1596              		.set	.LANCHOR15,. + 0
 1599              	expectedFrameState:
 1600 0000 00       		.space	1
 1601              		.section	.bss.numberOfConsecutiveFramesToReceive,"aw",%nobits
 1602              		.align	2
 1603              		.set	.LANCHOR13,. + 0
 1606              	numberOfConsecutiveFramesToReceive:
 1607 0000 00000000 		.space	4
 1608              		.section	.bss.numberOfConsecutiveFramesToSend,"aw",%nobits
 1609              		.align	2
 1610              		.set	.LANCHOR14,. + 0
 1613              	numberOfConsecutiveFramesToSend:
 1614 0000 00000000 		.space	4
 1615              		.section	.bss.numberOfRemainingBytesToReceive,"aw",%nobits
 1616              		.align	2
 1617              		.set	.LANCHOR18,. + 0
 1620              	numberOfRemainingBytesToReceive:
 1621 0000 00000000 		.space	4
 1622              		.section	.bss.numberOfRemainingBytesToSend,"aw",%nobits
 1623              		.align	2
ARM GAS  C:\Users\wup15j\AppData\Local\Temp\cc0HQV6h.s 			page 40


 1624              		.set	.LANCHOR8,. + 0
 1627              	numberOfRemainingBytesToSend:
 1628 0000 00000000 		.space	4
 1629              		.section	.bss.rxBuffer,"aw",%nobits
 1630              		.align	2
 1633              	rxBuffer:
 1634 0000 00000000 		.space	100
 1634      00000000 
 1634      00000000 
 1634      00000000 
 1634      00000000 
 1635              		.section	.bss.rxBufferIndex,"aw",%nobits
 1636              		.align	2
 1639              	rxBufferIndex:
 1640 0000 00000000 		.space	4
 1641              		.section	.bss.rxComplete,"aw",%nobits
 1644              	rxComplete:
 1645 0000 00       		.space	1
 1646              		.section	.bss.rxCurrentMaxIndex,"aw",%nobits
 1647              		.align	2
 1650              	rxCurrentMaxIndex:
 1651 0000 00000000 		.space	4
 1652              		.section	.bss.rxData,"aw",%nobits
 1655              	rxData:
 1656 0000 00       		.space	1
 1657              		.section	.bss.startOffset,"aw",%nobits
 1658              		.align	2
 1659              		.set	.LANCHOR10,. + 0
 1662              	startOffset:
 1663 0000 00000000 		.space	4
 1664              		.section	.data.availableBuffers,"aw"
 1665              		.align	2
 1666              		.set	.LANCHOR12,. + 0
 1669              	availableBuffers:
 1670 0000 0A000000 		.word	10
 1671              		.section	.data.currentOffset,"aw"
 1672              		.align	2
 1673              		.set	.LANCHOR11,. + 0
 1676              	currentOffset:
 1677 0000 FFFFFFFF 		.word	-1
 1678              		.text
 1679              	.Letext0:
 1680              		.file 2 "c:\\program files (x86)\\gnu arm embedded toolchain\\10 2021.10\\arm-none-eabi\\include\\
 1681              		.file 3 "c:\\program files (x86)\\gnu arm embedded toolchain\\10 2021.10\\arm-none-eabi\\include\\
 1682              		.file 4 "Inc/CanIf.h"
 1683              		.file 5 "Inc/CanTp.h"
 1684              		.file 6 "Middlewares/Third_Party/FreeRTOS/Source/include/task.h"
ARM GAS  C:\Users\wup15j\AppData\Local\Temp\cc0HQV6h.s 			page 41


DEFINED SYMBOLS
                            *ABS*:00000000 cantp.c
C:\Users\wup15j\AppData\Local\Temp\cc0HQV6h.s:18     .text.CanTp_RxIndication:00000000 $t
C:\Users\wup15j\AppData\Local\Temp\cc0HQV6h.s:24     .text.CanTp_RxIndication:00000000 CanTp_RxIndication
C:\Users\wup15j\AppData\Local\Temp\cc0HQV6h.s:55     .text.CanTp_RxIndication:00000014 $d
C:\Users\wup15j\AppData\Local\Temp\cc0HQV6h.s:62     .text.CanTp_Init:00000000 $t
C:\Users\wup15j\AppData\Local\Temp\cc0HQV6h.s:68     .text.CanTp_Init:00000000 CanTp_Init
C:\Users\wup15j\AppData\Local\Temp\cc0HQV6h.s:88     .text.CanTp_Init:0000000c $d
C:\Users\wup15j\AppData\Local\Temp\cc0HQV6h.s:93     .text.CanTp_Transmit:00000000 $t
C:\Users\wup15j\AppData\Local\Temp\cc0HQV6h.s:99     .text.CanTp_Transmit:00000000 CanTp_Transmit
C:\Users\wup15j\AppData\Local\Temp\cc0HQV6h.s:129    .text.CanTp_Transmit:00000014 $d
C:\Users\wup15j\AppData\Local\Temp\cc0HQV6h.s:136    .text.CanTp_GetFrameType:00000000 $t
C:\Users\wup15j\AppData\Local\Temp\cc0HQV6h.s:142    .text.CanTp_GetFrameType:00000000 CanTp_GetFrameType
C:\Users\wup15j\AppData\Local\Temp\cc0HQV6h.s:175    .text.CanTp_setCallback:00000000 $t
C:\Users\wup15j\AppData\Local\Temp\cc0HQV6h.s:181    .text.CanTp_setCallback:00000000 CanTp_setCallback
C:\Users\wup15j\AppData\Local\Temp\cc0HQV6h.s:202    .text.CanTp_setCallback:00000008 $d
C:\Users\wup15j\AppData\Local\Temp\cc0HQV6h.s:207    .text.CanTp_encodeSingleFrame:00000000 $t
C:\Users\wup15j\AppData\Local\Temp\cc0HQV6h.s:213    .text.CanTp_encodeSingleFrame:00000000 CanTp_encodeSingleFrame
C:\Users\wup15j\AppData\Local\Temp\cc0HQV6h.s:307    .text.CanTp_encodeSingleFrame:00000048 $d
C:\Users\wup15j\AppData\Local\Temp\cc0HQV6h.s:313    .text.CanTp_encodeFirstFrame:00000000 $t
C:\Users\wup15j\AppData\Local\Temp\cc0HQV6h.s:319    .text.CanTp_encodeFirstFrame:00000000 CanTp_encodeFirstFrame
C:\Users\wup15j\AppData\Local\Temp\cc0HQV6h.s:402    .text.CanTp_encodeFirstFrame:00000044 $d
C:\Users\wup15j\AppData\Local\Temp\cc0HQV6h.s:407    .text.CanTp_encodeConsecutiveFrame:00000000 $t
C:\Users\wup15j\AppData\Local\Temp\cc0HQV6h.s:413    .text.CanTp_encodeConsecutiveFrame:00000000 CanTp_encodeConsecutiveFrame
C:\Users\wup15j\AppData\Local\Temp\cc0HQV6h.s:539    .text.CanTp_encodeConsecutiveFrame:0000007c $d
C:\Users\wup15j\AppData\Local\Temp\cc0HQV6h.s:548    .text.CanTp_encodeFlowControlFrame:00000000 $t
C:\Users\wup15j\AppData\Local\Temp\cc0HQV6h.s:554    .text.CanTp_encodeFlowControlFrame:00000000 CanTp_encodeFlowControlFrame
C:\Users\wup15j\AppData\Local\Temp\cc0HQV6h.s:632    .text.CanTp_encodeFlowControlFrame:00000038 $d
C:\Users\wup15j\AppData\Local\Temp\cc0HQV6h.s:640    .text.CanTp_decodeFlowControlFrame:00000000 $t
C:\Users\wup15j\AppData\Local\Temp\cc0HQV6h.s:646    .text.CanTp_decodeFlowControlFrame:00000000 CanTp_decodeFlowControlFrame
C:\Users\wup15j\AppData\Local\Temp\cc0HQV6h.s:710    .text.CanTp_decodeFlowControlFrame:00000030 $d
C:\Users\wup15j\AppData\Local\Temp\cc0HQV6h.s:719    .text.CanTp_ConnectData:00000000 $t
C:\Users\wup15j\AppData\Local\Temp\cc0HQV6h.s:725    .text.CanTp_ConnectData:00000000 CanTp_ConnectData
C:\Users\wup15j\AppData\Local\Temp\cc0HQV6h.s:792    .text.CanTp_ConnectData:0000004c $d
C:\Users\wup15j\AppData\Local\Temp\cc0HQV6h.s:799    .text.CanTp_decodeSingleFrame:00000000 $t
C:\Users\wup15j\AppData\Local\Temp\cc0HQV6h.s:805    .text.CanTp_decodeSingleFrame:00000000 CanTp_decodeSingleFrame
C:\Users\wup15j\AppData\Local\Temp\cc0HQV6h.s:874    .text.CanTp_decodeSingleFrame:00000034 $d
C:\Users\wup15j\AppData\Local\Temp\cc0HQV6h.s:881    .text.CanTp_decodeFirstFrame:00000000 $t
C:\Users\wup15j\AppData\Local\Temp\cc0HQV6h.s:887    .text.CanTp_decodeFirstFrame:00000000 CanTp_decodeFirstFrame
C:\Users\wup15j\AppData\Local\Temp\cc0HQV6h.s:961    .text.CanTp_decodeFirstFrame:0000003c $d
C:\Users\wup15j\AppData\Local\Temp\cc0HQV6h.s:968    .text.CanTp_decodeConsecutiveFrame:00000000 $t
C:\Users\wup15j\AppData\Local\Temp\cc0HQV6h.s:974    .text.CanTp_decodeConsecutiveFrame:00000000 CanTp_decodeConsecutiveFrame
C:\Users\wup15j\AppData\Local\Temp\cc0HQV6h.s:1087   .text.CanTp_decodeConsecutiveFrame:00000068 $d
C:\Users\wup15j\AppData\Local\Temp\cc0HQV6h.s:1095   .text.CanTp_MainFunction:00000000 $t
C:\Users\wup15j\AppData\Local\Temp\cc0HQV6h.s:1101   .text.CanTp_MainFunction:00000000 CanTp_MainFunction
C:\Users\wup15j\AppData\Local\Temp\cc0HQV6h.s:1356   .text.CanTp_MainFunction:00000118 $d
C:\Users\wup15j\AppData\Local\Temp\cc0HQV6h.s:1361   .text.CanTp_MainFunction:00000128 $t
C:\Users\wup15j\AppData\Local\Temp\cc0HQV6h.s:1388   .text.CanTp_MainFunction:00000140 $d
C:\Users\wup15j\AppData\Local\Temp\cc0HQV6h.s:1392   .text.CanTp_MainFunction:00000144 $t
C:\Users\wup15j\AppData\Local\Temp\cc0HQV6h.s:1456   .text.CanTp_MainFunction:0000018c $d
C:\Users\wup15j\AppData\Local\Temp\cc0HQV6h.s:1644   .bss.rxComplete:00000000 rxComplete
C:\Users\wup15j\AppData\Local\Temp\cc0HQV6h.s:1655   .bss.rxData:00000000 rxData
C:\Users\wup15j\AppData\Local\Temp\cc0HQV6h.s:1650   .bss.rxCurrentMaxIndex:00000000 rxCurrentMaxIndex
C:\Users\wup15j\AppData\Local\Temp\cc0HQV6h.s:1639   .bss.rxBufferIndex:00000000 rxBufferIndex
C:\Users\wup15j\AppData\Local\Temp\cc0HQV6h.s:1633   .bss.rxBuffer:00000000 rxBuffer
C:\Users\wup15j\AppData\Local\Temp\cc0HQV6h.s:1580   .bss.RxData:00000000 RxData
C:\Users\wup15j\AppData\Local\Temp\cc0HQV6h.s:1567   .bss.GlobalTxPduId:00000000 GlobalTxPduId
ARM GAS  C:\Users\wup15j\AppData\Local\Temp\cc0HQV6h.s 			page 42


C:\Users\wup15j\AppData\Local\Temp\cc0HQV6h.s:1553   .bss.GlobalRxPduId:00000000 GlobalRxPduId
C:\Users\wup15j\AppData\Local\Temp\cc0HQV6h.s:1519   .bss.CanTp_Tx:00000000 CanTp_Tx
C:\Users\wup15j\AppData\Local\Temp\cc0HQV6h.s:1513   .bss.CanTp_Rx:00000000 CanTp_Rx
C:\Users\wup15j\AppData\Local\Temp\cc0HQV6h.s:1662   .bss.startOffset:00000000 startOffset
C:\Users\wup15j\AppData\Local\Temp\cc0HQV6h.s:1676   .data.currentOffset:00000000 currentOffset
C:\Users\wup15j\AppData\Local\Temp\cc0HQV6h.s:1593   .bss.currentIndex:00000000 currentIndex
C:\Users\wup15j\AppData\Local\Temp\cc0HQV6h.s:1532   .bss.ConsecSN:00000000 ConsecSN
C:\Users\wup15j\AppData\Local\Temp\cc0HQV6h.s:1574   .bss.GlobalTxPduInfoPtr:00000000 GlobalTxPduInfoPtr
C:\Users\wup15j\AppData\Local\Temp\cc0HQV6h.s:1560   .bss.GlobalRxPduInfoPtr:00000000 GlobalRxPduInfoPtr
C:\Users\wup15j\AppData\Local\Temp\cc0HQV6h.s:1526   .bss.CompletePduInfo:00000000 CompletePduInfo
C:\Users\wup15j\AppData\Local\Temp\cc0HQV6h.s:1539   .bss.DecodedPduInfo:00000000 DecodedPduInfo
C:\Users\wup15j\AppData\Local\Temp\cc0HQV6h.s:1546   .bss.EncodedPduInfo:00000000 EncodedPduInfo
C:\Users\wup15j\AppData\Local\Temp\cc0HQV6h.s:1599   .bss.expectedFrameState:00000000 expectedFrameState
C:\Users\wup15j\AppData\Local\Temp\cc0HQV6h.s:1507   .bss.App_Callback:00000000 App_Callback
C:\Users\wup15j\AppData\Local\Temp\cc0HQV6h.s:1669   .data.availableBuffers:00000000 availableBuffers
C:\Users\wup15j\AppData\Local\Temp\cc0HQV6h.s:1620   .bss.numberOfRemainingBytesToReceive:00000000 numberOfRemainingBytesToReceive
C:\Users\wup15j\AppData\Local\Temp\cc0HQV6h.s:1627   .bss.numberOfRemainingBytesToSend:00000000 numberOfRemainingBytesToSend
C:\Users\wup15j\AppData\Local\Temp\cc0HQV6h.s:1606   .bss.numberOfConsecutiveFramesToReceive:00000000 numberOfConsecutiveFramesToReceive
C:\Users\wup15j\AppData\Local\Temp\cc0HQV6h.s:1586   .bss.currentConsecutiveFrames:00000000 currentConsecutiveFrames
C:\Users\wup15j\AppData\Local\Temp\cc0HQV6h.s:1613   .bss.numberOfConsecutiveFramesToSend:00000000 numberOfConsecutiveFramesToSend
C:\Users\wup15j\AppData\Local\Temp\cc0HQV6h.s:1503   .bss.App_Callback:00000000 $d
C:\Users\wup15j\AppData\Local\Temp\cc0HQV6h.s:1514   .bss.CanTp_Rx:00000000 $d
C:\Users\wup15j\AppData\Local\Temp\cc0HQV6h.s:1520   .bss.CanTp_Tx:00000000 $d
C:\Users\wup15j\AppData\Local\Temp\cc0HQV6h.s:1522   .bss.CompletePduInfo:00000000 $d
C:\Users\wup15j\AppData\Local\Temp\cc0HQV6h.s:1533   .bss.ConsecSN:00000000 $d
C:\Users\wup15j\AppData\Local\Temp\cc0HQV6h.s:1535   .bss.DecodedPduInfo:00000000 $d
C:\Users\wup15j\AppData\Local\Temp\cc0HQV6h.s:1542   .bss.EncodedPduInfo:00000000 $d
C:\Users\wup15j\AppData\Local\Temp\cc0HQV6h.s:1549   .bss.GlobalRxPduId:00000000 $d
C:\Users\wup15j\AppData\Local\Temp\cc0HQV6h.s:1556   .bss.GlobalRxPduInfoPtr:00000000 $d
C:\Users\wup15j\AppData\Local\Temp\cc0HQV6h.s:1563   .bss.GlobalTxPduId:00000000 $d
C:\Users\wup15j\AppData\Local\Temp\cc0HQV6h.s:1570   .bss.GlobalTxPduInfoPtr:00000000 $d
C:\Users\wup15j\AppData\Local\Temp\cc0HQV6h.s:1577   .bss.RxData:00000000 $d
C:\Users\wup15j\AppData\Local\Temp\cc0HQV6h.s:1583   .bss.currentConsecutiveFrames:00000000 $d
C:\Users\wup15j\AppData\Local\Temp\cc0HQV6h.s:1589   .bss.currentIndex:00000000 $d
C:\Users\wup15j\AppData\Local\Temp\cc0HQV6h.s:1600   .bss.expectedFrameState:00000000 $d
C:\Users\wup15j\AppData\Local\Temp\cc0HQV6h.s:1602   .bss.numberOfConsecutiveFramesToReceive:00000000 $d
C:\Users\wup15j\AppData\Local\Temp\cc0HQV6h.s:1609   .bss.numberOfConsecutiveFramesToSend:00000000 $d
C:\Users\wup15j\AppData\Local\Temp\cc0HQV6h.s:1616   .bss.numberOfRemainingBytesToReceive:00000000 $d
C:\Users\wup15j\AppData\Local\Temp\cc0HQV6h.s:1623   .bss.numberOfRemainingBytesToSend:00000000 $d
C:\Users\wup15j\AppData\Local\Temp\cc0HQV6h.s:1630   .bss.rxBuffer:00000000 $d
C:\Users\wup15j\AppData\Local\Temp\cc0HQV6h.s:1636   .bss.rxBufferIndex:00000000 $d
C:\Users\wup15j\AppData\Local\Temp\cc0HQV6h.s:1645   .bss.rxComplete:00000000 $d
C:\Users\wup15j\AppData\Local\Temp\cc0HQV6h.s:1647   .bss.rxCurrentMaxIndex:00000000 $d
C:\Users\wup15j\AppData\Local\Temp\cc0HQV6h.s:1656   .bss.rxData:00000000 $d
C:\Users\wup15j\AppData\Local\Temp\cc0HQV6h.s:1658   .bss.startOffset:00000000 $d
C:\Users\wup15j\AppData\Local\Temp\cc0HQV6h.s:1665   .data.availableBuffers:00000000 $d
C:\Users\wup15j\AppData\Local\Temp\cc0HQV6h.s:1672   .data.currentOffset:00000000 $d

UNDEFINED SYMBOLS
CanIf_setCallback
CanIf_Transmit
vTaskDelay
