ARM GAS  C:\Users\wup15j\AppData\Local\Temp\ccxDxktJ.s 			page 1


   1              		.cpu cortex-m3
   2              		.arch armv7-m
   3              		.fpu softvfp
   4              		.eabi_attribute 20, 1
   5              		.eabi_attribute 21, 1
   6              		.eabi_attribute 23, 3
   7              		.eabi_attribute 24, 1
   8              		.eabi_attribute 25, 1
   9              		.eabi_attribute 26, 1
  10              		.eabi_attribute 30, 1
  11              		.eabi_attribute 34, 1
  12              		.eabi_attribute 18, 4
  13              		.file	"cantp.c"
  14              		.text
  15              	.Ltext0:
  16              		.cfi_sections	.debug_frame
  17              		.section	.text.CanTp_RxIndication,"ax",%progbits
  18              		.align	1
  19              		.global	CanTp_RxIndication
  20              		.syntax unified
  21              		.thumb
  22              		.thumb_func
  24              	CanTp_RxIndication:
  25              	.LVL0:
  26              	.LFB73:
  27              		.file 1 "Src/cantp.c"
   1:Src/cantp.c   **** /*
   2:Src/cantp.c   ****  * CanTp.c
   3:Src/cantp.c   ****  *
   4:Src/cantp.c   ****  *  Created on: Jun 11, 2024
   5:Src/cantp.c   ****  *      Author: DELL
   6:Src/cantp.c   ****  */
   7:Src/cantp.c   **** 
   8:Src/cantp.c   **** #include "CanTp.h"  // åŒ…å« CanTp æ¨¡å—çš„å¤´æ–‡ä»¶ï¼Œå£°æ˜äº†è¯¥æ¨¡å—çš„å‡½æ•°å’Œæ•°æ®ç»“æ„
   9:Src/cantp.c   **** 
  10:Src/cantp.c   **** #define RX_BUFFER_SIZE 100  // å®šä¹‰æ¥æ”¶ç¼“å†²åŒºå¤§å°ä¸º 100 å­—èŠ‚ã€‚
  11:Src/cantp.c   **** #define CAN_FRAME_LENGTH 8  // å®šä¹‰ CAN å¸§çš„é•¿åº¦ä¸º 8 å­—èŠ‚ã€‚
  12:Src/cantp.c   **** #define CAN_MAX_PAYLOAD_LENGTH 7  // å®šä¹‰ CAN å¸§çš„æœ€å¤§æœ‰æ•ˆè´Ÿè½½é•¿åº¦ä¸º 7 å­—èŠ‚ï¼ˆè€ƒè™‘
  13:Src/cantp.c   **** 
  14:Src/cantp.c   **** volatile uint32_t numberOfConsecutiveFramesToSend = 0;  // å®šä¹‰ä¸€ä¸ªç”¨äºå­˜å‚¨è¦å‘é€çš„è¿ç
  15:Src/cantp.c   **** volatile uint32_t currentConsecutiveFrames = 0;  // å®šä¹‰ä¸€ä¸ªå˜é‡ç”¨äºè®°å½•å½“å‰å‘é€çš„è¿
  16:Src/cantp.c   **** volatile uint32_t numberOfConsecutiveFramesToReceive = 0;  // å®šä¹‰ä¸€ä¸ªç”¨äºå­˜å‚¨è¦æ¥æ”¶çš„è
  17:Src/cantp.c   **** volatile uint32_t numberOfRemainingBytesToSend = 0;  // å®šä¹‰ä¸€ä¸ªå˜é‡ç”¨äºè®°å½•å‰©ä½™çš„éœ€è
  18:Src/cantp.c   **** volatile uint32_t numberOfRemainingBytesToReceive = 0;  // å®šä¹‰ä¸€ä¸ªå˜é‡ç”¨äºè®°å½•å‰©ä½™çš„é
  19:Src/cantp.c   **** volatile uint32_t availableBuffers = 10;  // å®šä¹‰ä¸€ä¸ªå˜é‡è¡¨ç¤ºå¯ç”¨çš„ç¼“å†²åŒºæ•°é‡ï¼Œåˆ
  20:Src/cantp.c   **** void (*App_Callback)(uint32_t RxPduId, PduInfoType* PduInfoPtr) = NULL;  // å®šä¹‰ä¸€ä¸ªæŒ‡å‘å›è°
  21:Src/cantp.c   **** 
  22:Src/cantp.c   **** Frame_States expectedFrameState = Any_State;  // å®šä¹‰ä¸€ä¸ªå˜é‡è¡¨ç¤ºé¢„æœŸæ¥æ”¶åˆ°çš„å¸§çŠ¶æ€
  23:Src/cantp.c   **** PduInfoTRx EncodedPduInfo;  // å®šä¹‰ä¸€ä¸ªç»“æ„ä½“ç”¨äºå­˜å‚¨ç¼–ç åçš„ PDU ä¿¡æ¯ã€‚
  24:Src/cantp.c   **** PduInfoTRx DecodedPduInfo;  // å®šä¹‰ä¸€ä¸ªç»“æ„ä½“ç”¨äºå­˜å‚¨è§£ç åçš„ PDU ä¿¡æ¯ã€‚
  25:Src/cantp.c   **** PduInfoType CompletePduInfo;  // å®šä¹‰ä¸€ä¸ªç»“æ„ä½“ç”¨äºå­˜å‚¨å®Œæ•´çš„ PDU ä¿¡æ¯ã€‚
  26:Src/cantp.c   **** PduInfoTRx* GlobalRxPduInfoPtr;  // å®šä¹‰ä¸€ä¸ªæŒ‡é’ˆç”¨äºæŒ‡å‘å…¨å±€æ¥æ”¶ PDU ä¿¡æ¯ç»“æ„ä½“ã
  27:Src/cantp.c   **** PduInfoType* GlobalTxPduInfoPtr;  // å®šä¹‰ä¸€ä¸ªæŒ‡é’ˆç”¨äºæŒ‡å‘å…¨å±€ä¼ è¾“ PDU ä¿¡æ¯ç»“æ„ä½“
  28:Src/cantp.c   **** 
  29:Src/cantp.c   **** volatile uint8_t ConsecSN;  // å®šä¹‰ä¸€ä¸ªå˜é‡ç”¨äºå­˜å‚¨è¿ç»­å¸§çš„åºåˆ—å·ã€‚
  30:Src/cantp.c   **** volatile uint16_t currentIndex;  // å®šä¹‰ä¸€ä¸ªå˜é‡ç”¨äºå­˜å‚¨å½“å‰ç´¢å¼•ï¼ˆé€šå¸¸ç”¨äºç¼“å†²
  31:Src/cantp.c   **** volatile int32_t currentOffset = -1;  // å®šä¹‰ä¸€ä¸ªå˜é‡ç”¨äºå­˜å‚¨å½“å‰çš„åç§»é‡ï¼Œåˆå§‹å
ARM GAS  C:\Users\wup15j\AppData\Local\Temp\ccxDxktJ.s 			page 2


  32:Src/cantp.c   **** volatile int32_t startOffset;  // å®šä¹‰ä¸€ä¸ªå˜é‡ç”¨äºå­˜å‚¨èµ·å§‹åç§»é‡ã€‚
  33:Src/cantp.c   **** 
  34:Src/cantp.c   **** volatile int8_t CanTp_Rx;  // å®šä¹‰ä¸€ä¸ªå˜é‡ç”¨äºè¡¨ç¤º CAN TP æ¥æ”¶çŠ¶æ€ã€‚
  35:Src/cantp.c   **** volatile int8_t CanTp_Tx;  // å®šä¹‰ä¸€ä¸ªå˜é‡ç”¨äºè¡¨ç¤º CAN TP å‘é€çŠ¶æ€ã€‚
  36:Src/cantp.c   **** volatile uint32_t GlobalRxPduId;  // å®šä¹‰ä¸€ä¸ªå˜é‡ç”¨äºå­˜å‚¨å…¨å±€æ¥æ”¶ PDU IDã€‚
  37:Src/cantp.c   **** volatile uint32_t GlobalTxPduId;  // å®šä¹‰ä¸€ä¸ªå˜é‡ç”¨äºå­˜å‚¨å…¨å±€ä¼ è¾“ PDU IDã€‚
  38:Src/cantp.c   **** 
  39:Src/cantp.c   **** uint8_t RxData[8];  // å®šä¹‰ä¸€ä¸ªæ•°ç»„ç”¨äºå­˜å‚¨æ¥æ”¶åˆ°çš„æ•°æ®ï¼Œå¤§å°ä¸º 8 å­—èŠ‚ã€‚
  40:Src/cantp.c   **** // uint8_t TxData[8];  // å®šä¹‰ä¸€ä¸ªæ•°ç»„ç”¨äºå­˜å‚¨è¦å‘é€çš„æ•°æ®ï¼Œå¤§å°ä¸º 8 å­—èŠ‚ï¼ˆå
  41:Src/cantp.c   **** 
  42:Src/cantp.c   **** uint8_t rxBuffer[RX_BUFFER_SIZE];  // å®šä¹‰ä¸€ä¸ªæ¥æ”¶ç¼“å†²åŒºæ•°ç»„ï¼Œå¤§å°ä¸º RX_BUFFER_SIZEï
  43:Src/cantp.c   **** volatile int32_t rxBufferIndex = 0;  // å®šä¹‰ä¸€ä¸ªå˜é‡ç”¨äºè®°å½•æ¥æ”¶ç¼“å†²åŒºçš„å½“å‰ç´¢å¼
  44:Src/cantp.c   **** volatile int32_t rxCurrentMaxIndex = 0;  // å®šä¹‰ä¸€ä¸ªå˜é‡ç”¨äºè®°å½•æ¥æ”¶ç¼“å†²åŒºçš„æœ€å¤§ç
  45:Src/cantp.c   **** 
  46:Src/cantp.c   **** volatile uint8_t rxData = 0;  // å®šä¹‰ä¸€ä¸ªå˜é‡ç”¨äºè¡¨ç¤ºå½“å‰æ¥æ”¶çš„æ•°æ®ã€‚
  47:Src/cantp.c   **** volatile uint8_t rxComplete = 0;  // å®šä¹‰ä¸€ä¸ªå˜é‡ç”¨äºè¡¨ç¤ºæ¥æ”¶æ˜¯å¦å®Œæˆã€‚
  48:Src/cantp.c   **** 
  49:Src/cantp.c   **** // åˆå§‹åŒ– CanTp æ¨¡å—
  50:Src/cantp.c   **** void CanTp_Init(){
  51:Src/cantp.c   **** 	CanIf_setCallback(CanTp_RxIndication);  // è°ƒç”¨ CanIf æ¨¡å—çš„å‡½æ•°ï¼Œè®¾ç½® CanTp æ¨¡å—çš„æ
  52:Src/cantp.c   **** }
  53:Src/cantp.c   **** 
  54:Src/cantp.c   **** void CanTp_MainFunction(){
  55:Src/cantp.c   **** 	while(1){  // æ— é™å¾ªç¯ï¼Œä¸æ–­è½®è¯¢å¤„ç† CAN TP çš„æ¥æ”¶å’Œå‘é€æ“ä½œã€‚
  56:Src/cantp.c   **** 		if(CanTp_Rx){  // å¦‚æœæ¥æ”¶åˆ°æ–°çš„ CAN TP æ•°æ®åŒ…ã€‚
  57:Src/cantp.c   **** 			CanTp_Rx = 0;  // æ¸…é™¤æ¥æ”¶æ ‡å¿—ï¼Œè¡¨ç¤ºæ­£åœ¨å¤„ç†æ¥æ”¶åˆ°çš„æ•°æ®ã€‚
  58:Src/cantp.c   **** 			
  59:Src/cantp.c   **** 			// // å¦‚æœå…¨å±€æ¥æ”¶ PDU ID ä¸ç­‰äº 0ï¼Œåˆ™åœæ­¢ç¨‹åºè¿è¡Œã€‚
  60:Src/cantp.c   **** 			// if(GlobalRxPduId != 0){
  61:Src/cantp.c   **** 			// 	while(1);  // è¿›å…¥æ­»å¾ªç¯ï¼Œé€šå¸¸ç”¨ä½œé”™è¯¯å¤„ç†æˆ–è°ƒè¯•ç›®çš„ã€‚
  62:Src/cantp.c   **** 			// }
  63:Src/cantp.c   **** 
  64:Src/cantp.c   **** 			// è·å–å½“å‰æ¥æ”¶å¸§çš„æ•°æ®ç±»å‹ï¼Œæ ¹æ®å¸§çš„ç¬¬ä¸€ä¸ªå­—èŠ‚ç¡®å®šå¸§ç±»å‹ã€‚
  65:Src/cantp.c   **** 			Frame_Type frame_type = CanTp_GetFrameType(GlobalRxPduInfoPtr->Data[0]);
  66:Src/cantp.c   **** 
  67:Src/cantp.c   **** 			// æ ¹æ®å¸§ç±»å‹è°ƒç”¨ç›¸åº”çš„è§£ç å‡½æ•°ï¼Œå¹¶å¤„ç†æ•°æ®ã€‚
  68:Src/cantp.c   **** 			switch(frame_type){
  69:Src/cantp.c   **** 			case Single_Frame:  // å¦‚æœå¸§ç±»å‹æ˜¯å•å¸§ã€‚
  70:Src/cantp.c   **** 				CanTp_decodeSingleFrame(GlobalRxPduId, GlobalRxPduInfoPtr);  // è§£ç å•å¸§æ•°æ®ã€‚
  71:Src/cantp.c   **** 				break;
  72:Src/cantp.c   **** 			case First_Frame:  // å¦‚æœå¸§ç±»å‹æ˜¯é¦–å¸§ã€‚
  73:Src/cantp.c   **** 				CanTp_decodeFirstFrame(GlobalRxPduId, GlobalRxPduInfoPtr);  // è§£ç é¦–å¸§æ•°æ®ã€‚
  74:Src/cantp.c   **** 				expectedFrameState = FlowControl_Frame_State;  // è®¾ç½®æœŸæœ›çš„ä¸‹ä¸€ä¸ªå¸§çŠ¶æ€ä¸ºæµæ§åˆ¶
  75:Src/cantp.c   **** 				CanTp_Transmit(GlobalRxPduId, (PduInfoType*) GlobalRxPduInfoPtr);  // å‘é€æµæ§åˆ¶å¸§ï¼Œä»¥ä
  76:Src/cantp.c   **** 				break;
  77:Src/cantp.c   **** 			case Consecutive_Frame:  // å¦‚æœå¸§ç±»å‹æ˜¯è¿ç»­å¸§ã€‚
  78:Src/cantp.c   **** 				CanTp_decodeConsecutiveFrame(GlobalRxPduId, GlobalRxPduInfoPtr);  // è§£ç è¿ç»­å¸§æ•°æ®ã€‚
  79:Src/cantp.c   **** 				if(numberOfConsecutiveFramesToReceive == 0 && numberOfRemainingBytesToReceive > 0){
  80:Src/cantp.c   **** 					// å¦‚æœæ¥æ”¶åˆ°çš„è¿ç»­å¸§æ•°é‡ä¸º 0 ä¸”è¿˜æœ‰å‰©ä½™å­—èŠ‚æœªæ¥æ”¶ï¼Œå‘é€æµæ§åˆ¶å¸§ã
  81:Src/cantp.c   **** 					expectedFrameState = FlowControl_Frame_State;  // æ›´æ–°æœŸæœ›çš„å¸§çŠ¶æ€ã€‚
  82:Src/cantp.c   **** 					CanTp_Transmit(GlobalRxPduId, (PduInfoType*) GlobalRxPduInfoPtr);  // å‘é€æµæ§åˆ¶å¸§ã€‚
  83:Src/cantp.c   **** 				}
  84:Src/cantp.c   **** 				break;
  85:Src/cantp.c   **** 			case FlowControl_Frame:  // å¦‚æœå¸§ç±»å‹æ˜¯æµæ§åˆ¶å¸§ã€‚
  86:Src/cantp.c   **** 				// è§£ç æµæ§åˆ¶å¸§ï¼Œå¹¶æ ¹æ®å¯¹æ–¹èŠ‚ç‚¹çš„ç©ºé—²ç¼“å†²åŒºæ•°è°ƒæ•´å¾…å‘é€çš„è¿ç»­å¸§æ•
  87:Src/cantp.c   **** 				CanTp_decodeFlowControlFrame(GlobalRxPduId, GlobalRxPduInfoPtr);
  88:Src/cantp.c   **** 				break;
ARM GAS  C:\Users\wup15j\AppData\Local\Temp\ccxDxktJ.s 			page 3


  89:Src/cantp.c   **** 			default:
  90:Src/cantp.c   **** 				break;  // å…¶ä»–æƒ…å†µä¸åšå¤„ç†ã€‚
  91:Src/cantp.c   **** 			}
  92:Src/cantp.c   **** 
  93:Src/cantp.c   **** 			// å¦‚æœæ¥æ”¶åˆ°çš„å¸§æ˜¯æµæ§åˆ¶å¸§ï¼Œè¿›è¡Œç‰¹å®šå¤„ç†ï¼ˆæœ¬æ®µä»£ç ä¸ºç©ºï¼Œå¯èƒ½é¢„ç•™
  94:Src/cantp.c   **** 			if(frame_type == FlowControl_Frame){
  95:Src/cantp.c   **** 
  96:Src/cantp.c   **** 			}
  97:Src/cantp.c   **** 			else if(numberOfRemainingBytesToReceive == 0){  // å¦‚æœæ‰€æœ‰æ•°æ®éƒ½æ¥æ”¶å®Œæ¯•ã€‚
  98:Src/cantp.c   **** 				if(App_Callback != NULL){  // å¦‚æœåº”ç”¨å±‚å›è°ƒå‡½æ•°ä¸ä¸ºç©ºã€‚
  99:Src/cantp.c   **** 					currentIndex = 0;  // é‡ç½®ç´¢å¼•ã€‚
 100:Src/cantp.c   **** 					App_Callback(GlobalRxPduId, &CompletePduInfo);  // è°ƒç”¨åº”ç”¨å±‚å›è°ƒå‡½æ•°ï¼Œå¤„ç†å®Œæ•´ç
 101:Src/cantp.c   **** 				}
 102:Src/cantp.c   **** 			}
 103:Src/cantp.c   **** 		}
 104:Src/cantp.c   **** 		else if(CanTp_Tx){  // å¦‚æœæœ‰æ–°çš„ CAN TP æ•°æ®éœ€è¦å‘é€ã€‚
 105:Src/cantp.c   **** 			// å¦‚æœå…¨å±€ä¼ è¾“ PDU ID ä¸ç­‰äº 0ï¼Œåˆ™åœæ­¢ç¨‹åºè¿è¡Œã€‚
 106:Src/cantp.c   **** 			if(GlobalTxPduId != 0){
 107:Src/cantp.c   **** 				while(1);  // è¿›å…¥æ­»å¾ªç¯ï¼Œé€šå¸¸ç”¨ä½œé”™è¯¯å¤„ç†æˆ–è°ƒè¯•ç›®çš„ã€‚
 108:Src/cantp.c   **** 			}
 109:Src/cantp.c   **** 
 110:Src/cantp.c   **** 			Frame_Type frame_type = None;  // åˆå§‹åŒ–å¸§ç±»å‹ä¸º Noneã€‚
 111:Src/cantp.c   **** 			if(numberOfRemainingBytesToSend == 0 && expectedFrameState == Any_State){
 112:Src/cantp.c   **** 				// å¦‚æœæ²¡æœ‰å‰©ä½™å­—èŠ‚éœ€è¦å‘é€ä¸”å½“å‰æœŸæœ›çš„å¸§çŠ¶æ€ä¸ºä»»æ„çŠ¶æ€ã€‚
 113:Src/cantp.c   **** 				numberOfRemainingBytesToSend = GlobalTxPduInfoPtr->Length;  // æ›´æ–°å‰©ä½™å¾…å‘é€å­—èŠ‚æ•°ã€
 114:Src/cantp.c   **** 				CompletePduInfo.Length = numberOfRemainingBytesToSend;  // æ›´æ–°å®Œæ•´ PDU çš„é•¿åº¦ã€‚
 115:Src/cantp.c   **** 				if(GlobalTxPduInfoPtr->Length < 8){
 116:Src/cantp.c   **** 					frame_type = Single_Frame;  // å¦‚æœæ•°æ®é•¿åº¦å°äº 8 å­—èŠ‚ï¼Œè®¾ç½®å¸§ç±»å‹ä¸ºå•å¸§ã€‚
 117:Src/cantp.c   **** 				}
 118:Src/cantp.c   **** 				else{
 119:Src/cantp.c   **** 					frame_type = First_Frame;  // å¦åˆ™ï¼Œè®¾ç½®å¸§ç±»å‹ä¸ºé¦–å¸§ã€‚
 120:Src/cantp.c   **** 				}
 121:Src/cantp.c   **** 			}
 122:Src/cantp.c   **** 
 123:Src/cantp.c   **** 			if(numberOfRemainingBytesToSend > 0 || expectedFrameState == FlowControl_Frame_State){
 124:Src/cantp.c   **** 				// å¦‚æœæœ‰å‰©ä½™å­—èŠ‚éœ€è¦å‘é€æˆ–æœŸæœ›çš„å¸§çŠ¶æ€ä¸ºæµæ§åˆ¶å¸§çŠ¶æ€ã€‚
 125:Src/cantp.c   **** 				if(expectedFrameState == Consecutive_Frame_State){
 126:Src/cantp.c   **** 					frame_type = Consecutive_Frame;  // è®¾ç½®å¸§ç±»å‹ä¸ºè¿ç»­å¸§ã€‚
 127:Src/cantp.c   **** 				}
 128:Src/cantp.c   **** 				else if(expectedFrameState == FlowControl_Frame_State){
 129:Src/cantp.c   **** 					frame_type = FlowControl_Frame;  // è®¾ç½®å¸§ç±»å‹ä¸ºæµæ§åˆ¶å¸§ã€‚
 130:Src/cantp.c   **** 				}
 131:Src/cantp.c   **** 				else{
 132:Src/cantp.c   **** 					// å…¶ä»–æƒ…å†µä¸åšå¤„ç†ï¼ˆå¯èƒ½ç”¨äºæ‰©å±•ï¼‰ã€‚
 133:Src/cantp.c   **** 				}
 134:Src/cantp.c   **** 
 135:Src/cantp.c   **** 				// æ ¹æ®å¸§ç±»å‹è°ƒç”¨ç›¸åº”çš„ç¼–ç å‡½æ•°ï¼Œç¼–ç æ•°æ®å¹¶å‘é€ã€‚
 136:Src/cantp.c   **** 				switch(frame_type){
 137:Src/cantp.c   **** 				case Single_Frame:
 138:Src/cantp.c   **** 					CanTp_encodeSingleFrame(GlobalTxPduId, GlobalTxPduInfoPtr);  // ç¼–ç å•å¸§æ•°æ®å¹¶å‘é€ã€‚
 139:Src/cantp.c   **** 					break;
 140:Src/cantp.c   **** 				case First_Frame:
 141:Src/cantp.c   **** 					CanTp_encodeFirstFrame(GlobalTxPduId, GlobalTxPduInfoPtr);  // ç¼–ç é¦–å¸§æ•°æ®å¹¶å‘é€ã€‚
 142:Src/cantp.c   **** 					frame_type = None;  // å‘é€å®Œé¦–å¸§åï¼Œå°†å¸§ç±»å‹é‡ç½®ä¸º Noneã€‚
 143:Src/cantp.c   **** 					break;
 144:Src/cantp.c   **** 				case Consecutive_Frame:
 145:Src/cantp.c   **** 					if(numberOfConsecutiveFramesToSend > 0){  // å¦‚æœä»æœ‰å¾…å‘é€çš„è¿ç»­å¸§ã€‚
ARM GAS  C:\Users\wup15j\AppData\Local\Temp\ccxDxktJ.s 			page 4


 146:Src/cantp.c   **** 						numberOfConsecutiveFramesToSend--;  // é€’å‡è¿ç»­å¸§è®¡æ•°å™¨ã€‚
 147:Src/cantp.c   **** 						CanTp_encodeConsecutiveFrame(GlobalTxPduId, GlobalTxPduInfoPtr);  // ç¼–ç è¿ç»­å¸§æ•°æ®å¹¶
 148:Src/cantp.c   **** 					}
 149:Src/cantp.c   **** 					else{
 150:Src/cantp.c   **** 						frame_type = None;  // å¦‚æœæ²¡æœ‰è¿ç»­å¸§å¾…å‘é€ï¼Œé‡ç½®å¸§ç±»å‹ã€‚
 151:Src/cantp.c   **** 						// ç­‰å¾…æµæ§åˆ¶å¸§æ¥æ”¶ä¸­æ–­é€šçŸ¥æ¥æ›´æ–° numberOfConsecutiveFramesToSend å˜é‡ã€‚
 152:Src/cantp.c   **** 					}
 153:Src/cantp.c   **** 					break;
 154:Src/cantp.c   **** 				case FlowControl_Frame:
 155:Src/cantp.c   **** 					// æ ¹æ® availableBuffers å˜é‡ï¼ˆé€šå¸¸æ˜¯æ¥æ”¶æ•°ç»„çš„å¤§å°ï¼‰å†³å®šå¦‚ä½•å‘é€æµæ§å
 156:Src/cantp.c   **** 					CanTp_encodeFlowControlFrame(GlobalTxPduId, GlobalTxPduInfoPtr);
 157:Src/cantp.c   **** 					break;
 158:Src/cantp.c   **** 				default:
 159:Src/cantp.c   **** 					break;  // å…¶ä»–æƒ…å†µä¸åšå¤„ç†ã€‚
 160:Src/cantp.c   **** 				}
 161:Src/cantp.c   **** 			}
 162:Src/cantp.c   **** 
 163:Src/cantp.c   **** 			// å¦‚æœæ‰€æœ‰æ•°æ®å‘é€å®Œæ¯•ã€‚
 164:Src/cantp.c   **** 			if(numberOfRemainingBytesToSend == 0){
 165:Src/cantp.c   **** 				// é‡ç½®æœŸæœ›å¸§çŠ¶æ€ã€‚
 166:Src/cantp.c   **** 				expectedFrameState = Any_State;
 167:Src/cantp.c   **** 				currentOffset = -1;  // é‡ç½®å½“å‰åç§»é‡ã€‚
 168:Src/cantp.c   **** 				CanTp_Tx = 0;  // æ¸…é™¤å‘é€æ ‡å¿—ï¼Œè¡¨ç¤ºå‘é€æ“ä½œå®Œæˆã€‚
 169:Src/cantp.c   **** 			}
 170:Src/cantp.c   **** 		}
 171:Src/cantp.c   **** 		vTaskDelay(100);  // å»¶è¿Ÿ 100 æ¯«ç§’ï¼Œæ§åˆ¶ä¸»å¾ªç¯çš„æ‰§è¡Œé¢‘ç‡ã€‚
 172:Src/cantp.c   **** 	}
 173:Src/cantp.c   **** }
 174:Src/cantp.c   **** 
 175:Src/cantp.c   **** Std_ReturnType CanTp_Transmit(uint32_t TxPduId, PduInfoType* PduInfoPtr){
 176:Src/cantp.c   **** 	GlobalTxPduInfoPtr = PduInfoPtr;  // å°†ä¼ å…¥çš„ PDU ä¿¡æ¯æŒ‡é’ˆä¿å­˜åˆ°å…¨å±€å˜é‡ä¸­ï¼Œä¾¿äº
 177:Src/cantp.c   **** 	GlobalTxPduId = TxPduId;  // å°†ä¼ å…¥çš„ PDU ID ä¿å­˜åˆ°å…¨å±€å˜é‡ä¸­ã€‚
 178:Src/cantp.c   **** 	CanTp_Tx = 1;  // è®¾ç½®å‘é€æ ‡å¿—ï¼Œè¡¨ç¤ºæœ‰æ•°æ®éœ€è¦å‘é€ã€‚
 179:Src/cantp.c   **** 	return E_OK;  // è¿”å›æ ‡å‡†è¿”å›å€¼ï¼Œè¡¨ç¤ºæ“ä½œæˆåŠŸã€‚
 180:Src/cantp.c   **** }
 181:Src/cantp.c   **** 
 182:Src/cantp.c   **** Std_ReturnType CanTp_RxIndication (uint32_t RxPduId, PduInfoTRx* PduInfoPtr){
  28              		.loc 1 182 77 view -0
  29              		.cfi_startproc
  30              		@ args = 0, pretend = 0, frame = 0
  31              		@ frame_needed = 0, uses_anonymous_args = 0
  32              		@ link register save eliminated.
 183:Src/cantp.c   **** 	GlobalRxPduInfoPtr = PduInfoPtr;  // å°†æ¥æ”¶åˆ°çš„ PDU ä¿¡æ¯æŒ‡é’ˆä¿å­˜åˆ°å…¨å±€å˜é‡ä¸­ï¼Œä¾
  33              		.loc 1 183 2 view .LVU1
  34              		.loc 1 183 21 is_stmt 0 view .LVU2
  35 0000 044B     		ldr	r3, .L2
  36 0002 1960     		str	r1, [r3]
 184:Src/cantp.c   **** 	GlobalRxPduId = RxPduId;  // å°†æ¥æ”¶åˆ°çš„ PDU ID ä¿å­˜åˆ°å…¨å±€å˜é‡ä¸­ã€‚
  37              		.loc 1 184 2 is_stmt 1 view .LVU3
  38              		.loc 1 184 16 is_stmt 0 view .LVU4
  39 0004 044B     		ldr	r3, .L2+4
  40 0006 1860     		str	r0, [r3]
 185:Src/cantp.c   **** 	CanTp_Rx = 1;  // è®¾ç½®æ¥æ”¶æ ‡å¿—ï¼Œè¡¨ç¤ºæœ‰æ•°æ®éœ€è¦å¤„ç†ã€‚
  41              		.loc 1 185 2 is_stmt 1 view .LVU5
  42              		.loc 1 185 11 is_stmt 0 view .LVU6
  43 0008 044B     		ldr	r3, .L2+8
  44 000a 0122     		movs	r2, #1
ARM GAS  C:\Users\wup15j\AppData\Local\Temp\ccxDxktJ.s 			page 5


  45 000c 1A70     		strb	r2, [r3]
 186:Src/cantp.c   **** 	return E_OK;  // è¿”å›æ ‡å‡†è¿”å›å€¼ï¼Œè¡¨ç¤ºæ“ä½œæˆåŠŸã€‚
  46              		.loc 1 186 2 is_stmt 1 view .LVU7
 187:Src/cantp.c   **** }
  47              		.loc 1 187 1 is_stmt 0 view .LVU8
  48 000e 0020     		movs	r0, #0
  49              	.LVL1:
  50              		.loc 1 187 1 view .LVU9
  51 0010 7047     		bx	lr
  52              	.L3:
  53 0012 00BF     		.align	2
  54              	.L2:
  55 0014 00000000 		.word	.LANCHOR0
  56 0018 00000000 		.word	.LANCHOR1
  57 001c 00000000 		.word	.LANCHOR2
  58              		.cfi_endproc
  59              	.LFE73:
  61              		.section	.text.CanTp_Init,"ax",%progbits
  62              		.align	1
  63              		.global	CanTp_Init
  64              		.syntax unified
  65              		.thumb
  66              		.thumb_func
  68              	CanTp_Init:
  69              	.LFB70:
  50:Src/cantp.c   **** 	CanIf_setCallback(CanTp_RxIndication);  // è°ƒç”¨ CanIf æ¨¡å—çš„å‡½æ•°ï¼Œè®¾ç½® CanTp æ¨¡å—çš„æ
  70              		.loc 1 50 18 is_stmt 1 view -0
  71              		.cfi_startproc
  72              		@ args = 0, pretend = 0, frame = 0
  73              		@ frame_needed = 0, uses_anonymous_args = 0
  74 0000 08B5     		push	{r3, lr}
  75              	.LCFI0:
  76              		.cfi_def_cfa_offset 8
  77              		.cfi_offset 3, -8
  78              		.cfi_offset 14, -4
  51:Src/cantp.c   **** }
  79              		.loc 1 51 2 view .LVU11
  80 0002 0248     		ldr	r0, .L6
  81 0004 FFF7FEFF 		bl	CanIf_setCallback
  82              	.LVL2:
  52:Src/cantp.c   **** 
  83              		.loc 1 52 1 is_stmt 0 view .LVU12
  84 0008 08BD     		pop	{r3, pc}
  85              	.L7:
  86 000a 00BF     		.align	2
  87              	.L6:
  88 000c 00000000 		.word	CanTp_RxIndication
  89              		.cfi_endproc
  90              	.LFE70:
  92              		.section	.text.CanTp_Transmit,"ax",%progbits
  93              		.align	1
  94              		.global	CanTp_Transmit
  95              		.syntax unified
  96              		.thumb
  97              		.thumb_func
  99              	CanTp_Transmit:
 100              	.LVL3:
ARM GAS  C:\Users\wup15j\AppData\Local\Temp\ccxDxktJ.s 			page 6


 101              	.LFB72:
 175:Src/cantp.c   **** 	GlobalTxPduInfoPtr = PduInfoPtr;  // å°†ä¼ å…¥çš„ PDU ä¿¡æ¯æŒ‡é’ˆä¿å­˜åˆ°å…¨å±€å˜é‡ä¸­ï¼Œä¾¿äº
 102              		.loc 1 175 73 is_stmt 1 view -0
 103              		.cfi_startproc
 104              		@ args = 0, pretend = 0, frame = 0
 105              		@ frame_needed = 0, uses_anonymous_args = 0
 106              		@ link register save eliminated.
 176:Src/cantp.c   **** 	GlobalTxPduId = TxPduId;  // å°†ä¼ å…¥çš„ PDU ID ä¿å­˜åˆ°å…¨å±€å˜é‡ä¸­ã€‚
 107              		.loc 1 176 2 view .LVU14
 176:Src/cantp.c   **** 	GlobalTxPduId = TxPduId;  // å°†ä¼ å…¥çš„ PDU ID ä¿å­˜åˆ°å…¨å±€å˜é‡ä¸­ã€‚
 108              		.loc 1 176 21 is_stmt 0 view .LVU15
 109 0000 044B     		ldr	r3, .L9
 110 0002 1960     		str	r1, [r3]
 177:Src/cantp.c   **** 	CanTp_Tx = 1;  // è®¾ç½®å‘é€æ ‡å¿—ï¼Œè¡¨ç¤ºæœ‰æ•°æ®éœ€è¦å‘é€ã€‚
 111              		.loc 1 177 2 is_stmt 1 view .LVU16
 177:Src/cantp.c   **** 	CanTp_Tx = 1;  // è®¾ç½®å‘é€æ ‡å¿—ï¼Œè¡¨ç¤ºæœ‰æ•°æ®éœ€è¦å‘é€ã€‚
 112              		.loc 1 177 16 is_stmt 0 view .LVU17
 113 0004 044B     		ldr	r3, .L9+4
 114 0006 1860     		str	r0, [r3]
 178:Src/cantp.c   **** 	return E_OK;  // è¿”å›æ ‡å‡†è¿”å›å€¼ï¼Œè¡¨ç¤ºæ“ä½œæˆåŠŸã€‚
 115              		.loc 1 178 2 is_stmt 1 view .LVU18
 178:Src/cantp.c   **** 	return E_OK;  // è¿”å›æ ‡å‡†è¿”å›å€¼ï¼Œè¡¨ç¤ºæ“ä½œæˆåŠŸã€‚
 116              		.loc 1 178 11 is_stmt 0 view .LVU19
 117 0008 044B     		ldr	r3, .L9+8
 118 000a 0122     		movs	r2, #1
 119 000c 1A70     		strb	r2, [r3]
 179:Src/cantp.c   **** }
 120              		.loc 1 179 2 is_stmt 1 view .LVU20
 180:Src/cantp.c   **** 
 121              		.loc 1 180 1 is_stmt 0 view .LVU21
 122 000e 0020     		movs	r0, #0
 123              	.LVL4:
 180:Src/cantp.c   **** 
 124              		.loc 1 180 1 view .LVU22
 125 0010 7047     		bx	lr
 126              	.L10:
 127 0012 00BF     		.align	2
 128              	.L9:
 129 0014 00000000 		.word	.LANCHOR3
 130 0018 00000000 		.word	.LANCHOR4
 131 001c 00000000 		.word	.LANCHOR5
 132              		.cfi_endproc
 133              	.LFE72:
 135              		.section	.text.CanTp_GetFrameType,"ax",%progbits
 136              		.align	1
 137              		.global	CanTp_GetFrameType
 138              		.syntax unified
 139              		.thumb
 140              		.thumb_func
 142              	CanTp_GetFrameType:
 143              	.LVL5:
 144              	.LFB74:
 188:Src/cantp.c   **** 
 189:Src/cantp.c   **** Frame_Type CanTp_GetFrameType(uint8_t PCI){
 145              		.loc 1 189 43 is_stmt 1 view -0
 146              		.cfi_startproc
 147              		@ args = 0, pretend = 0, frame = 0
ARM GAS  C:\Users\wup15j\AppData\Local\Temp\ccxDxktJ.s 			page 7


 148              		@ frame_needed = 0, uses_anonymous_args = 0
 149              		@ link register save eliminated.
 150              		.loc 1 189 43 is_stmt 0 view .LVU24
 151 0000 0346     		mov	r3, r0
 190:Src/cantp.c   **** 	PCI >>= 4;  // å°† PCI å­—èŠ‚å³ç§» 4 ä½ï¼Œæå–å¸§ç±»å‹ä¿¡æ¯ï¼ˆå³ PCI çš„é«˜ 4 ä½ï¼‰ã€‚
 152              		.loc 1 190 2 is_stmt 1 view .LVU25
 153              		.loc 1 190 6 is_stmt 0 view .LVU26
 154 0002 0009     		lsrs	r0, r0, #4
 155              	.LVL6:
 191:Src/cantp.c   **** 	if(PCI < 4){  // å¦‚æœ PCI çš„å€¼å°äº 4ï¼Œè¡¨ç¤ºè¿™æ˜¯ä¸€ä¸ªæœ‰æ•ˆçš„å¸§ç±»å‹ã€‚
 156              		.loc 1 191 2 is_stmt 1 view .LVU27
 157              		.loc 1 191 4 is_stmt 0 view .LVU28
 158 0004 3F2B     		cmp	r3, #63
 159 0006 00D8     		bhi	.L14
 160              	.LVL7:
 161              	.L12:
 192:Src/cantp.c   **** 		return (Frame_Type) PCI;  // è¿”å›ç›¸åº”çš„å¸§ç±»å‹æšä¸¾å€¼ã€‚
 193:Src/cantp.c   **** 	}
 194:Src/cantp.c   **** 	else{
 195:Src/cantp.c   **** 		return None;  // å¦åˆ™ï¼Œè¿”å› `None`ï¼Œè¡¨ç¤ºæ— æ•ˆçš„å¸§ç±»å‹ã€‚
 196:Src/cantp.c   **** 	}
 197:Src/cantp.c   **** }
 162              		.loc 1 197 1 view .LVU29
 163 0008 7047     		bx	lr
 164              	.LVL8:
 165              	.L14:
 195:Src/cantp.c   **** 	}
 166              		.loc 1 195 10 view .LVU30
 167 000a 0420     		movs	r0, #4
 168              	.LVL9:
 195:Src/cantp.c   **** 	}
 169              		.loc 1 195 10 view .LVU31
 170 000c FCE7     		b	.L12
 171              		.cfi_endproc
 172              	.LFE74:
 174              		.section	.text.CanTp_setCallback,"ax",%progbits
 175              		.align	1
 176              		.global	CanTp_setCallback
 177              		.syntax unified
 178              		.thumb
 179              		.thumb_func
 181              	CanTp_setCallback:
 182              	.LVL10:
 183              	.LFB75:
 198:Src/cantp.c   **** 
 199:Src/cantp.c   **** void CanTp_setCallback(void (*PTF)(uint32_t TxPduId, PduInfoType* PduInfoPtr)){
 184              		.loc 1 199 79 is_stmt 1 view -0
 185              		.cfi_startproc
 186              		@ args = 0, pretend = 0, frame = 0
 187              		@ frame_needed = 0, uses_anonymous_args = 0
 188              		@ link register save eliminated.
 200:Src/cantp.c   **** 	if(PTF != NULL){  // å¦‚æœä¼ å…¥çš„å‡½æ•°æŒ‡é’ˆéç©ºã€‚
 189              		.loc 1 200 2 view .LVU33
 190              		.loc 1 200 4 is_stmt 0 view .LVU34
 191 0000 08B1     		cbz	r0, .L15
 201:Src/cantp.c   **** 		App_Callback = PTF;  // å°†å…¶ä¿å­˜åˆ°å…¨å±€å˜é‡ `App_Callback` ä¸­ï¼Œä¾¿äºåœ¨æ¥æ”¶æ•°æ®æ—¶
 192              		.loc 1 201 3 is_stmt 1 view .LVU35
ARM GAS  C:\Users\wup15j\AppData\Local\Temp\ccxDxktJ.s 			page 8


 193              		.loc 1 201 16 is_stmt 0 view .LVU36
 194 0002 014A     		ldr	r2, .L17
 195 0004 1060     		str	r0, [r2]
 196              	.L15:
 202:Src/cantp.c   **** 	}
 203:Src/cantp.c   **** }
 197              		.loc 1 203 1 view .LVU37
 198 0006 7047     		bx	lr
 199              	.L18:
 200              		.align	2
 201              	.L17:
 202 0008 00000000 		.word	.LANCHOR6
 203              		.cfi_endproc
 204              	.LFE75:
 206              		.section	.text.CanTp_encodeSingleFrame,"ax",%progbits
 207              		.align	1
 208              		.global	CanTp_encodeSingleFrame
 209              		.syntax unified
 210              		.thumb
 211              		.thumb_func
 213              	CanTp_encodeSingleFrame:
 214              	.LVL11:
 215              	.LFB76:
 204:Src/cantp.c   **** 
 205:Src/cantp.c   **** void CanTp_encodeSingleFrame(uint32_t TxPduId, PduInfoType* PduInfoPtr){
 216              		.loc 1 205 72 is_stmt 1 view -0
 217              		.cfi_startproc
 218              		@ args = 0, pretend = 0, frame = 0
 219              		@ frame_needed = 0, uses_anonymous_args = 0
 220              		.loc 1 205 72 is_stmt 0 view .LVU39
 221 0000 38B5     		push	{r3, r4, r5, lr}
 222              	.LCFI1:
 223              		.cfi_def_cfa_offset 16
 224              		.cfi_offset 3, -16
 225              		.cfi_offset 4, -12
 226              		.cfi_offset 5, -8
 227              		.cfi_offset 14, -4
 206:Src/cantp.c   ****     // è·å–éœ€è¦å‘é€çš„æ•°æ®çš„é•¿åº¦
 207:Src/cantp.c   ****     uint32_t dataLength = PduInfoPtr->Length;
 228              		.loc 1 207 5 is_stmt 1 view .LVU40
 229              		.loc 1 207 14 is_stmt 0 view .LVU41
 230 0002 01F58053 		add	r3, r1, #4096
 231 0006 1B68     		ldr	r3, [r3]
 232              	.LVL12:
 208:Src/cantp.c   ****     // å°†è¦å‘é€çš„æ•°æ®é•¿åº¦ä¿å­˜åœ¨å…¨å±€çš„ç¼–ç ä¿¡æ¯ç»“æ„ä½“ä¸­
 209:Src/cantp.c   ****     EncodedPduInfo.Length = PduInfoPtr->Length;
 233              		.loc 1 209 5 is_stmt 1 view .LVU42
 234              		.loc 1 209 27 is_stmt 0 view .LVU43
 235 0008 104C     		ldr	r4, .L25
 236 000a A360     		str	r3, [r4, #8]
 210:Src/cantp.c   ****     // æ›´æ–°å‰©ä½™è¦å‘é€çš„å­—èŠ‚æ•°
 211:Src/cantp.c   ****     numberOfRemainingBytesToSend -= dataLength;
 237              		.loc 1 211 5 is_stmt 1 view .LVU44
 238              		.loc 1 211 34 is_stmt 0 view .LVU45
 239 000c 104D     		ldr	r5, .L25+4
 240 000e 2A68     		ldr	r2, [r5]
 241 0010 D21A     		subs	r2, r2, r3
ARM GAS  C:\Users\wup15j\AppData\Local\Temp\ccxDxktJ.s 			page 9


 242 0012 2A60     		str	r2, [r5]
 212:Src/cantp.c   **** 
 213:Src/cantp.c   ****     // è®¾ç½® CAN å¸§çš„ç¬¬ä¸€ä¸ªå­—èŠ‚ä¸º PCIï¼ˆåè®®æ§åˆ¶ä¿¡æ¯ï¼‰ï¼Œå…¶ä½ 4 ä½ä¸ºæ•°æ®é•¿åº
 214:Src/cantp.c   ****     EncodedPduInfo.Data[0] = 0x00 | (dataLength & 0x0F);
 243              		.loc 1 214 5 is_stmt 1 view .LVU46
 244              		.loc 1 214 35 is_stmt 0 view .LVU47
 245 0014 03F00F02 		and	r2, r3, #15
 246              		.loc 1 214 28 view .LVU48
 247 0018 2270     		strb	r2, [r4]
 215:Src/cantp.c   **** 
 216:Src/cantp.c   ****     // åˆå§‹åŒ–ä¸€ä¸ªå¾ªç¯è®¡æ•°å˜é‡ i
 217:Src/cantp.c   ****     uint32_t i;
 248              		.loc 1 217 5 is_stmt 1 view .LVU49
 218:Src/cantp.c   ****     // å°†æ•°æ®ä» PduInfoPtr å¤åˆ¶åˆ° CAN å¸§ï¼Œä»ç¬¬äºŒä¸ªå­—èŠ‚ï¼ˆç´¢å¼•ä¸º 1ï¼‰å¼€å§‹
 219:Src/cantp.c   ****     for (i = 0; i < dataLength; i++) {
 249              		.loc 1 219 5 view .LVU50
 250              	.LVL13:
 251              		.loc 1 219 12 is_stmt 0 view .LVU51
 252 001a 0022     		movs	r2, #0
 253              		.loc 1 219 5 view .LVU52
 254 001c 07E0     		b	.L20
 255              	.LVL14:
 256              	.L21:
 220:Src/cantp.c   ****         EncodedPduInfo.Data[i + 1] = PduInfoPtr->Data[i];
 257              		.loc 1 220 9 is_stmt 1 discriminator 3 view .LVU53
 258              		.loc 1 220 31 is_stmt 0 discriminator 3 view .LVU54
 259 001e 02F1010C 		add	ip, r2, #1
 260              		.loc 1 220 54 discriminator 3 view .LVU55
 261 0022 11F802E0 		ldrb	lr, [r1, r2]	@ zero_extendqisi2
 262              		.loc 1 220 36 discriminator 3 view .LVU56
 263 0026 094A     		ldr	r2, .L25
 264              	.LVL15:
 265              		.loc 1 220 36 discriminator 3 view .LVU57
 266 0028 02F80CE0 		strb	lr, [r2, ip]
 219:Src/cantp.c   ****         EncodedPduInfo.Data[i + 1] = PduInfoPtr->Data[i];
 267              		.loc 1 219 33 is_stmt 1 discriminator 3 view .LVU58
 268              	.LVL16:
 219:Src/cantp.c   ****         EncodedPduInfo.Data[i + 1] = PduInfoPtr->Data[i];
 269              		.loc 1 219 34 is_stmt 0 discriminator 3 view .LVU59
 270 002c 6246     		mov	r2, ip
 271              	.LVL17:
 272              	.L20:
 219:Src/cantp.c   ****         EncodedPduInfo.Data[i + 1] = PduInfoPtr->Data[i];
 273              		.loc 1 219 17 is_stmt 1 discriminator 1 view .LVU60
 219:Src/cantp.c   ****         EncodedPduInfo.Data[i + 1] = PduInfoPtr->Data[i];
 274              		.loc 1 219 5 is_stmt 0 discriminator 1 view .LVU61
 275 002e 9A42     		cmp	r2, r3
 276 0030 F5D3     		bcc	.L21
 221:Src/cantp.c   ****     }
 222:Src/cantp.c   **** 
 223:Src/cantp.c   ****     // å¦‚æœæ•°æ®æœªå¡«æ»¡æ•´ä¸ª CAN å¸§ï¼Œå°†å‰©ä½™çš„å­—èŠ‚å¡«å……ä¸ºé›¶
 224:Src/cantp.c   ****     for (i = dataLength + 1; i < CAN_FRAME_LENGTH; i++) {
 277              		.loc 1 224 5 is_stmt 1 view .LVU62
 278              		.loc 1 224 12 is_stmt 0 view .LVU63
 279 0032 0133     		adds	r3, r3, #1
 280              	.LVL18:
 281              		.loc 1 224 5 view .LVU64
ARM GAS  C:\Users\wup15j\AppData\Local\Temp\ccxDxktJ.s 			page 10


 282 0034 03E0     		b	.L22
 283              	.LVL19:
 284              	.L23:
 225:Src/cantp.c   ****         EncodedPduInfo.Data[i] = 0;
 285              		.loc 1 225 9 is_stmt 1 discriminator 3 view .LVU65
 286              		.loc 1 225 32 is_stmt 0 discriminator 3 view .LVU66
 287 0036 054A     		ldr	r2, .L25
 288 0038 0021     		movs	r1, #0
 289 003a D154     		strb	r1, [r2, r3]
 224:Src/cantp.c   ****         EncodedPduInfo.Data[i] = 0;
 290              		.loc 1 224 52 is_stmt 1 discriminator 3 view .LVU67
 224:Src/cantp.c   ****         EncodedPduInfo.Data[i] = 0;
 291              		.loc 1 224 53 is_stmt 0 discriminator 3 view .LVU68
 292 003c 0133     		adds	r3, r3, #1
 293              	.LVL20:
 294              	.L22:
 224:Src/cantp.c   ****         EncodedPduInfo.Data[i] = 0;
 295              		.loc 1 224 30 is_stmt 1 discriminator 1 view .LVU69
 224:Src/cantp.c   ****         EncodedPduInfo.Data[i] = 0;
 296              		.loc 1 224 5 is_stmt 0 discriminator 1 view .LVU70
 297 003e 072B     		cmp	r3, #7
 298 0040 F9D9     		bls	.L23
 226:Src/cantp.c   ****     }
 227:Src/cantp.c   **** 
 228:Src/cantp.c   ****     // è°ƒç”¨ CanIf_Transmit å‡½æ•°å‘é€ç¼–ç åçš„ CAN å¸§
 229:Src/cantp.c   ****     CanIf_Transmit(TxPduId, &EncodedPduInfo);
 299              		.loc 1 229 5 is_stmt 1 view .LVU71
 300 0042 0249     		ldr	r1, .L25
 301 0044 FFF7FEFF 		bl	CanIf_Transmit
 302              	.LVL21:
 230:Src/cantp.c   **** }
 303              		.loc 1 230 1 is_stmt 0 view .LVU72
 304 0048 38BD     		pop	{r3, r4, r5, pc}
 305              	.L26:
 306 004a 00BF     		.align	2
 307              	.L25:
 308 004c 00000000 		.word	.LANCHOR7
 309 0050 00000000 		.word	.LANCHOR8
 310              		.cfi_endproc
 311              	.LFE76:
 313              		.section	.text.CanTp_encodeFirstFrame,"ax",%progbits
 314              		.align	1
 315              		.global	CanTp_encodeFirstFrame
 316              		.syntax unified
 317              		.thumb
 318              		.thumb_func
 320              	CanTp_encodeFirstFrame:
 321              	.LVL22:
 322              	.LFB77:
 231:Src/cantp.c   **** 
 232:Src/cantp.c   **** void CanTp_encodeFirstFrame(uint32_t TxPduId, PduInfoType* PduInfoPtr){
 323              		.loc 1 232 71 is_stmt 1 view -0
 324              		.cfi_startproc
 325              		@ args = 0, pretend = 0, frame = 16
 326              		@ frame_needed = 0, uses_anonymous_args = 0
 327              		.loc 1 232 71 is_stmt 0 view .LVU74
 328 0000 10B5     		push	{r4, lr}
ARM GAS  C:\Users\wup15j\AppData\Local\Temp\ccxDxktJ.s 			page 11


 329              	.LCFI2:
 330              		.cfi_def_cfa_offset 8
 331              		.cfi_offset 4, -8
 332              		.cfi_offset 14, -4
 333 0002 84B0     		sub	sp, sp, #16
 334              	.LCFI3:
 335              		.cfi_def_cfa_offset 24
 233:Src/cantp.c   ****     // å®šä¹‰ä¸€ä¸ªå¾ªç¯è®¡æ•°å˜é‡ Counter
 234:Src/cantp.c   ****     uint8_t Counter = 0;
 336              		.loc 1 234 5 is_stmt 1 view .LVU75
 337              	.LVL23:
 235:Src/cantp.c   ****     // å®šä¹‰ä¸€ä¸ªå±€éƒ¨å˜é‡ EncodedPduInfo æ¥å­˜å‚¨ç¼–ç åçš„ PDU ä¿¡æ¯
 236:Src/cantp.c   ****     PduInfoTRx EncodedPduInfo;
 338              		.loc 1 236 5 view .LVU76
 237:Src/cantp.c   **** 
 238:Src/cantp.c   ****     // è®¾ç½® CAN å¸§çš„ç¬¬ä¸€ä¸ªå­—èŠ‚ä¸ºå¸§ç±»å‹ï¼ˆé¦–å¸§ï¼‰ï¼Œå¹¶ä¸”å°†æ•°æ®é•¿åº¦çš„é«˜ 4 ä½
 239:Src/cantp.c   ****     EncodedPduInfo.Data[0] = (0x01 << 4) | ((PduInfoPtr->Length) >> 8 & 0x0F);
 339              		.loc 1 239 5 view .LVU77
 340              		.loc 1 239 56 is_stmt 0 view .LVU78
 341 0004 01F58053 		add	r3, r1, #4096
 342 0008 1C68     		ldr	r4, [r3]
 343              		.loc 1 239 71 view .LVU79
 344 000a C4F30323 		ubfx	r3, r4, #8, #4
 345              		.loc 1 239 42 view .LVU80
 346 000e 43F01003 		orr	r3, r3, #16
 347              		.loc 1 239 28 view .LVU81
 348 0012 8DF80430 		strb	r3, [sp, #4]
 240:Src/cantp.c   ****     // è®¾ç½® CAN å¸§çš„ç¬¬äºŒä¸ªå­—èŠ‚ä¸ºæ•°æ®é•¿åº¦çš„ä½ 8 ä½
 241:Src/cantp.c   ****     EncodedPduInfo.Data[1] = (PduInfoPtr->Length) & 0xFF;
 349              		.loc 1 241 5 is_stmt 1 view .LVU82
 350              		.loc 1 241 28 is_stmt 0 view .LVU83
 351 0016 8DF80540 		strb	r4, [sp, #5]
 242:Src/cantp.c   **** 
 243:Src/cantp.c   ****     // å°†æ•°æ®ä» PduInfoPtr å¤åˆ¶åˆ° CAN å¸§ï¼Œä»ç¬¬ä¸‰ä¸ªå­—èŠ‚ï¼ˆç´¢å¼•ä¸º 2ï¼‰å¼€å§‹
 244:Src/cantp.c   ****     for (Counter = 2; Counter < 8; Counter++) {
 352              		.loc 1 244 5 is_stmt 1 view .LVU84
 353              	.LVL24:
 354              		.loc 1 244 18 is_stmt 0 view .LVU85
 355 001a 0223     		movs	r3, #2
 356              		.loc 1 244 5 view .LVU86
 357 001c 09E0     		b	.L28
 358              	.LVL25:
 359              	.L29:
 245:Src/cantp.c   ****         EncodedPduInfo.Data[Counter] = PduInfoPtr->Data[Counter - 2];
 360              		.loc 1 245 9 is_stmt 1 discriminator 3 view .LVU87
 361              		.loc 1 245 65 is_stmt 0 discriminator 3 view .LVU88
 362 001e 9A1E     		subs	r2, r3, #2
 363              		.loc 1 245 56 discriminator 3 view .LVU89
 364 0020 11F802C0 		ldrb	ip, [r1, r2]	@ zero_extendqisi2
 365              		.loc 1 245 38 discriminator 3 view .LVU90
 366 0024 03F11002 		add	r2, r3, #16
 367 0028 6A44     		add	r2, sp, r2
 368 002a 02F80CCC 		strb	ip, [r2, #-12]
 244:Src/cantp.c   ****         EncodedPduInfo.Data[Counter] = PduInfoPtr->Data[Counter - 2];
 369              		.loc 1 244 36 is_stmt 1 discriminator 3 view .LVU91
 244:Src/cantp.c   ****         EncodedPduInfo.Data[Counter] = PduInfoPtr->Data[Counter - 2];
 370              		.loc 1 244 43 is_stmt 0 discriminator 3 view .LVU92
ARM GAS  C:\Users\wup15j\AppData\Local\Temp\ccxDxktJ.s 			page 12


 371 002e 0133     		adds	r3, r3, #1
 372              	.LVL26:
 244:Src/cantp.c   ****         EncodedPduInfo.Data[Counter] = PduInfoPtr->Data[Counter - 2];
 373              		.loc 1 244 43 discriminator 3 view .LVU93
 374 0030 DBB2     		uxtb	r3, r3
 375              	.LVL27:
 376              	.L28:
 244:Src/cantp.c   ****         EncodedPduInfo.Data[Counter] = PduInfoPtr->Data[Counter - 2];
 377              		.loc 1 244 23 is_stmt 1 discriminator 1 view .LVU94
 244:Src/cantp.c   ****         EncodedPduInfo.Data[Counter] = PduInfoPtr->Data[Counter - 2];
 378              		.loc 1 244 5 is_stmt 0 discriminator 1 view .LVU95
 379 0032 072B     		cmp	r3, #7
 380 0034 F3D9     		bls	.L29
 246:Src/cantp.c   ****     }
 247:Src/cantp.c   **** 
 248:Src/cantp.c   ****     // æ›´æ–°å‰©ä½™éœ€è¦å‘é€çš„å­—èŠ‚æ•°ï¼ˆæ€»é•¿åº¦å‡å»é¦–å¸§ä¸­å·²å‘é€çš„ 6 ä¸ªå­—èŠ‚ï¼‰
 249:Src/cantp.c   ****     numberOfRemainingBytesToSend = (PduInfoPtr->Length - 6);
 381              		.loc 1 249 5 is_stmt 1 view .LVU96
 382              		.loc 1 249 56 is_stmt 0 view .LVU97
 383 0036 063C     		subs	r4, r4, #6
 384              		.loc 1 249 34 view .LVU98
 385 0038 034B     		ldr	r3, .L31
 386              	.LVL28:
 387              		.loc 1 249 34 view .LVU99
 388 003a 1C60     		str	r4, [r3]
 250:Src/cantp.c   ****     // è°ƒç”¨ CanIf_Transmit å‡½æ•°å‘é€ç¼–ç åçš„ CAN å¸§
 251:Src/cantp.c   ****     CanIf_Transmit(TxPduId, &EncodedPduInfo);
 389              		.loc 1 251 5 is_stmt 1 view .LVU100
 390 003c 01A9     		add	r1, sp, #4
 391              	.LVL29:
 392              		.loc 1 251 5 is_stmt 0 view .LVU101
 393 003e FFF7FEFF 		bl	CanIf_Transmit
 394              	.LVL30:
 252:Src/cantp.c   **** }
 395              		.loc 1 252 1 view .LVU102
 396 0042 04B0     		add	sp, sp, #16
 397              	.LCFI4:
 398              		.cfi_def_cfa_offset 8
 399              		@ sp needed
 400 0044 10BD     		pop	{r4, pc}
 401              	.L32:
 402 0046 00BF     		.align	2
 403              	.L31:
 404 0048 00000000 		.word	.LANCHOR8
 405              		.cfi_endproc
 406              	.LFE77:
 408              		.section	.text.CanTp_encodeConsecutiveFrame,"ax",%progbits
 409              		.align	1
 410              		.global	CanTp_encodeConsecutiveFrame
 411              		.syntax unified
 412              		.thumb
 413              		.thumb_func
 415              	CanTp_encodeConsecutiveFrame:
 416              	.LVL31:
 417              	.LFB78:
 253:Src/cantp.c   **** 
 254:Src/cantp.c   **** void CanTp_encodeConsecutiveFrame(uint32_t TxPduId, PduInfoType* PduInfoPtr){
ARM GAS  C:\Users\wup15j\AppData\Local\Temp\ccxDxktJ.s 			page 13


 418              		.loc 1 254 77 is_stmt 1 view -0
 419              		.cfi_startproc
 420              		@ args = 0, pretend = 0, frame = 0
 421              		@ frame_needed = 0, uses_anonymous_args = 0
 422              		.loc 1 254 77 is_stmt 0 view .LVU104
 423 0000 38B5     		push	{r3, r4, r5, lr}
 424              	.LCFI5:
 425              		.cfi_def_cfa_offset 16
 426              		.cfi_offset 3, -16
 427              		.cfi_offset 4, -12
 428              		.cfi_offset 5, -8
 429              		.cfi_offset 14, -4
 255:Src/cantp.c   ****     // å®šä¹‰ä¸€ä¸ªå¾ªç¯è®¡æ•°å˜é‡ i
 256:Src/cantp.c   ****     uint8_t i = 0;
 430              		.loc 1 256 5 is_stmt 1 view .LVU105
 431              	.LVL32:
 257:Src/cantp.c   ****     // æ ¹æ®å‰©ä½™å­—èŠ‚æ•°è®¾ç½®å½“å‰å¸§çš„é•¿åº¦ï¼Œå¦‚æœå‰©ä½™å­—èŠ‚æ•°å¤§äº 7ï¼Œåˆ™æœ¬å¸§ä¼ 
 258:Src/cantp.c   ****     EncodedPduInfo.Length = numberOfRemainingBytesToSend > 7 ? 7 : numberOfRemainingBytesToSend;
 432              		.loc 1 258 5 view .LVU106
 433              		.loc 1 258 58 is_stmt 0 view .LVU107
 434 0002 1E4B     		ldr	r3, .L40
 435 0004 1B68     		ldr	r3, [r3]
 436              		.loc 1 258 66 view .LVU108
 437 0006 072B     		cmp	r3, #7
 438 0008 12D8     		bhi	.L38
 439              		.loc 1 258 66 discriminator 1 view .LVU109
 440 000a 1C4B     		ldr	r3, .L40
 441 000c 1C68     		ldr	r4, [r3]
 442              	.L34:
 443              		.loc 1 258 27 discriminator 4 view .LVU110
 444 000e 1C4D     		ldr	r5, .L40+4
 445 0010 AC60     		str	r4, [r5, #8]
 259:Src/cantp.c   ****     // è®¾ç½® CAN å¸§çš„ç¬¬ä¸€ä¸ªå­—èŠ‚ä¸ºå¸§ç±»å‹ï¼ˆè¿ç»­å¸§ï¼‰ï¼Œå¹¶å°†å¸§åºå·ç¼–ç è¿›å»
 260:Src/cantp.c   ****     EncodedPduInfo.Data[0] = (0x02 << 4) | ConsecSN;
 446              		.loc 1 260 5 is_stmt 1 discriminator 4 view .LVU111
 447              		.loc 1 260 28 is_stmt 0 discriminator 4 view .LVU112
 448 0012 1C4A     		ldr	r2, .L40+8
 449 0014 1378     		ldrb	r3, [r2]	@ zero_extendqisi2
 450 0016 43F02003 		orr	r3, r3, #32
 451 001a 2B70     		strb	r3, [r5]
 261:Src/cantp.c   **** 
 262:Src/cantp.c   ****     // è®¡ç®—å½“å‰æ•°æ®çš„åç§»é‡ï¼Œå³ä»å“ªé‡Œå¼€å§‹è¯»å–æ•°æ®
 263:Src/cantp.c   ****     currentOffset = startOffset + ConsecSN * 7;
 452              		.loc 1 263 5 is_stmt 1 discriminator 4 view .LVU113
 453              		.loc 1 263 44 is_stmt 0 discriminator 4 view .LVU114
 454 001c 1378     		ldrb	r3, [r2]	@ zero_extendqisi2
 455 001e C3EBC303 		rsb	r3, r3, r3, lsl #3
 456              		.loc 1 263 33 discriminator 4 view .LVU115
 457 0022 194A     		ldr	r2, .L40+12
 458 0024 1268     		ldr	r2, [r2]
 459 0026 1344     		add	r3, r3, r2
 460              		.loc 1 263 19 discriminator 4 view .LVU116
 461 0028 184A     		ldr	r2, .L40+16
 462 002a 1360     		str	r3, [r2]
 264:Src/cantp.c   **** 
 265:Src/cantp.c   ****     // å°†æ•°æ®ä» PduInfoPtr å¤åˆ¶åˆ° CAN å¸§ï¼Œä»ç¬¬äºŒä¸ªå­—èŠ‚ï¼ˆç´¢å¼•ä¸º 1ï¼‰å¼€å§‹
 266:Src/cantp.c   ****     for (i = 0; i < EncodedPduInfo.Length; i++) {
ARM GAS  C:\Users\wup15j\AppData\Local\Temp\ccxDxktJ.s 			page 14


 463              		.loc 1 266 5 is_stmt 1 discriminator 4 view .LVU117
 464              		.loc 1 266 12 is_stmt 0 discriminator 4 view .LVU118
 465 002c 0023     		movs	r3, #0
 466              		.loc 1 266 5 discriminator 4 view .LVU119
 467 002e 0BE0     		b	.L35
 468              	.L38:
 258:Src/cantp.c   ****     // è®¾ç½® CAN å¸§çš„ç¬¬ä¸€ä¸ªå­—èŠ‚ä¸ºå¸§ç±»å‹ï¼ˆè¿ç»­å¸§ï¼‰ï¼Œå¹¶å°†å¸§åºå·ç¼–ç è¿›å»
 469              		.loc 1 258 66 view .LVU120
 470 0030 0724     		movs	r4, #7
 471 0032 ECE7     		b	.L34
 472              	.LVL33:
 473              	.L36:
 267:Src/cantp.c   ****         EncodedPduInfo.Data[i + 1] = PduInfoPtr->Data[i + currentOffset];
 474              		.loc 1 267 9 is_stmt 1 discriminator 3 view .LVU121
 475              		.loc 1 267 57 is_stmt 0 discriminator 3 view .LVU122
 476 0034 154A     		ldr	r2, .L40+16
 477 0036 1268     		ldr	r2, [r2]
 478 0038 1A44     		add	r2, r2, r3
 479              		.loc 1 267 31 discriminator 3 view .LVU123
 480 003a 0133     		adds	r3, r3, #1
 481              	.LVL34:
 482              		.loc 1 267 54 discriminator 3 view .LVU124
 483 003c 11F802C0 		ldrb	ip, [r1, r2]	@ zero_extendqisi2
 484              		.loc 1 267 36 discriminator 3 view .LVU125
 485 0040 0F4A     		ldr	r2, .L40+4
 486 0042 02F803C0 		strb	ip, [r2, r3]
 266:Src/cantp.c   ****         EncodedPduInfo.Data[i + 1] = PduInfoPtr->Data[i + currentOffset];
 487              		.loc 1 266 44 is_stmt 1 discriminator 3 view .LVU126
 266:Src/cantp.c   ****         EncodedPduInfo.Data[i + 1] = PduInfoPtr->Data[i + currentOffset];
 488              		.loc 1 266 45 is_stmt 0 discriminator 3 view .LVU127
 489 0046 DBB2     		uxtb	r3, r3
 490              	.LVL35:
 491              	.L35:
 266:Src/cantp.c   ****         EncodedPduInfo.Data[i + 1] = PduInfoPtr->Data[i + currentOffset];
 492              		.loc 1 266 17 is_stmt 1 discriminator 1 view .LVU128
 266:Src/cantp.c   ****         EncodedPduInfo.Data[i + 1] = PduInfoPtr->Data[i + currentOffset];
 493              		.loc 1 266 5 is_stmt 0 discriminator 1 view .LVU129
 494 0048 A342     		cmp	r3, r4
 495 004a F3D3     		bcc	.L36
 268:Src/cantp.c   ****     }
 269:Src/cantp.c   **** 
 270:Src/cantp.c   ****     // å¢åŠ å¸§åºå·ï¼Œå¦‚æœåºå·è¶…è¿‡ 0xFï¼ˆå³ 15ï¼‰ï¼Œåˆ™é‡ç½®ä¸º 0 å¹¶æ›´æ–°èµ·å§‹åç§»é
 271:Src/cantp.c   ****     ConsecSN++;
 496              		.loc 1 271 5 is_stmt 1 view .LVU130
 497              		.loc 1 271 13 is_stmt 0 view .LVU131
 498 004c 0D4A     		ldr	r2, .L40+8
 499 004e 1378     		ldrb	r3, [r2]	@ zero_extendqisi2
 500              	.LVL36:
 501              		.loc 1 271 13 view .LVU132
 502 0050 0133     		adds	r3, r3, #1
 503 0052 DBB2     		uxtb	r3, r3
 504 0054 1370     		strb	r3, [r2]
 272:Src/cantp.c   ****     if (ConsecSN > 0xF) {
 505              		.loc 1 272 5 is_stmt 1 view .LVU133
 506              		.loc 1 272 18 is_stmt 0 view .LVU134
 507 0056 1378     		ldrb	r3, [r2]	@ zero_extendqisi2
 508 0058 DBB2     		uxtb	r3, r3
ARM GAS  C:\Users\wup15j\AppData\Local\Temp\ccxDxktJ.s 			page 15


 509              		.loc 1 272 8 view .LVU135
 510 005a 0F2B     		cmp	r3, #15
 511 005c 06D9     		bls	.L37
 273:Src/cantp.c   ****         startOffset = currentOffset;
 512              		.loc 1 273 9 is_stmt 1 view .LVU136
 513              		.loc 1 273 21 is_stmt 0 view .LVU137
 514 005e 0B4B     		ldr	r3, .L40+16
 515 0060 1A68     		ldr	r2, [r3]
 516 0062 094B     		ldr	r3, .L40+12
 517 0064 1A60     		str	r2, [r3]
 274:Src/cantp.c   ****         ConsecSN = 0;
 518              		.loc 1 274 9 is_stmt 1 view .LVU138
 519              		.loc 1 274 18 is_stmt 0 view .LVU139
 520 0066 074B     		ldr	r3, .L40+8
 521 0068 0022     		movs	r2, #0
 522 006a 1A70     		strb	r2, [r3]
 523              	.L37:
 275:Src/cantp.c   ****     }
 276:Src/cantp.c   **** 
 277:Src/cantp.c   ****     // æ›´æ–°å‰©ä½™éœ€è¦å‘é€çš„å­—èŠ‚æ•°
 278:Src/cantp.c   ****     numberOfRemainingBytesToSend -= EncodedPduInfo.Length;
 524              		.loc 1 278 5 is_stmt 1 view .LVU140
 525              		.loc 1 278 34 is_stmt 0 view .LVU141
 526 006c 034A     		ldr	r2, .L40
 527 006e 1368     		ldr	r3, [r2]
 528 0070 1C1B     		subs	r4, r3, r4
 529 0072 1460     		str	r4, [r2]
 279:Src/cantp.c   ****     // è°ƒç”¨ CanIf_Transmit å‡½æ•°å‘é€ç¼–ç åçš„ CAN å¸§
 280:Src/cantp.c   ****     CanIf_Transmit(TxPduId, &EncodedPduInfo);
 530              		.loc 1 280 5 is_stmt 1 view .LVU142
 531 0074 0249     		ldr	r1, .L40+4
 532              	.LVL37:
 533              		.loc 1 280 5 is_stmt 0 view .LVU143
 534 0076 FFF7FEFF 		bl	CanIf_Transmit
 535              	.LVL38:
 281:Src/cantp.c   **** }
 536              		.loc 1 281 1 view .LVU144
 537 007a 38BD     		pop	{r3, r4, r5, pc}
 538              	.L41:
 539              		.align	2
 540              	.L40:
 541 007c 00000000 		.word	.LANCHOR8
 542 0080 00000000 		.word	.LANCHOR7
 543 0084 00000000 		.word	.LANCHOR9
 544 0088 00000000 		.word	.LANCHOR10
 545 008c 00000000 		.word	.LANCHOR11
 546              		.cfi_endproc
 547              	.LFE78:
 549              		.section	.text.CanTp_encodeFlowControlFrame,"ax",%progbits
 550              		.align	1
 551              		.global	CanTp_encodeFlowControlFrame
 552              		.syntax unified
 553              		.thumb
 554              		.thumb_func
 556              	CanTp_encodeFlowControlFrame:
 557              	.LVL39:
 558              	.LFB79:
ARM GAS  C:\Users\wup15j\AppData\Local\Temp\ccxDxktJ.s 			page 16


 282:Src/cantp.c   **** 
 283:Src/cantp.c   **** void CanTp_encodeFlowControlFrame(uint32_t TxPduId, PduInfoType* PduInfoPtr){
 559              		.loc 1 283 77 is_stmt 1 view -0
 560              		.cfi_startproc
 561              		@ args = 0, pretend = 0, frame = 0
 562              		@ frame_needed = 0, uses_anonymous_args = 0
 563              		.loc 1 283 77 is_stmt 0 view .LVU146
 564 0000 08B5     		push	{r3, lr}
 565              	.LCFI6:
 566              		.cfi_def_cfa_offset 8
 567              		.cfi_offset 3, -8
 568              		.cfi_offset 14, -4
 284:Src/cantp.c   ****     // è®¾ç½®æµæ§åˆ¶å¸§çš„ç¬¬ä¸€ä¸ªå­—èŠ‚ï¼Œæµæ§çŠ¶æ€ä¸ºç»§ç»­å‘é€ï¼ˆCTSï¼‰
 285:Src/cantp.c   ****     EncodedPduInfo.Data[0] = 0x30;
 569              		.loc 1 285 5 is_stmt 1 view .LVU147
 570              		.loc 1 285 28 is_stmt 0 view .LVU148
 571 0002 0D4B     		ldr	r3, .L46
 572 0004 3022     		movs	r2, #48
 573 0006 1A70     		strb	r2, [r3]
 286:Src/cantp.c   ****     // è®¾ç½®æµæ§åˆ¶å¸§çš„ç¬¬äºŒä¸ªå­—èŠ‚ä¸ºå—å¤§å°ï¼Œå³å¯ç”¨ç¼“å†²åŒºçš„æ•°é‡
 287:Src/cantp.c   ****     EncodedPduInfo.Data[1] = availableBuffers;
 574              		.loc 1 287 5 is_stmt 1 view .LVU149
 575              		.loc 1 287 28 is_stmt 0 view .LVU150
 576 0008 0C4A     		ldr	r2, .L46+4
 577 000a 1168     		ldr	r1, [r2]
 578              	.LVL40:
 579              		.loc 1 287 28 view .LVU151
 580 000c 5970     		strb	r1, [r3, #1]
 288:Src/cantp.c   ****     // è®¾ç½®æµæ§åˆ¶å¸§çš„ç¬¬ä¸‰ä¸ªå­—èŠ‚ä¸ºåˆ†ç¦»æ—¶é—´ï¼ˆSTï¼‰ï¼Œè¿™é‡Œè®¾ä¸º 0 æ¯«ç§’
 289:Src/cantp.c   ****     EncodedPduInfo.Data[2] = 0x00;
 581              		.loc 1 289 5 is_stmt 1 view .LVU152
 582              		.loc 1 289 28 is_stmt 0 view .LVU153
 583 000e 0021     		movs	r1, #0
 584 0010 9970     		strb	r1, [r3, #2]
 290:Src/cantp.c   **** 
 291:Src/cantp.c   ****     // æ›´æ–°æ¥æ”¶ç«¯å¯ä»¥æ¥æ”¶çš„è¿ç»­å¸§çš„æ•°é‡
 292:Src/cantp.c   ****     numberOfConsecutiveFramesToReceive = availableBuffers;
 585              		.loc 1 292 5 is_stmt 1 view .LVU154
 586              		.loc 1 292 40 is_stmt 0 view .LVU155
 587 0012 1268     		ldr	r2, [r2]
 588 0014 0A4B     		ldr	r3, .L46+8
 589 0016 1A60     		str	r2, [r3]
 293:Src/cantp.c   **** 
 294:Src/cantp.c   ****     // å°†æµæ§å¸§ä¸­å‰©ä½™çš„å­—èŠ‚å¡«å……ä¸º 0
 295:Src/cantp.c   ****     for (uint8_t i = 3; i < 8; i++) {
 590              		.loc 1 295 5 is_stmt 1 view .LVU156
 591              	.LBB2:
 592              		.loc 1 295 10 view .LVU157
 593              	.LVL41:
 594              		.loc 1 295 18 is_stmt 0 view .LVU158
 595 0018 0323     		movs	r3, #3
 596              		.loc 1 295 5 view .LVU159
 597 001a 04E0     		b	.L43
 598              	.LVL42:
 599              	.L44:
 296:Src/cantp.c   ****         EncodedPduInfo.Data[i] = 0x00;
 600              		.loc 1 296 9 is_stmt 1 discriminator 3 view .LVU160
ARM GAS  C:\Users\wup15j\AppData\Local\Temp\ccxDxktJ.s 			page 17


 601              		.loc 1 296 32 is_stmt 0 discriminator 3 view .LVU161
 602 001c 064A     		ldr	r2, .L46
 603 001e 0021     		movs	r1, #0
 604 0020 D154     		strb	r1, [r2, r3]
 295:Src/cantp.c   ****         EncodedPduInfo.Data[i] = 0x00;
 605              		.loc 1 295 32 is_stmt 1 discriminator 3 view .LVU162
 295:Src/cantp.c   ****         EncodedPduInfo.Data[i] = 0x00;
 606              		.loc 1 295 33 is_stmt 0 discriminator 3 view .LVU163
 607 0022 0133     		adds	r3, r3, #1
 608              	.LVL43:
 295:Src/cantp.c   ****         EncodedPduInfo.Data[i] = 0x00;
 609              		.loc 1 295 33 discriminator 3 view .LVU164
 610 0024 DBB2     		uxtb	r3, r3
 611              	.LVL44:
 612              	.L43:
 295:Src/cantp.c   ****         EncodedPduInfo.Data[i] = 0x00;
 613              		.loc 1 295 25 is_stmt 1 discriminator 1 view .LVU165
 295:Src/cantp.c   ****         EncodedPduInfo.Data[i] = 0x00;
 614              		.loc 1 295 5 is_stmt 0 discriminator 1 view .LVU166
 615 0026 072B     		cmp	r3, #7
 616 0028 F8D9     		bls	.L44
 617              	.LBE2:
 297:Src/cantp.c   ****     }
 298:Src/cantp.c   **** 
 299:Src/cantp.c   ****     // åˆå§‹åŒ–å¸§åºå·ä¸º 1
 300:Src/cantp.c   ****     ConsecSN = 1;
 618              		.loc 1 300 5 is_stmt 1 view .LVU167
 619              		.loc 1 300 14 is_stmt 0 view .LVU168
 620 002a 064B     		ldr	r3, .L46+12
 621              	.LVL45:
 622              		.loc 1 300 14 view .LVU169
 623 002c 0122     		movs	r2, #1
 624 002e 1A70     		strb	r2, [r3]
 301:Src/cantp.c   ****     // è°ƒç”¨ CanIf_Transmit å‡½æ•°å‘é€ç¼–ç åçš„æµæ§å¸§
 302:Src/cantp.c   ****     CanIf_Transmit(TxPduId, &EncodedPduInfo);
 625              		.loc 1 302 5 is_stmt 1 view .LVU170
 626 0030 0149     		ldr	r1, .L46
 627 0032 FFF7FEFF 		bl	CanIf_Transmit
 628              	.LVL46:
 303:Src/cantp.c   **** }
 629              		.loc 1 303 1 is_stmt 0 view .LVU171
 630 0036 08BD     		pop	{r3, pc}
 631              	.L47:
 632              		.align	2
 633              	.L46:
 634 0038 00000000 		.word	.LANCHOR7
 635 003c 00000000 		.word	.LANCHOR12
 636 0040 00000000 		.word	.LANCHOR13
 637 0044 00000000 		.word	.LANCHOR9
 638              		.cfi_endproc
 639              	.LFE79:
 641              		.section	.text.CanTp_decodeFlowControlFrame,"ax",%progbits
 642              		.align	1
 643              		.global	CanTp_decodeFlowControlFrame
 644              		.syntax unified
 645              		.thumb
 646              		.thumb_func
ARM GAS  C:\Users\wup15j\AppData\Local\Temp\ccxDxktJ.s 			page 18


 648              	CanTp_decodeFlowControlFrame:
 649              	.LVL47:
 650              	.LFB83:
 304:Src/cantp.c   **** 
 305:Src/cantp.c   **** void CanTp_decodeSingleFrame(uint32_t RxPduId, PduInfoTRx* PduInfoPtr){
 306:Src/cantp.c   ****     // ä» CAN å¸§çš„ç¬¬ä¸€ä¸ªå­—èŠ‚ä¸­æå–æ•°æ®é•¿åº¦ï¼Œæ•°æ®é•¿åº¦åœ¨ PCI çš„ä½ 4 ä½
 307:Src/cantp.c   ****     uint32_t dataLength = PduInfoPtr->Data[0] & 0x0F;
 308:Src/cantp.c   ****     // æ›´æ–°å…¨å±€å˜é‡ï¼Œè®°å½•å‰©ä½™è¦æ¥æ”¶çš„å­—èŠ‚æ•°
 309:Src/cantp.c   ****     numberOfRemainingBytesToReceive = dataLength;
 310:Src/cantp.c   ****     // è®¾ç½® CompletePduInfo ç»“æ„ä½“ä¸­çš„é•¿åº¦ä¸ºæ¥æ”¶åˆ°çš„å­—èŠ‚æ•°
 311:Src/cantp.c   ****     CompletePduInfo.Length = numberOfRemainingBytesToReceive;
 312:Src/cantp.c   **** 
 313:Src/cantp.c   ****     // åˆå§‹åŒ–ä¸€ä¸ªå¾ªç¯è®¡æ•°å˜é‡ i
 314:Src/cantp.c   ****     int i;
 315:Src/cantp.c   ****     // å°†æ•°æ®ä»æ¥æ”¶åˆ°çš„ CAN å¸§ä¸­å¤åˆ¶åˆ°è§£ç åçš„æ•°æ®ç»“æ„ä¸­
 316:Src/cantp.c   ****     for (i = 0; i < dataLength; i++) {
 317:Src/cantp.c   ****         DecodedPduInfo.Data[i] = PduInfoPtr->Data[i+1];
 318:Src/cantp.c   ****     }
 319:Src/cantp.c   **** 
 320:Src/cantp.c   ****     // å°†è§£ç åçš„æ•°æ®é•¿åº¦è®¾ç½®ä¸º dataLength
 321:Src/cantp.c   ****     DecodedPduInfo.Length = dataLength;
 322:Src/cantp.c   **** 
 323:Src/cantp.c   ****     // è°ƒç”¨ CanTp_ConnectData å‡½æ•°ï¼Œå°†è§£ç åçš„æ•°æ®ä¸å®Œæ•´çš„ PDU ä¿¡æ¯è¿æ¥èµ·æ¥
 324:Src/cantp.c   ****     CanTp_ConnectData(&DecodedPduInfo);
 325:Src/cantp.c   **** }
 326:Src/cantp.c   **** 
 327:Src/cantp.c   **** void CanTp_decodeFirstFrame(uint32_t RxPduId, PduInfoTRx* PduInfoPtr){
 328:Src/cantp.c   ****     // ä»é¦–å¸§çš„ç¬¬ä¸€ä¸ªå­—èŠ‚çš„ä½ 4 ä½å’Œç¬¬äºŒä¸ªå­—èŠ‚æå–æ•°æ®é•¿åº¦
 329:Src/cantp.c   ****     numberOfRemainingBytesToReceive = ((PduInfoPtr->Data[0] & 0x0F) << 8) | PduInfoPtr->Data[1];
 330:Src/cantp.c   ****     // è®¾ç½® CompletePduInfo ç»“æ„ä½“ä¸­çš„é•¿åº¦ä¸ºæ¥æ”¶åˆ°çš„æ€»å­—èŠ‚æ•°
 331:Src/cantp.c   ****     CompletePduInfo.Length = numberOfRemainingBytesToReceive;
 332:Src/cantp.c   ****     // é¦–å¸§ä¸­å®é™…æœ‰æ•ˆè´Ÿè½½æ•°æ®é•¿åº¦ä¸º 6 ä¸ªå­—èŠ‚
 333:Src/cantp.c   ****     DecodedPduInfo.Length = 6;
 334:Src/cantp.c   **** 
 335:Src/cantp.c   ****     // å®šä¹‰ä¸€ä¸ªå¾ªç¯è®¡æ•°å˜é‡ Counter
 336:Src/cantp.c   ****     uint8_t Counter = 0;
 337:Src/cantp.c   **** 
 338:Src/cantp.c   ****     // å°†é¦–å¸§ä¸­çš„æ•°æ®å¤åˆ¶åˆ°è§£ç åçš„æ•°æ®ç»“æ„ä¸­ï¼Œä» CAN å¸§çš„ç¬¬ä¸‰ä¸ªå­—èŠ‚ï¼ˆ
 339:Src/cantp.c   ****     for (Counter = 0; Counter < 8; Counter++) {
 340:Src/cantp.c   ****         DecodedPduInfo.Data[Counter] = PduInfoPtr->Data[Counter + 2];
 341:Src/cantp.c   ****     }
 342:Src/cantp.c   **** 
 343:Src/cantp.c   ****     // è°ƒç”¨ CanTp_ConnectData å‡½æ•°ï¼Œå°†è§£ç åçš„æ•°æ®ä¸å®Œæ•´çš„ PDU ä¿¡æ¯è¿æ¥èµ·æ¥
 344:Src/cantp.c   ****     CanTp_ConnectData(&DecodedPduInfo);
 345:Src/cantp.c   **** }
 346:Src/cantp.c   **** 
 347:Src/cantp.c   **** void CanTp_decodeConsecutiveFrame(uint32_t RxPduId, PduInfoTRx* PduInfoPtr){
 348:Src/cantp.c   ****     // æ¯æ”¶åˆ°ä¸€ä¸ªè¿ç»­å¸§ï¼Œå°±å‡å°‘å‰©ä½™è¦æ¥æ”¶çš„å¸§æ•°
 349:Src/cantp.c   ****     numberOfConsecutiveFramesToReceive--;
 350:Src/cantp.c   ****     // åˆå§‹åŒ–ä¸€ä¸ªå¾ªç¯è®¡æ•°å˜é‡ i
 351:Src/cantp.c   ****     uint8_t i = 0;
 352:Src/cantp.c   ****     // è®¾ç½®è§£ç åçš„å¸§é•¿åº¦ä¸º 7 å­—èŠ‚æˆ–å‰©ä½™å­—èŠ‚æ•°ä¸­çš„è¾ƒå°è€…
 353:Src/cantp.c   ****     DecodedPduInfo.Length = numberOfRemainingBytesToReceive > 7 ? 7 : numberOfRemainingBytesToRecei
 354:Src/cantp.c   **** 
 355:Src/cantp.c   ****     // æ£€æŸ¥è¿ç»­å¸§çš„åºå·æ˜¯å¦ä¸å½“å‰æœŸæœ›çš„åºå·åŒ¹é…
 356:Src/cantp.c   ****     if (ConsecSN == (PduInfoPtr->Data[0] & 0x0F)) {
 357:Src/cantp.c   ****         // å°†æ•°æ®ä»æ¥æ”¶åˆ°çš„ CAN å¸§ä¸­å¤åˆ¶åˆ°è§£ç åçš„æ•°æ®ç»“æ„ä¸­
ARM GAS  C:\Users\wup15j\AppData\Local\Temp\ccxDxktJ.s 			page 19


 358:Src/cantp.c   ****         for (i = 0; i < DecodedPduInfo.Length; i++) {
 359:Src/cantp.c   ****             DecodedPduInfo.Data[i] = PduInfoPtr->Data[i+1];
 360:Src/cantp.c   ****         }
 361:Src/cantp.c   **** 
 362:Src/cantp.c   ****         // æ›´æ–°åºå·ï¼Œå¦‚æœåºå·è¶…è¿‡ 0xFï¼ˆå³ 15ï¼‰ï¼Œåˆ™é‡ç½®ä¸º 0ï¼Œå¦åˆ™é€’å¢
 363:Src/cantp.c   ****         ConsecSN = ConsecSN + 1 > 0xF ? 0 : ConsecSN + 1;
 364:Src/cantp.c   **** 
 365:Src/cantp.c   ****         // è°ƒç”¨ CanTp_ConnectData å‡½æ•°ï¼Œå°†è§£ç åçš„æ•°æ®ä¸å®Œæ•´çš„ PDU ä¿¡æ¯è¿æ¥èµ·æ
 366:Src/cantp.c   ****         CanTp_ConnectData(&DecodedPduInfo);
 367:Src/cantp.c   ****     }
 368:Src/cantp.c   **** }
 369:Src/cantp.c   **** 
 370:Src/cantp.c   **** void CanTp_decodeFlowControlFrame(uint32_t RxPduId, PduInfoTRx* PduInfoPtr){
 651              		.loc 1 370 76 is_stmt 1 view -0
 652              		.cfi_startproc
 653              		@ args = 0, pretend = 0, frame = 0
 654              		@ frame_needed = 0, uses_anonymous_args = 0
 655              		@ link register save eliminated.
 371:Src/cantp.c   ****     // ä»æ¥æ”¶åˆ°çš„ PDU ä¸­æå–æµæ§åˆ¶çŠ¶æ€ã€å—å¤§å°å’Œåˆ†ç¦»æ—¶é—´ï¼ˆSTï¼‰
 372:Src/cantp.c   ****     uint8_t flowStatus = PduInfoPtr->Data[0];
 656              		.loc 1 372 5 view .LVU173
 657              		.loc 1 372 13 is_stmt 0 view .LVU174
 658 0000 0B78     		ldrb	r3, [r1]	@ zero_extendqisi2
 659              	.LVL48:
 373:Src/cantp.c   ****     uint8_t blockSize = PduInfoPtr->Data[1];
 660              		.loc 1 373 5 is_stmt 1 view .LVU175
 661              		.loc 1 373 13 is_stmt 0 view .LVU176
 662 0002 4978     		ldrb	r1, [r1, #1]	@ zero_extendqisi2
 663              	.LVL49:
 374:Src/cantp.c   **** 
 375:Src/cantp.c   ****     // æ›´æ–°å¯ä»¥å‘é€çš„è¿ç»­å¸§çš„æ•°é‡
 376:Src/cantp.c   ****     numberOfConsecutiveFramesToSend = blockSize;
 664              		.loc 1 376 5 is_stmt 1 view .LVU177
 665              		.loc 1 376 37 is_stmt 0 view .LVU178
 666 0004 0A4A     		ldr	r2, .L52
 667 0006 1160     		str	r1, [r2]
 377:Src/cantp.c   **** 
 378:Src/cantp.c   ****     // æ ¹æ®ä¸åŒçš„æµæ§åˆ¶çŠ¶æ€æ‰§è¡Œç›¸åº”æ“ä½œ
 379:Src/cantp.c   ****     switch (flowStatus) {
 668              		.loc 1 379 5 is_stmt 1 view .LVU179
 669 0008 302B     		cmp	r3, #48
 670 000a 02D0     		beq	.L49
 671 000c 312B     		cmp	r3, #49
 672 000e 0AD0     		beq	.L50
 673 0010 7047     		bx	lr
 674              	.L49:
 380:Src/cantp.c   ****         case 0x30:  // ç»§ç»­å‘é€ (CTS)
 381:Src/cantp.c   ****             // æ›´æ–°æœŸæœ›çš„å¸§çŠ¶æ€ä¸ºè¿ç»­å¸§
 382:Src/cantp.c   ****             expectedFrameState = Consecutive_Frame_State;
 675              		.loc 1 382 13 view .LVU180
 676              		.loc 1 382 32 is_stmt 0 view .LVU181
 677 0012 0123     		movs	r3, #1
 678              	.LVL50:
 679              		.loc 1 382 32 view .LVU182
 680 0014 074A     		ldr	r2, .L52+4
 681 0016 1370     		strb	r3, [r2]
 383:Src/cantp.c   ****             // æ›´æ–°å½“å‰åç§»é‡ä¸ºèµ·å§‹åç§»é‡
ARM GAS  C:\Users\wup15j\AppData\Local\Temp\ccxDxktJ.s 			page 20


 384:Src/cantp.c   ****             startOffset = currentOffset;
 682              		.loc 1 384 13 is_stmt 1 view .LVU183
 683              		.loc 1 384 25 is_stmt 0 view .LVU184
 684 0018 074A     		ldr	r2, .L52+8
 685 001a 1168     		ldr	r1, [r2]
 686              	.LVL51:
 687              		.loc 1 384 25 view .LVU185
 688 001c 074A     		ldr	r2, .L52+12
 689 001e 1160     		str	r1, [r2]
 690              	.LVL52:
 385:Src/cantp.c   ****             // åˆå§‹åŒ–å¸§åºå·ä¸º 1
 386:Src/cantp.c   ****             ConsecSN = 1;
 691              		.loc 1 386 13 is_stmt 1 view .LVU186
 692              		.loc 1 386 22 is_stmt 0 view .LVU187
 693 0020 074A     		ldr	r2, .L52+16
 694 0022 1370     		strb	r3, [r2]
 387:Src/cantp.c   ****             break;
 695              		.loc 1 387 13 is_stmt 1 view .LVU188
 696 0024 7047     		bx	lr
 697              	.LVL53:
 698              	.L50:
 388:Src/cantp.c   **** 
 389:Src/cantp.c   ****         case 0x31:  // ç­‰å¾… (WT)
 390:Src/cantp.c   ****             // æµæ§åˆ¶çŠ¶æ€ä¸ºç­‰å¾…
 391:Src/cantp.c   ****             expectedFrameState = FlowControl_Frame_State;
 699              		.loc 1 391 13 view .LVU189
 700              		.loc 1 391 32 is_stmt 0 view .LVU190
 701 0026 034B     		ldr	r3, .L52+4
 702              	.LVL54:
 703              		.loc 1 391 32 view .LVU191
 704 0028 0222     		movs	r2, #2
 705 002a 1A70     		strb	r2, [r3]
 392:Src/cantp.c   ****             break;
 706              		.loc 1 392 13 is_stmt 1 view .LVU192
 393:Src/cantp.c   **** 
 394:Src/cantp.c   ****         case 0x32:  // æº¢å‡º/ä¸­æ­¢ (OVFLW/ABORT)
 395:Src/cantp.c   ****             // å¤„ç†æº¢å‡ºæˆ–ä¸­æ­¢æ¡ä»¶
 396:Src/cantp.c   ****             // æ›´æ–°æœŸæœ›çš„å¸§çŠ¶æ€ä¸ºä»»æ„çŠ¶æ€ï¼ˆå¦‚éœ€è¦ï¼‰
 397:Src/cantp.c   ****             // expectedFrameState = Any_State;
 398:Src/cantp.c   ****             // æ‰§è¡Œé¢å¤–çš„ä¸­æ­¢æ“ä½œï¼Œå¦‚é€šçŸ¥ä¸Šå±‚åè®®
 399:Src/cantp.c   ****             break;
 400:Src/cantp.c   **** 
 401:Src/cantp.c   ****         default:
 402:Src/cantp.c   ****             // å¤„ç†æ— æ•ˆçš„æµæ§åˆ¶çŠ¶æ€ï¼Œå¦‚è®¾ç½®é”™è¯¯çŠ¶æ€
 403:Src/cantp.c   ****             // expectedFrameState = Any_State;
 404:Src/cantp.c   ****             break;
 405:Src/cantp.c   ****     }
 406:Src/cantp.c   **** }
 707              		.loc 1 406 1 is_stmt 0 view .LVU193
 708 002c 7047     		bx	lr
 709              	.L53:
 710 002e 00BF     		.align	2
 711              	.L52:
 712 0030 00000000 		.word	.LANCHOR14
 713 0034 00000000 		.word	.LANCHOR15
 714 0038 00000000 		.word	.LANCHOR11
 715 003c 00000000 		.word	.LANCHOR10
ARM GAS  C:\Users\wup15j\AppData\Local\Temp\ccxDxktJ.s 			page 21


 716 0040 00000000 		.word	.LANCHOR9
 717              		.cfi_endproc
 718              	.LFE83:
 720              		.section	.text.CanTp_ConnectData,"ax",%progbits
 721              		.align	1
 722              		.global	CanTp_ConnectData
 723              		.syntax unified
 724              		.thumb
 725              		.thumb_func
 727              	CanTp_ConnectData:
 728              	.LVL55:
 729              	.LFB84:
 407:Src/cantp.c   **** 
 408:Src/cantp.c   **** void CanTp_ConnectData(PduInfoTRx* PduInfoPtr){
 730              		.loc 1 408 47 is_stmt 1 view -0
 731              		.cfi_startproc
 732              		@ args = 0, pretend = 0, frame = 0
 733              		@ frame_needed = 0, uses_anonymous_args = 0
 734              		.loc 1 408 47 is_stmt 0 view .LVU195
 735 0000 00B5     		push	{lr}
 736              	.LCFI7:
 737              		.cfi_def_cfa_offset 4
 738              		.cfi_offset 14, -4
 409:Src/cantp.c   ****     // ä½¿ç”¨ CompletePduInfo ç»“æ„ä½“ï¼Œå°†æ¥æ”¶åˆ°çš„æ•°æ®ä¸å®Œæ•´çš„ PDU ä¿¡æ¯è¿æ¥èµ·æ¥
 410:Src/cantp.c   ****     // å®šä¹‰ä¸€ä¸ªä¸´æ—¶å˜é‡ tempCurrentIndexï¼Œä¿å­˜å½“å‰ç´¢å¼•
 411:Src/cantp.c   ****     uint16_t tempCurrentIndex = currentIndex;
 739              		.loc 1 411 5 is_stmt 1 view .LVU196
 740              		.loc 1 411 14 is_stmt 0 view .LVU197
 741 0002 124B     		ldr	r3, .L58
 742 0004 B3F800C0 		ldrh	ip, [r3]
 743 0008 1FFA8CFC 		uxth	ip, ip
 744              	.LVL56:
 412:Src/cantp.c   ****     
 413:Src/cantp.c   ****     // å°†æ¥æ”¶åˆ°çš„ PDU æ•°æ®é€å­—èŠ‚è¿æ¥åˆ° CompletePduInfo æ•°æ®ä¸­
 414:Src/cantp.c   ****     while (currentIndex < PduInfoPtr->Length + tempCurrentIndex) {
 745              		.loc 1 414 5 is_stmt 1 view .LVU198
 746              		.loc 1 414 11 is_stmt 0 view .LVU199
 747 000c 10E0     		b	.L55
 748              	.L56:
 415:Src/cantp.c   ****         CompletePduInfo.Data[currentIndex] = PduInfoPtr->Data[currentIndex - tempCurrentIndex];
 749              		.loc 1 415 9 is_stmt 1 view .LVU200
 750              		.loc 1 415 76 is_stmt 0 view .LVU201
 751 000e 0F4A     		ldr	r2, .L58
 752 0010 1388     		ldrh	r3, [r2]
 753 0012 9BB2     		uxth	r3, r3
 754 0014 A3EB0C03 		sub	r3, r3, ip
 755              		.loc 1 415 29 view .LVU202
 756 0018 1188     		ldrh	r1, [r2]
 757 001a 89B2     		uxth	r1, r1
 758              		.loc 1 415 62 view .LVU203
 759 001c 10F803E0 		ldrb	lr, [r0, r3]	@ zero_extendqisi2
 760              		.loc 1 415 44 view .LVU204
 761 0020 0B4B     		ldr	r3, .L58+4
 762 0022 03F801E0 		strb	lr, [r3, r1]
 416:Src/cantp.c   ****         // æ›´æ–°å½“å‰ç´¢å¼•
 417:Src/cantp.c   ****         currentIndex++;
 763              		.loc 1 417 9 is_stmt 1 view .LVU205
ARM GAS  C:\Users\wup15j\AppData\Local\Temp\ccxDxktJ.s 			page 22


 764              		.loc 1 417 21 is_stmt 0 view .LVU206
 765 0026 1388     		ldrh	r3, [r2]
 766 0028 9BB2     		uxth	r3, r3
 767 002a 0133     		adds	r3, r3, #1
 768 002c 9BB2     		uxth	r3, r3
 769 002e 1380     		strh	r3, [r2]	@ movhi
 770              	.L55:
 414:Src/cantp.c   ****         CompletePduInfo.Data[currentIndex] = PduInfoPtr->Data[currentIndex - tempCurrentIndex];
 771              		.loc 1 414 11 is_stmt 1 view .LVU207
 414:Src/cantp.c   ****         CompletePduInfo.Data[currentIndex] = PduInfoPtr->Data[currentIndex - tempCurrentIndex];
 772              		.loc 1 414 25 is_stmt 0 view .LVU208
 773 0030 064B     		ldr	r3, .L58
 774 0032 1B88     		ldrh	r3, [r3]
 775 0034 9BB2     		uxth	r3, r3
 414:Src/cantp.c   ****         CompletePduInfo.Data[currentIndex] = PduInfoPtr->Data[currentIndex - tempCurrentIndex];
 776              		.loc 1 414 37 view .LVU209
 777 0036 8268     		ldr	r2, [r0, #8]
 414:Src/cantp.c   ****         CompletePduInfo.Data[currentIndex] = PduInfoPtr->Data[currentIndex - tempCurrentIndex];
 778              		.loc 1 414 46 view .LVU210
 779 0038 0CEB0201 		add	r1, ip, r2
 414:Src/cantp.c   ****         CompletePduInfo.Data[currentIndex] = PduInfoPtr->Data[currentIndex - tempCurrentIndex];
 780              		.loc 1 414 11 view .LVU211
 781 003c 8B42     		cmp	r3, r1
 782 003e E6D3     		bcc	.L56
 418:Src/cantp.c   ****     }
 419:Src/cantp.c   **** 
 420:Src/cantp.c   ****     // æ›´æ–°å‰©ä½™éœ€è¦æ¥æ”¶çš„å­—èŠ‚æ•°
 421:Src/cantp.c   ****     numberOfRemainingBytesToReceive -= PduInfoPtr->Length;
 783              		.loc 1 421 5 is_stmt 1 view .LVU212
 784              		.loc 1 421 37 is_stmt 0 view .LVU213
 785 0040 0449     		ldr	r1, .L58+8
 786 0042 0B68     		ldr	r3, [r1]
 787 0044 9A1A     		subs	r2, r3, r2
 788 0046 0A60     		str	r2, [r1]
 422:Src/cantp.c   **** }
 789              		.loc 1 422 1 view .LVU214
 790 0048 5DF804FB 		ldr	pc, [sp], #4
 791              	.L59:
 792              		.align	2
 793              	.L58:
 794 004c 00000000 		.word	.LANCHOR16
 795 0050 00000000 		.word	CompletePduInfo
 796 0054 00000000 		.word	.LANCHOR17
 797              		.cfi_endproc
 798              	.LFE84:
 800              		.section	.text.CanTp_decodeSingleFrame,"ax",%progbits
 801              		.align	1
 802              		.global	CanTp_decodeSingleFrame
 803              		.syntax unified
 804              		.thumb
 805              		.thumb_func
 807              	CanTp_decodeSingleFrame:
 808              	.LVL57:
 809              	.LFB80:
 305:Src/cantp.c   ****     // ä» CAN å¸§çš„ç¬¬ä¸€ä¸ªå­—èŠ‚ä¸­æå–æ•°æ®é•¿åº¦ï¼Œæ•°æ®é•¿åº¦åœ¨ PCI çš„ä½ 4 ä½
 810              		.loc 1 305 71 is_stmt 1 view -0
 811              		.cfi_startproc
ARM GAS  C:\Users\wup15j\AppData\Local\Temp\ccxDxktJ.s 			page 23


 812              		@ args = 0, pretend = 0, frame = 0
 813              		@ frame_needed = 0, uses_anonymous_args = 0
 305:Src/cantp.c   ****     // ä» CAN å¸§çš„ç¬¬ä¸€ä¸ªå­—èŠ‚ä¸­æå–æ•°æ®é•¿åº¦ï¼Œæ•°æ®é•¿åº¦åœ¨ PCI çš„ä½ 4 ä½
 814              		.loc 1 305 71 is_stmt 0 view .LVU216
 815 0000 10B5     		push	{r4, lr}
 816              	.LCFI8:
 817              		.cfi_def_cfa_offset 8
 818              		.cfi_offset 4, -8
 819              		.cfi_offset 14, -4
 307:Src/cantp.c   ****     // æ›´æ–°å…¨å±€å˜é‡ï¼Œè®°å½•å‰©ä½™è¦æ¥æ”¶çš„å­—èŠ‚æ•°
 820              		.loc 1 307 5 is_stmt 1 view .LVU217
 307:Src/cantp.c   ****     // æ›´æ–°å…¨å±€å˜é‡ï¼Œè®°å½•å‰©ä½™è¦æ¥æ”¶çš„å­—èŠ‚æ•°
 821              		.loc 1 307 43 is_stmt 0 view .LVU218
 822 0002 0C78     		ldrb	r4, [r1]	@ zero_extendqisi2
 307:Src/cantp.c   ****     // æ›´æ–°å…¨å±€å˜é‡ï¼Œè®°å½•å‰©ä½™è¦æ¥æ”¶çš„å­—èŠ‚æ•°
 823              		.loc 1 307 14 view .LVU219
 824 0004 04F00F04 		and	r4, r4, #15
 825              	.LVL58:
 309:Src/cantp.c   ****     // è®¾ç½® CompletePduInfo ç»“æ„ä½“ä¸­çš„é•¿åº¦ä¸ºæ¥æ”¶åˆ°çš„å­—èŠ‚æ•°
 826              		.loc 1 309 5 is_stmt 1 view .LVU220
 309:Src/cantp.c   ****     // è®¾ç½® CompletePduInfo ç»“æ„ä½“ä¸­çš„é•¿åº¦ä¸ºæ¥æ”¶åˆ°çš„å­—èŠ‚æ•°
 827              		.loc 1 309 37 is_stmt 0 view .LVU221
 828 0008 0A4B     		ldr	r3, .L64
 829 000a 1C60     		str	r4, [r3]
 311:Src/cantp.c   **** 
 830              		.loc 1 311 5 is_stmt 1 view .LVU222
 311:Src/cantp.c   **** 
 831              		.loc 1 311 28 is_stmt 0 view .LVU223
 832 000c 1A68     		ldr	r2, [r3]
 833 000e 0A4B     		ldr	r3, .L64+4
 834 0010 1A60     		str	r2, [r3]
 314:Src/cantp.c   ****     // å°†æ•°æ®ä»æ¥æ”¶åˆ°çš„ CAN å¸§ä¸­å¤åˆ¶åˆ°è§£ç åçš„æ•°æ®ç»“æ„ä¸­
 835              		.loc 1 314 5 is_stmt 1 view .LVU224
 316:Src/cantp.c   ****         DecodedPduInfo.Data[i] = PduInfoPtr->Data[i+1];
 836              		.loc 1 316 5 view .LVU225
 837              	.LVL59:
 316:Src/cantp.c   ****         DecodedPduInfo.Data[i] = PduInfoPtr->Data[i+1];
 838              		.loc 1 316 12 is_stmt 0 view .LVU226
 839 0012 0023     		movs	r3, #0
 316:Src/cantp.c   ****         DecodedPduInfo.Data[i] = PduInfoPtr->Data[i+1];
 840              		.loc 1 316 5 view .LVU227
 841 0014 06E0     		b	.L61
 842              	.LVL60:
 843              	.L62:
 317:Src/cantp.c   ****     }
 844              		.loc 1 317 9 is_stmt 1 discriminator 3 view .LVU228
 317:Src/cantp.c   ****     }
 845              		.loc 1 317 52 is_stmt 0 discriminator 3 view .LVU229
 846 0016 5A1C     		adds	r2, r3, #1
 317:Src/cantp.c   ****     }
 847              		.loc 1 317 50 discriminator 3 view .LVU230
 848 0018 11F802C0 		ldrb	ip, [r1, r2]	@ zero_extendqisi2
 317:Src/cantp.c   ****     }
 849              		.loc 1 317 32 discriminator 3 view .LVU231
 850 001c 0748     		ldr	r0, .L64+8
 851 001e 00F803C0 		strb	ip, [r0, r3]
 316:Src/cantp.c   ****         DecodedPduInfo.Data[i] = PduInfoPtr->Data[i+1];
ARM GAS  C:\Users\wup15j\AppData\Local\Temp\ccxDxktJ.s 			page 24


 852              		.loc 1 316 33 is_stmt 1 discriminator 3 view .LVU232
 853              	.LVL61:
 316:Src/cantp.c   ****         DecodedPduInfo.Data[i] = PduInfoPtr->Data[i+1];
 854              		.loc 1 316 34 is_stmt 0 discriminator 3 view .LVU233
 855 0022 1346     		mov	r3, r2
 856              	.LVL62:
 857              	.L61:
 316:Src/cantp.c   ****         DecodedPduInfo.Data[i] = PduInfoPtr->Data[i+1];
 858              		.loc 1 316 17 is_stmt 1 discriminator 1 view .LVU234
 316:Src/cantp.c   ****         DecodedPduInfo.Data[i] = PduInfoPtr->Data[i+1];
 859              		.loc 1 316 5 is_stmt 0 discriminator 1 view .LVU235
 860 0024 A342     		cmp	r3, r4
 861 0026 F6D3     		bcc	.L62
 321:Src/cantp.c   **** 
 862              		.loc 1 321 5 is_stmt 1 view .LVU236
 321:Src/cantp.c   **** 
 863              		.loc 1 321 27 is_stmt 0 view .LVU237
 864 0028 0448     		ldr	r0, .L64+8
 865 002a 8460     		str	r4, [r0, #8]
 324:Src/cantp.c   **** }
 866              		.loc 1 324 5 is_stmt 1 view .LVU238
 867 002c FFF7FEFF 		bl	CanTp_ConnectData
 868              	.LVL63:
 325:Src/cantp.c   **** 
 869              		.loc 1 325 1 is_stmt 0 view .LVU239
 870 0030 10BD     		pop	{r4, pc}
 871              	.LVL64:
 872              	.L65:
 325:Src/cantp.c   **** 
 873              		.loc 1 325 1 view .LVU240
 874 0032 00BF     		.align	2
 875              	.L64:
 876 0034 00000000 		.word	.LANCHOR17
 877 0038 00100000 		.word	CompletePduInfo+4096
 878 003c 00000000 		.word	.LANCHOR18
 879              		.cfi_endproc
 880              	.LFE80:
 882              		.section	.text.CanTp_decodeFirstFrame,"ax",%progbits
 883              		.align	1
 884              		.global	CanTp_decodeFirstFrame
 885              		.syntax unified
 886              		.thumb
 887              		.thumb_func
 889              	CanTp_decodeFirstFrame:
 890              	.LVL65:
 891              	.LFB81:
 327:Src/cantp.c   ****     // ä»é¦–å¸§çš„ç¬¬ä¸€ä¸ªå­—èŠ‚çš„ä½ 4 ä½å’Œç¬¬äºŒä¸ªå­—èŠ‚æå–æ•°æ®é•¿åº¦
 892              		.loc 1 327 70 is_stmt 1 view -0
 893              		.cfi_startproc
 894              		@ args = 0, pretend = 0, frame = 0
 895              		@ frame_needed = 0, uses_anonymous_args = 0
 327:Src/cantp.c   ****     // ä»é¦–å¸§çš„ç¬¬ä¸€ä¸ªå­—èŠ‚çš„ä½ 4 ä½å’Œç¬¬äºŒä¸ªå­—èŠ‚æå–æ•°æ®é•¿åº¦
 896              		.loc 1 327 70 is_stmt 0 view .LVU242
 897 0000 08B5     		push	{r3, lr}
 898              	.LCFI9:
 899              		.cfi_def_cfa_offset 8
 900              		.cfi_offset 3, -8
ARM GAS  C:\Users\wup15j\AppData\Local\Temp\ccxDxktJ.s 			page 25


 901              		.cfi_offset 14, -4
 329:Src/cantp.c   ****     // è®¾ç½® CompletePduInfo ç»“æ„ä½“ä¸­çš„é•¿åº¦ä¸ºæ¥æ”¶åˆ°çš„æ€»å­—èŠ‚æ•°
 902              		.loc 1 329 5 is_stmt 1 view .LVU243
 329:Src/cantp.c   ****     // è®¾ç½® CompletePduInfo ç»“æ„ä½“ä¸­çš„é•¿åº¦ä¸ºæ¥æ”¶åˆ°çš„æ€»å­—èŠ‚æ•°
 903              		.loc 1 329 57 is_stmt 0 view .LVU244
 904 0002 0B78     		ldrb	r3, [r1]	@ zero_extendqisi2
 329:Src/cantp.c   ****     // è®¾ç½® CompletePduInfo ç»“æ„ä½“ä¸­çš„é•¿åº¦ä¸ºæ¥æ”¶åˆ°çš„æ€»å­—èŠ‚æ•°
 905              		.loc 1 329 69 view .LVU245
 906 0004 1B02     		lsls	r3, r3, #8
 907 0006 03F47063 		and	r3, r3, #3840
 329:Src/cantp.c   ****     // è®¾ç½® CompletePduInfo ç»“æ„ä½“ä¸­çš„é•¿åº¦ä¸ºæ¥æ”¶åˆ°çš„æ€»å­—èŠ‚æ•°
 908              		.loc 1 329 93 view .LVU246
 909 000a 4A78     		ldrb	r2, [r1, #1]	@ zero_extendqisi2
 329:Src/cantp.c   ****     // è®¾ç½® CompletePduInfo ç»“æ„ä½“ä¸­çš„é•¿åº¦ä¸ºæ¥æ”¶åˆ°çš„æ€»å­—èŠ‚æ•°
 910              		.loc 1 329 75 view .LVU247
 911 000c 1343     		orrs	r3, r3, r2
 329:Src/cantp.c   ****     // è®¾ç½® CompletePduInfo ç»“æ„ä½“ä¸­çš„é•¿åº¦ä¸ºæ¥æ”¶åˆ°çš„æ€»å­—èŠ‚æ•°
 912              		.loc 1 329 37 view .LVU248
 913 000e 0B4A     		ldr	r2, .L70
 914 0010 1360     		str	r3, [r2]
 331:Src/cantp.c   ****     // é¦–å¸§ä¸­å®é™…æœ‰æ•ˆè´Ÿè½½æ•°æ®é•¿åº¦ä¸º 6 ä¸ªå­—èŠ‚
 915              		.loc 1 331 5 is_stmt 1 view .LVU249
 331:Src/cantp.c   ****     // é¦–å¸§ä¸­å®é™…æœ‰æ•ˆè´Ÿè½½æ•°æ®é•¿åº¦ä¸º 6 ä¸ªå­—èŠ‚
 916              		.loc 1 331 28 is_stmt 0 view .LVU250
 917 0012 1268     		ldr	r2, [r2]
 918 0014 0A4B     		ldr	r3, .L70+4
 919 0016 1A60     		str	r2, [r3]
 333:Src/cantp.c   **** 
 920              		.loc 1 333 5 is_stmt 1 view .LVU251
 333:Src/cantp.c   **** 
 921              		.loc 1 333 27 is_stmt 0 view .LVU252
 922 0018 0A4B     		ldr	r3, .L70+8
 923 001a 0622     		movs	r2, #6
 924 001c 9A60     		str	r2, [r3, #8]
 336:Src/cantp.c   **** 
 925              		.loc 1 336 5 is_stmt 1 view .LVU253
 926              	.LVL66:
 339:Src/cantp.c   ****         DecodedPduInfo.Data[Counter] = PduInfoPtr->Data[Counter + 2];
 927              		.loc 1 339 5 view .LVU254
 339:Src/cantp.c   ****         DecodedPduInfo.Data[Counter] = PduInfoPtr->Data[Counter + 2];
 928              		.loc 1 339 18 is_stmt 0 view .LVU255
 929 001e 0023     		movs	r3, #0
 339:Src/cantp.c   ****         DecodedPduInfo.Data[Counter] = PduInfoPtr->Data[Counter + 2];
 930              		.loc 1 339 5 view .LVU256
 931 0020 05E0     		b	.L67
 932              	.LVL67:
 933              	.L68:
 340:Src/cantp.c   ****     }
 934              		.loc 1 340 9 is_stmt 1 discriminator 3 view .LVU257
 340:Src/cantp.c   ****     }
 935              		.loc 1 340 65 is_stmt 0 discriminator 3 view .LVU258
 936 0022 9A1C     		adds	r2, r3, #2
 340:Src/cantp.c   ****     }
 937              		.loc 1 340 56 discriminator 3 view .LVU259
 938 0024 885C     		ldrb	r0, [r1, r2]	@ zero_extendqisi2
 340:Src/cantp.c   ****     }
 939              		.loc 1 340 38 discriminator 3 view .LVU260
ARM GAS  C:\Users\wup15j\AppData\Local\Temp\ccxDxktJ.s 			page 26


 940 0026 074A     		ldr	r2, .L70+8
 941 0028 D054     		strb	r0, [r2, r3]
 339:Src/cantp.c   ****         DecodedPduInfo.Data[Counter] = PduInfoPtr->Data[Counter + 2];
 942              		.loc 1 339 36 is_stmt 1 discriminator 3 view .LVU261
 339:Src/cantp.c   ****         DecodedPduInfo.Data[Counter] = PduInfoPtr->Data[Counter + 2];
 943              		.loc 1 339 43 is_stmt 0 discriminator 3 view .LVU262
 944 002a 0133     		adds	r3, r3, #1
 945              	.LVL68:
 339:Src/cantp.c   ****         DecodedPduInfo.Data[Counter] = PduInfoPtr->Data[Counter + 2];
 946              		.loc 1 339 43 discriminator 3 view .LVU263
 947 002c DBB2     		uxtb	r3, r3
 948              	.LVL69:
 949              	.L67:
 339:Src/cantp.c   ****         DecodedPduInfo.Data[Counter] = PduInfoPtr->Data[Counter + 2];
 950              		.loc 1 339 23 is_stmt 1 discriminator 1 view .LVU264
 339:Src/cantp.c   ****         DecodedPduInfo.Data[Counter] = PduInfoPtr->Data[Counter + 2];
 951              		.loc 1 339 5 is_stmt 0 discriminator 1 view .LVU265
 952 002e 072B     		cmp	r3, #7
 953 0030 F7D9     		bls	.L68
 344:Src/cantp.c   **** }
 954              		.loc 1 344 5 is_stmt 1 view .LVU266
 955 0032 0448     		ldr	r0, .L70+8
 956 0034 FFF7FEFF 		bl	CanTp_ConnectData
 957              	.LVL70:
 345:Src/cantp.c   **** 
 958              		.loc 1 345 1 is_stmt 0 view .LVU267
 959 0038 08BD     		pop	{r3, pc}
 960              	.L71:
 961 003a 00BF     		.align	2
 962              	.L70:
 963 003c 00000000 		.word	.LANCHOR17
 964 0040 00100000 		.word	CompletePduInfo+4096
 965 0044 00000000 		.word	.LANCHOR18
 966              		.cfi_endproc
 967              	.LFE81:
 969              		.section	.text.CanTp_decodeConsecutiveFrame,"ax",%progbits
 970              		.align	1
 971              		.global	CanTp_decodeConsecutiveFrame
 972              		.syntax unified
 973              		.thumb
 974              		.thumb_func
 976              	CanTp_decodeConsecutiveFrame:
 977              	.LVL71:
 978              	.LFB82:
 347:Src/cantp.c   ****     // æ¯æ”¶åˆ°ä¸€ä¸ªè¿ç»­å¸§ï¼Œå°±å‡å°‘å‰©ä½™è¦æ¥æ”¶çš„å¸§æ•°
 979              		.loc 1 347 76 is_stmt 1 view -0
 980              		.cfi_startproc
 981              		@ args = 0, pretend = 0, frame = 0
 982              		@ frame_needed = 0, uses_anonymous_args = 0
 347:Src/cantp.c   ****     // æ¯æ”¶åˆ°ä¸€ä¸ªè¿ç»­å¸§ï¼Œå°±å‡å°‘å‰©ä½™è¦æ¥æ”¶çš„å¸§æ•°
 983              		.loc 1 347 76 is_stmt 0 view .LVU269
 984 0000 10B5     		push	{r4, lr}
 985              	.LCFI10:
 986              		.cfi_def_cfa_offset 8
 987              		.cfi_offset 4, -8
 988              		.cfi_offset 14, -4
 349:Src/cantp.c   ****     // åˆå§‹åŒ–ä¸€ä¸ªå¾ªç¯è®¡æ•°å˜é‡ i
ARM GAS  C:\Users\wup15j\AppData\Local\Temp\ccxDxktJ.s 			page 27


 989              		.loc 1 349 5 is_stmt 1 view .LVU270
 349:Src/cantp.c   ****     // åˆå§‹åŒ–ä¸€ä¸ªå¾ªç¯è®¡æ•°å˜é‡ i
 990              		.loc 1 349 39 is_stmt 0 view .LVU271
 991 0002 194A     		ldr	r2, .L83
 992 0004 1368     		ldr	r3, [r2]
 993 0006 013B     		subs	r3, r3, #1
 994 0008 1360     		str	r3, [r2]
 351:Src/cantp.c   ****     // è®¾ç½®è§£ç åçš„å¸§é•¿åº¦ä¸º 7 å­—èŠ‚æˆ–å‰©ä½™å­—èŠ‚æ•°ä¸­çš„è¾ƒå°è€…
 995              		.loc 1 351 5 is_stmt 1 view .LVU272
 996              	.LVL72:
 353:Src/cantp.c   **** 
 997              		.loc 1 353 5 view .LVU273
 353:Src/cantp.c   **** 
 998              		.loc 1 353 61 is_stmt 0 view .LVU274
 999 000a 184B     		ldr	r3, .L83+4
 1000 000c 1B68     		ldr	r3, [r3]
 353:Src/cantp.c   **** 
 1001              		.loc 1 353 69 view .LVU275
 1002 000e 072B     		cmp	r3, #7
 1003 0010 0CD8     		bhi	.L78
 353:Src/cantp.c   **** 
 1004              		.loc 1 353 69 discriminator 1 view .LVU276
 1005 0012 164B     		ldr	r3, .L83+4
 1006 0014 1C68     		ldr	r4, [r3]
 1007              	.L73:
 353:Src/cantp.c   **** 
 1008              		.loc 1 353 27 discriminator 4 view .LVU277
 1009 0016 164B     		ldr	r3, .L83+8
 1010 0018 9C60     		str	r4, [r3, #8]
 356:Src/cantp.c   ****         // å°†æ•°æ®ä»æ¥æ”¶åˆ°çš„ CAN å¸§ä¸­å¤åˆ¶åˆ°è§£ç åçš„æ•°æ®ç»“æ„ä¸­
 1011              		.loc 1 356 5 is_stmt 1 discriminator 4 view .LVU278
 356:Src/cantp.c   ****         // å°†æ•°æ®ä»æ¥æ”¶åˆ°çš„ CAN å¸§ä¸­å¤åˆ¶åˆ°è§£ç åçš„æ•°æ®ç»“æ„ä¸­
 1012              		.loc 1 356 18 is_stmt 0 discriminator 4 view .LVU279
 1013 001a 164B     		ldr	r3, .L83+12
 1014 001c 1A78     		ldrb	r2, [r3]	@ zero_extendqisi2
 1015 001e D2B2     		uxtb	r2, r2
 356:Src/cantp.c   ****         // å°†æ•°æ®ä»æ¥æ”¶åˆ°çš„ CAN å¸§ä¸­å¤åˆ¶åˆ°è§£ç åçš„æ•°æ®ç»“æ„ä¸­
 1016              		.loc 1 356 38 discriminator 4 view .LVU280
 1017 0020 0B78     		ldrb	r3, [r1]	@ zero_extendqisi2
 356:Src/cantp.c   ****         // å°†æ•°æ®ä»æ¥æ”¶åˆ°çš„ CAN å¸§ä¸­å¤åˆ¶åˆ°è§£ç åçš„æ•°æ®ç»“æ„ä¸­
 1018              		.loc 1 356 8 discriminator 4 view .LVU281
 1019 0022 03F00F03 		and	r3, r3, #15
 1020 0026 9A42     		cmp	r2, r3
 1021 0028 1AD0     		beq	.L82
 1022              	.LVL73:
 1023              	.L72:
 368:Src/cantp.c   **** 
 1024              		.loc 1 368 1 view .LVU282
 1025 002a 10BD     		pop	{r4, pc}
 1026              	.LVL74:
 1027              	.L78:
 353:Src/cantp.c   **** 
 1028              		.loc 1 353 69 view .LVU283
 1029 002c 0724     		movs	r4, #7
 1030 002e F2E7     		b	.L73
 1031              	.LVL75:
 1032              	.L76:
ARM GAS  C:\Users\wup15j\AppData\Local\Temp\ccxDxktJ.s 			page 28


 359:Src/cantp.c   ****         }
 1033              		.loc 1 359 13 is_stmt 1 discriminator 3 view .LVU284
 359:Src/cantp.c   ****         }
 1034              		.loc 1 359 56 is_stmt 0 discriminator 3 view .LVU285
 1035 0030 5A1C     		adds	r2, r3, #1
 359:Src/cantp.c   ****         }
 1036              		.loc 1 359 54 discriminator 3 view .LVU286
 1037 0032 11F802C0 		ldrb	ip, [r1, r2]	@ zero_extendqisi2
 359:Src/cantp.c   ****         }
 1038              		.loc 1 359 36 discriminator 3 view .LVU287
 1039 0036 0E48     		ldr	r0, .L83+8
 1040 0038 00F803C0 		strb	ip, [r0, r3]
 358:Src/cantp.c   ****             DecodedPduInfo.Data[i] = PduInfoPtr->Data[i+1];
 1041              		.loc 1 358 48 is_stmt 1 discriminator 3 view .LVU288
 358:Src/cantp.c   ****             DecodedPduInfo.Data[i] = PduInfoPtr->Data[i+1];
 1042              		.loc 1 358 49 is_stmt 0 discriminator 3 view .LVU289
 1043 003c D3B2     		uxtb	r3, r2
 1044              	.LVL76:
 1045              	.L74:
 358:Src/cantp.c   ****             DecodedPduInfo.Data[i] = PduInfoPtr->Data[i+1];
 1046              		.loc 1 358 21 is_stmt 1 discriminator 1 view .LVU290
 358:Src/cantp.c   ****             DecodedPduInfo.Data[i] = PduInfoPtr->Data[i+1];
 1047              		.loc 1 358 9 is_stmt 0 discriminator 1 view .LVU291
 1048 003e A342     		cmp	r3, r4
 1049 0040 F6D3     		bcc	.L76
 363:Src/cantp.c   **** 
 1050              		.loc 1 363 9 is_stmt 1 view .LVU292
 363:Src/cantp.c   **** 
 1051              		.loc 1 363 33 is_stmt 0 view .LVU293
 1052 0042 0C4B     		ldr	r3, .L83+12
 1053              	.LVL77:
 363:Src/cantp.c   **** 
 1054              		.loc 1 363 33 view .LVU294
 1055 0044 1B78     		ldrb	r3, [r3]	@ zero_extendqisi2
 1056 0046 DBB2     		uxtb	r3, r3
 363:Src/cantp.c   **** 
 1057              		.loc 1 363 18 view .LVU295
 1058 0048 0E2B     		cmp	r3, #14
 1059 004a 0BD8     		bhi	.L80
 363:Src/cantp.c   **** 
 1060              		.loc 1 363 54 discriminator 1 view .LVU296
 1061 004c 094B     		ldr	r3, .L83+12
 1062 004e 1B78     		ldrb	r3, [r3]	@ zero_extendqisi2
 363:Src/cantp.c   **** 
 1063              		.loc 1 363 18 discriminator 1 view .LVU297
 1064 0050 0133     		adds	r3, r3, #1
 1065 0052 DBB2     		uxtb	r3, r3
 1066              	.L77:
 363:Src/cantp.c   **** 
 1067              		.loc 1 363 18 discriminator 4 view .LVU298
 1068 0054 074A     		ldr	r2, .L83+12
 1069 0056 1370     		strb	r3, [r2]
 366:Src/cantp.c   ****     }
 1070              		.loc 1 366 9 is_stmt 1 discriminator 4 view .LVU299
 1071 0058 0548     		ldr	r0, .L83+8
 1072 005a FFF7FEFF 		bl	CanTp_ConnectData
 1073              	.LVL78:
ARM GAS  C:\Users\wup15j\AppData\Local\Temp\ccxDxktJ.s 			page 29


 368:Src/cantp.c   **** 
 1074              		.loc 1 368 1 is_stmt 0 discriminator 4 view .LVU300
 1075 005e E4E7     		b	.L72
 1076              	.LVL79:
 1077              	.L82:
 358:Src/cantp.c   ****             DecodedPduInfo.Data[i] = PduInfoPtr->Data[i+1];
 1078              		.loc 1 358 16 view .LVU301
 1079 0060 0023     		movs	r3, #0
 1080 0062 ECE7     		b	.L74
 1081              	.LVL80:
 1082              	.L80:
 363:Src/cantp.c   **** 
 1083              		.loc 1 363 18 view .LVU302
 1084 0064 0023     		movs	r3, #0
 1085 0066 F5E7     		b	.L77
 1086              	.L84:
 1087              		.align	2
 1088              	.L83:
 1089 0068 00000000 		.word	.LANCHOR13
 1090 006c 00000000 		.word	.LANCHOR17
 1091 0070 00000000 		.word	.LANCHOR18
 1092 0074 00000000 		.word	.LANCHOR9
 1093              		.cfi_endproc
 1094              	.LFE82:
 1096              		.section	.text.CanTp_MainFunction,"ax",%progbits
 1097              		.align	1
 1098              		.global	CanTp_MainFunction
 1099              		.syntax unified
 1100              		.thumb
 1101              		.thumb_func
 1103              	CanTp_MainFunction:
 1104              	.LFB71:
  54:Src/cantp.c   **** 	while(1){  // æ— é™å¾ªç¯ï¼Œä¸æ–­è½®è¯¢å¤„ç† CAN TP çš„æ¥æ”¶å’Œå‘é€æ“ä½œã€‚
 1105              		.loc 1 54 26 is_stmt 1 view -0
 1106              		.cfi_startproc
 1107              		@ args = 0, pretend = 0, frame = 0
 1108              		@ frame_needed = 0, uses_anonymous_args = 0
 1109 0000 70B5     		push	{r4, r5, r6, lr}
 1110              	.LCFI11:
 1111              		.cfi_def_cfa_offset 16
 1112              		.cfi_offset 4, -16
 1113              		.cfi_offset 5, -12
 1114              		.cfi_offset 6, -8
 1115              		.cfi_offset 14, -4
 1116 0002 09E0     		b	.L104
 1117              	.LVL81:
 1118              	.L92:
 1119              	.LBB3:
  70:Src/cantp.c   **** 				break;
 1120              		.loc 1 70 5 view .LVU304
 1121 0004 634B     		ldr	r3, .L110
 1122 0006 1868     		ldr	r0, [r3]
 1123              	.LVL82:
  70:Src/cantp.c   **** 				break;
 1124              		.loc 1 70 5 is_stmt 0 view .LVU305
 1125 0008 2946     		mov	r1, r5
 1126 000a FFF7FEFF 		bl	CanTp_decodeSingleFrame
ARM GAS  C:\Users\wup15j\AppData\Local\Temp\ccxDxktJ.s 			page 30


 1127              	.LVL83:
  71:Src/cantp.c   **** 			case First_Frame:  // å¦‚æœå¸§ç±»å‹æ˜¯é¦–å¸§ã€‚
 1128              		.loc 1 71 5 is_stmt 1 view .LVU306
 1129              	.L87:
  94:Src/cantp.c   **** 
 1130              		.loc 1 94 4 view .LVU307
  94:Src/cantp.c   **** 
 1131              		.loc 1 94 6 is_stmt 0 view .LVU308
 1132 000e 032C     		cmp	r4, #3
 1133 0010 49D1     		bne	.L109
 1134              	.L93:
  94:Src/cantp.c   **** 
 1135              		.loc 1 94 6 view .LVU309
 1136              	.LBE3:
 171:Src/cantp.c   **** 	}
 1137              		.loc 1 171 3 is_stmt 1 view .LVU310
 1138 0012 6420     		movs	r0, #100
 1139 0014 FFF7FEFF 		bl	vTaskDelay
 1140              	.LVL84:
  55:Src/cantp.c   **** 		if(CanTp_Rx){  // å¦‚æœæ¥æ”¶åˆ°æ–°çš„ CAN TP æ•°æ®åŒ…ã€‚
 1141              		.loc 1 55 7 view .LVU311
 1142              	.L104:
  55:Src/cantp.c   **** 		if(CanTp_Rx){  // å¦‚æœæ¥æ”¶åˆ°æ–°çš„ CAN TP æ•°æ®åŒ…ã€‚
 1143              		.loc 1 55 2 view .LVU312
  56:Src/cantp.c   **** 			CanTp_Rx = 0;  // æ¸…é™¤æ¥æ”¶æ ‡å¿—ï¼Œè¡¨ç¤ºæ­£åœ¨å¤„ç†æ¥æ”¶åˆ°çš„æ•°æ®ã€‚
 1144              		.loc 1 56 3 view .LVU313
  56:Src/cantp.c   **** 			CanTp_Rx = 0;  // æ¸…é™¤æ¥æ”¶æ ‡å¿—ï¼Œè¡¨ç¤ºæ­£åœ¨å¤„ç†æ¥æ”¶åˆ°çš„æ•°æ®ã€‚
 1145              		.loc 1 56 6 is_stmt 0 view .LVU314
 1146 0018 5F4B     		ldr	r3, .L110+4
 1147 001a 1B78     		ldrb	r3, [r3]	@ zero_extendqisi2
 1148 001c 5BB2     		sxtb	r3, r3
  56:Src/cantp.c   **** 			CanTp_Rx = 0;  // æ¸…é™¤æ¥æ”¶æ ‡å¿—ï¼Œè¡¨ç¤ºæ­£åœ¨å¤„ç†æ¥æ”¶åˆ°çš„æ•°æ®ã€‚
 1149              		.loc 1 56 5 view .LVU315
 1150 001e 002B     		cmp	r3, #0
 1151 0020 51D0     		beq	.L86
 1152              	.LBB4:
  57:Src/cantp.c   **** 			
 1153              		.loc 1 57 4 is_stmt 1 view .LVU316
  57:Src/cantp.c   **** 			
 1154              		.loc 1 57 13 is_stmt 0 view .LVU317
 1155 0022 5D4B     		ldr	r3, .L110+4
 1156 0024 0022     		movs	r2, #0
 1157 0026 1A70     		strb	r2, [r3]
  65:Src/cantp.c   **** 
 1158              		.loc 1 65 4 is_stmt 1 view .LVU318
  65:Src/cantp.c   **** 
 1159              		.loc 1 65 65 is_stmt 0 view .LVU319
 1160 0028 5C4B     		ldr	r3, .L110+8
 1161 002a 1D68     		ldr	r5, [r3]
  65:Src/cantp.c   **** 
 1162              		.loc 1 65 28 view .LVU320
 1163 002c 2878     		ldrb	r0, [r5]	@ zero_extendqisi2
 1164 002e FFF7FEFF 		bl	CanTp_GetFrameType
 1165              	.LVL85:
 1166 0032 0446     		mov	r4, r0
 1167              	.LVL86:
  68:Src/cantp.c   **** 			case Single_Frame:  // å¦‚æœå¸§ç±»å‹æ˜¯å•å¸§ã€‚
ARM GAS  C:\Users\wup15j\AppData\Local\Temp\ccxDxktJ.s 			page 31


 1168              		.loc 1 68 4 is_stmt 1 view .LVU321
 1169 0034 0328     		cmp	r0, #3
 1170 0036 EAD8     		bhi	.L87
 1171 0038 01A3     		adr	r3, .L89
 1172 003a 53F820F0 		ldr	pc, [r3, r0, lsl #2]
 1173 003e 00BF     		.p2align 2
 1174              	.L89:
 1175 0040 05000000 		.word	.L92+1
 1176 0044 51000000 		.word	.L91+1
 1177 0048 6D000000 		.word	.L90+1
 1178 004c 9B000000 		.word	.L88+1
 1179              		.p2align 1
 1180              	.L91:
  73:Src/cantp.c   **** 				expectedFrameState = FlowControl_Frame_State;  // è®¾ç½®æœŸæœ›çš„ä¸‹ä¸€ä¸ªå¸§çŠ¶æ€ä¸ºæµæ§åˆ¶
 1181              		.loc 1 73 5 view .LVU322
 1182 0050 504E     		ldr	r6, .L110
 1183 0052 3068     		ldr	r0, [r6]
 1184              	.LVL87:
  73:Src/cantp.c   **** 				expectedFrameState = FlowControl_Frame_State;  // è®¾ç½®æœŸæœ›çš„ä¸‹ä¸€ä¸ªå¸§çŠ¶æ€ä¸ºæµæ§åˆ¶
 1185              		.loc 1 73 5 is_stmt 0 view .LVU323
 1186 0054 2946     		mov	r1, r5
 1187 0056 FFF7FEFF 		bl	CanTp_decodeFirstFrame
 1188              	.LVL88:
  74:Src/cantp.c   **** 				CanTp_Transmit(GlobalRxPduId, (PduInfoType*) GlobalRxPduInfoPtr);  // å‘é€æµæ§åˆ¶å¸§ï¼Œä»¥ä
 1189              		.loc 1 74 5 is_stmt 1 view .LVU324
  74:Src/cantp.c   **** 				CanTp_Transmit(GlobalRxPduId, (PduInfoType*) GlobalRxPduInfoPtr);  // å‘é€æµæ§åˆ¶å¸§ï¼Œä»¥ä
 1190              		.loc 1 74 24 is_stmt 0 view .LVU325
 1191 005a 514B     		ldr	r3, .L110+12
 1192 005c 0222     		movs	r2, #2
 1193 005e 1A70     		strb	r2, [r3]
  75:Src/cantp.c   **** 				break;
 1194              		.loc 1 75 5 is_stmt 1 view .LVU326
 1195 0060 3068     		ldr	r0, [r6]
 1196 0062 4E4B     		ldr	r3, .L110+8
 1197 0064 1968     		ldr	r1, [r3]
 1198 0066 FFF7FEFF 		bl	CanTp_Transmit
 1199              	.LVL89:
  76:Src/cantp.c   **** 			case Consecutive_Frame:  // å¦‚æœå¸§ç±»å‹æ˜¯è¿ç»­å¸§ã€‚
 1200              		.loc 1 76 5 view .LVU327
 1201 006a D0E7     		b	.L87
 1202              	.LVL90:
 1203              	.L90:
  78:Src/cantp.c   **** 				if(numberOfConsecutiveFramesToReceive == 0 && numberOfRemainingBytesToReceive > 0){
 1204              		.loc 1 78 5 view .LVU328
 1205 006c 494B     		ldr	r3, .L110
 1206 006e 1868     		ldr	r0, [r3]
 1207              	.LVL91:
  78:Src/cantp.c   **** 				if(numberOfConsecutiveFramesToReceive == 0 && numberOfRemainingBytesToReceive > 0){
 1208              		.loc 1 78 5 is_stmt 0 view .LVU329
 1209 0070 2946     		mov	r1, r5
 1210 0072 FFF7FEFF 		bl	CanTp_decodeConsecutiveFrame
 1211              	.LVL92:
  79:Src/cantp.c   **** 					// å¦‚æœæ¥æ”¶åˆ°çš„è¿ç»­å¸§æ•°é‡ä¸º 0 ä¸”è¿˜æœ‰å‰©ä½™å­—èŠ‚æœªæ¥æ”¶ï¼Œå‘é€æµæ§åˆ¶å¸§ã
 1212              		.loc 1 79 5 is_stmt 1 view .LVU330
  79:Src/cantp.c   **** 					// å¦‚æœæ¥æ”¶åˆ°çš„è¿ç»­å¸§æ•°é‡ä¸º 0 ä¸”è¿˜æœ‰å‰©ä½™å­—èŠ‚æœªæ¥æ”¶ï¼Œå‘é€æµæ§åˆ¶å¸§ã
 1213              		.loc 1 79 43 is_stmt 0 view .LVU331
 1214 0076 4B4B     		ldr	r3, .L110+16
ARM GAS  C:\Users\wup15j\AppData\Local\Temp\ccxDxktJ.s 			page 32


 1215 0078 1B68     		ldr	r3, [r3]
  79:Src/cantp.c   **** 					// å¦‚æœæ¥æ”¶åˆ°çš„è¿ç»­å¸§æ•°é‡ä¸º 0 ä¸”è¿˜æœ‰å‰©ä½™å­—èŠ‚æœªæ¥æ”¶ï¼Œå‘é€æµæ§åˆ¶å¸§ã
 1216              		.loc 1 79 7 view .LVU332
 1217 007a 002B     		cmp	r3, #0
 1218 007c C7D1     		bne	.L87
  79:Src/cantp.c   **** 					// å¦‚æœæ¥æ”¶åˆ°çš„è¿ç»­å¸§æ•°é‡ä¸º 0 ä¸”è¿˜æœ‰å‰©ä½™å­—èŠ‚æœªæ¥æ”¶ï¼Œå‘é€æµæ§åˆ¶å¸§ã
 1219              		.loc 1 79 83 discriminator 1 view .LVU333
 1220 007e 4A4B     		ldr	r3, .L110+20
 1221 0080 1B68     		ldr	r3, [r3]
  79:Src/cantp.c   **** 					// å¦‚æœæ¥æ”¶åˆ°çš„è¿ç»­å¸§æ•°é‡ä¸º 0 ä¸”è¿˜æœ‰å‰©ä½™å­—èŠ‚æœªæ¥æ”¶ï¼Œå‘é€æµæ§åˆ¶å¸§ã
 1222              		.loc 1 79 48 discriminator 1 view .LVU334
 1223 0082 002B     		cmp	r3, #0
 1224 0084 C3D0     		beq	.L87
  81:Src/cantp.c   **** 					CanTp_Transmit(GlobalRxPduId, (PduInfoType*) GlobalRxPduInfoPtr);  // å‘é€æµæ§åˆ¶å¸§ã€‚
 1225              		.loc 1 81 6 is_stmt 1 view .LVU335
  81:Src/cantp.c   **** 					CanTp_Transmit(GlobalRxPduId, (PduInfoType*) GlobalRxPduInfoPtr);  // å‘é€æµæ§åˆ¶å¸§ã€‚
 1226              		.loc 1 81 25 is_stmt 0 view .LVU336
 1227 0086 464B     		ldr	r3, .L110+12
 1228 0088 0222     		movs	r2, #2
 1229 008a 1A70     		strb	r2, [r3]
  82:Src/cantp.c   **** 				}
 1230              		.loc 1 82 6 is_stmt 1 view .LVU337
 1231 008c 414B     		ldr	r3, .L110
 1232 008e 1868     		ldr	r0, [r3]
 1233 0090 424B     		ldr	r3, .L110+8
 1234 0092 1968     		ldr	r1, [r3]
 1235 0094 FFF7FEFF 		bl	CanTp_Transmit
 1236              	.LVL93:
 1237 0098 B9E7     		b	.L87
 1238              	.LVL94:
 1239              	.L88:
  87:Src/cantp.c   **** 				break;
 1240              		.loc 1 87 5 view .LVU338
 1241 009a 3E4B     		ldr	r3, .L110
 1242 009c 1868     		ldr	r0, [r3]
 1243              	.LVL95:
  87:Src/cantp.c   **** 				break;
 1244              		.loc 1 87 5 is_stmt 0 view .LVU339
 1245 009e 2946     		mov	r1, r5
 1246 00a0 FFF7FEFF 		bl	CanTp_decodeFlowControlFrame
 1247              	.LVL96:
  88:Src/cantp.c   **** 			default:
 1248              		.loc 1 88 5 is_stmt 1 view .LVU340
 1249 00a4 B3E7     		b	.L87
 1250              	.L109:
  97:Src/cantp.c   **** 				if(App_Callback != NULL){  // å¦‚æœåº”ç”¨å±‚å›è°ƒå‡½æ•°ä¸ä¸ºç©ºã€‚
 1251              		.loc 1 97 9 view .LVU341
  97:Src/cantp.c   **** 				if(App_Callback != NULL){  // å¦‚æœåº”ç”¨å±‚å›è°ƒå‡½æ•°ä¸ä¸ºç©ºã€‚
 1252              		.loc 1 97 44 is_stmt 0 view .LVU342
 1253 00a6 404B     		ldr	r3, .L110+20
 1254 00a8 1B68     		ldr	r3, [r3]
  97:Src/cantp.c   **** 				if(App_Callback != NULL){  // å¦‚æœåº”ç”¨å±‚å›è°ƒå‡½æ•°ä¸ä¸ºç©ºã€‚
 1255              		.loc 1 97 11 view .LVU343
 1256 00aa 002B     		cmp	r3, #0
 1257 00ac B1D1     		bne	.L93
  98:Src/cantp.c   **** 					currentIndex = 0;  // é‡ç½®ç´¢å¼•ã€‚
 1258              		.loc 1 98 5 is_stmt 1 view .LVU344
ARM GAS  C:\Users\wup15j\AppData\Local\Temp\ccxDxktJ.s 			page 33


  98:Src/cantp.c   **** 					currentIndex = 0;  // é‡ç½®ç´¢å¼•ã€‚
 1259              		.loc 1 98 21 is_stmt 0 view .LVU345
 1260 00ae 3F4B     		ldr	r3, .L110+24
 1261 00b0 1B68     		ldr	r3, [r3]
  98:Src/cantp.c   **** 					currentIndex = 0;  // é‡ç½®ç´¢å¼•ã€‚
 1262              		.loc 1 98 7 view .LVU346
 1263 00b2 002B     		cmp	r3, #0
 1264 00b4 ADD0     		beq	.L93
  99:Src/cantp.c   **** 					App_Callback(GlobalRxPduId, &CompletePduInfo);  // è°ƒç”¨åº”ç”¨å±‚å›è°ƒå‡½æ•°ï¼Œå¤„ç†å®Œæ•´ç
 1265              		.loc 1 99 6 is_stmt 1 view .LVU347
  99:Src/cantp.c   **** 					App_Callback(GlobalRxPduId, &CompletePduInfo);  // è°ƒç”¨åº”ç”¨å±‚å›è°ƒå‡½æ•°ï¼Œå¤„ç†å®Œæ•´ç
 1266              		.loc 1 99 19 is_stmt 0 view .LVU348
 1267 00b6 3E4A     		ldr	r2, .L110+28
 1268 00b8 0021     		movs	r1, #0
 1269 00ba 1180     		strh	r1, [r2]	@ movhi
 100:Src/cantp.c   **** 				}
 1270              		.loc 1 100 6 is_stmt 1 view .LVU349
 1271 00bc 354A     		ldr	r2, .L110
 1272 00be 1068     		ldr	r0, [r2]
 1273 00c0 3C49     		ldr	r1, .L110+32
 1274 00c2 9847     		blx	r3
 1275              	.LVL97:
 1276 00c4 A5E7     		b	.L93
 1277              	.L86:
 100:Src/cantp.c   **** 				}
 1278              		.loc 1 100 6 is_stmt 0 view .LVU350
 1279              	.LBE4:
 104:Src/cantp.c   **** 			// å¦‚æœå…¨å±€ä¼ è¾“ PDU ID ä¸ç­‰äº 0ï¼Œåˆ™åœæ­¢ç¨‹åºè¿è¡Œã€‚
 1280              		.loc 1 104 8 is_stmt 1 view .LVU351
 104:Src/cantp.c   **** 			// å¦‚æœå…¨å±€ä¼ è¾“ PDU ID ä¸ç­‰äº 0ï¼Œåˆ™åœæ­¢ç¨‹åºè¿è¡Œã€‚
 1281              		.loc 1 104 11 is_stmt 0 view .LVU352
 1282 00c6 3C4B     		ldr	r3, .L110+36
 1283 00c8 1B78     		ldrb	r3, [r3]	@ zero_extendqisi2
 1284 00ca 5BB2     		sxtb	r3, r3
 104:Src/cantp.c   **** 			// å¦‚æœå…¨å±€ä¼ è¾“ PDU ID ä¸ç­‰äº 0ï¼Œåˆ™åœæ­¢ç¨‹åºè¿è¡Œã€‚
 1285              		.loc 1 104 10 view .LVU353
 1286 00cc 002B     		cmp	r3, #0
 1287 00ce A0D0     		beq	.L93
 1288              	.LBB5:
 106:Src/cantp.c   **** 				while(1);  // è¿›å…¥æ­»å¾ªç¯ï¼Œé€šå¸¸ç”¨ä½œé”™è¯¯å¤„ç†æˆ–è°ƒè¯•ç›®çš„ã€‚
 1289              		.loc 1 106 4 is_stmt 1 view .LVU354
 106:Src/cantp.c   **** 				while(1);  // è¿›å…¥æ­»å¾ªç¯ï¼Œé€šå¸¸ç”¨ä½œé”™è¯¯å¤„ç†æˆ–è°ƒè¯•ç›®çš„ã€‚
 1290              		.loc 1 106 21 is_stmt 0 view .LVU355
 1291 00d0 3A4B     		ldr	r3, .L110+40
 1292 00d2 1B68     		ldr	r3, [r3]
 106:Src/cantp.c   **** 				while(1);  // è¿›å…¥æ­»å¾ªç¯ï¼Œé€šå¸¸ç”¨ä½œé”™è¯¯å¤„ç†æˆ–è°ƒè¯•ç›®çš„ã€‚
 1293              		.loc 1 106 6 view .LVU356
 1294 00d4 A3B9     		cbnz	r3, .L95
 110:Src/cantp.c   **** 			if(numberOfRemainingBytesToSend == 0 && expectedFrameState == Any_State){
 1295              		.loc 1 110 4 is_stmt 1 view .LVU357
 1296              	.LVL98:
 111:Src/cantp.c   **** 				// å¦‚æœæ²¡æœ‰å‰©ä½™å­—èŠ‚éœ€è¦å‘é€ä¸”å½“å‰æœŸæœ›çš„å¸§çŠ¶æ€ä¸ºä»»æ„çŠ¶æ€ã€‚
 1297              		.loc 1 111 4 view .LVU358
 111:Src/cantp.c   **** 				// å¦‚æœæ²¡æœ‰å‰©ä½™å­—èŠ‚éœ€è¦å‘é€ä¸”å½“å‰æœŸæœ›çš„å¸§çŠ¶æ€ä¸ºä»»æ„çŠ¶æ€ã€‚
 1298              		.loc 1 111 36 is_stmt 0 view .LVU359
 1299 00d6 3A4B     		ldr	r3, .L110+44
 1300 00d8 1B68     		ldr	r3, [r3]
ARM GAS  C:\Users\wup15j\AppData\Local\Temp\ccxDxktJ.s 			page 34


 111:Src/cantp.c   **** 				// å¦‚æœæ²¡æœ‰å‰©ä½™å­—èŠ‚éœ€è¦å‘é€ä¸”å½“å‰æœŸæœ›çš„å¸§çŠ¶æ€ä¸ºä»»æ„çŠ¶æ€ã€‚
 1301              		.loc 1 111 6 view .LVU360
 1302 00da 93B9     		cbnz	r3, .L105
 111:Src/cantp.c   **** 				// å¦‚æœæ²¡æœ‰å‰©ä½™å­—èŠ‚éœ€è¦å‘é€ä¸”å½“å‰æœŸæœ›çš„å¸§çŠ¶æ€ä¸ºä»»æ„çŠ¶æ€ã€‚
 1303              		.loc 1 111 63 discriminator 1 view .LVU361
 1304 00dc 304B     		ldr	r3, .L110+12
 1305 00de 1B78     		ldrb	r3, [r3]	@ zero_extendqisi2
 111:Src/cantp.c   **** 				// å¦‚æœæ²¡æœ‰å‰©ä½™å­—èŠ‚éœ€è¦å‘é€ä¸”å½“å‰æœŸæœ›çš„å¸§çŠ¶æ€ä¸ºä»»æ„çŠ¶æ€ã€‚
 1306              		.loc 1 111 41 discriminator 1 view .LVU362
 1307 00e0 2BBB     		cbnz	r3, .L106
 113:Src/cantp.c   **** 				CompletePduInfo.Length = numberOfRemainingBytesToSend;  // æ›´æ–°å®Œæ•´ PDU çš„é•¿åº¦ã€‚
 1308              		.loc 1 113 5 is_stmt 1 view .LVU363
 113:Src/cantp.c   **** 				CompletePduInfo.Length = numberOfRemainingBytesToSend;  // æ›´æ–°å®Œæ•´ PDU çš„é•¿åº¦ã€‚
 1309              		.loc 1 113 54 is_stmt 0 view .LVU364
 1310 00e2 384A     		ldr	r2, .L110+48
 1311 00e4 1268     		ldr	r2, [r2]
 1312 00e6 02F58052 		add	r2, r2, #4096
 1313 00ea 1068     		ldr	r0, [r2]
 113:Src/cantp.c   **** 				CompletePduInfo.Length = numberOfRemainingBytesToSend;  // æ›´æ–°å®Œæ•´ PDU çš„é•¿åº¦ã€‚
 1314              		.loc 1 113 34 view .LVU365
 1315 00ec 3449     		ldr	r1, .L110+44
 1316 00ee 0860     		str	r0, [r1]
 114:Src/cantp.c   **** 				if(GlobalTxPduInfoPtr->Length < 8){
 1317              		.loc 1 114 5 is_stmt 1 view .LVU366
 114:Src/cantp.c   **** 				if(GlobalTxPduInfoPtr->Length < 8){
 1318              		.loc 1 114 28 is_stmt 0 view .LVU367
 1319 00f0 0868     		ldr	r0, [r1]
 1320 00f2 3549     		ldr	r1, .L110+52
 1321 00f4 0860     		str	r0, [r1]
 115:Src/cantp.c   **** 					frame_type = Single_Frame;  // å¦‚æœæ•°æ®é•¿åº¦å°äº 8 å­—èŠ‚ï¼Œè®¾ç½®å¸§ç±»å‹ä¸ºå•å¸§ã€‚
 1322              		.loc 1 115 5 is_stmt 1 view .LVU368
 115:Src/cantp.c   **** 					frame_type = Single_Frame;  // å¦‚æœæ•°æ®é•¿åº¦å°äº 8 å­—èŠ‚ï¼Œè®¾ç½®å¸§ç±»å‹ä¸ºå•å¸§ã€‚
 1323              		.loc 1 115 26 is_stmt 0 view .LVU369
 1324 00f6 1268     		ldr	r2, [r2]
 115:Src/cantp.c   **** 					frame_type = Single_Frame;  // å¦‚æœæ•°æ®é•¿åº¦å°äº 8 å­—èŠ‚ï¼Œè®¾ç½®å¸§ç±»å‹ä¸ºå•å¸§ã€‚
 1325              		.loc 1 115 7 view .LVU370
 1326 00f8 072A     		cmp	r2, #7
 1327 00fa 03D9     		bls	.L96
 119:Src/cantp.c   **** 				}
 1328              		.loc 1 119 17 view .LVU371
 1329 00fc 0123     		movs	r3, #1
 1330 00fe 01E0     		b	.L96
 1331              	.LVL99:
 1332              	.L95:
 107:Src/cantp.c   **** 			}
 1333              		.loc 1 107 5 is_stmt 1 discriminator 2 view .LVU372
 107:Src/cantp.c   **** 			}
 1334              		.loc 1 107 13 discriminator 2 view .LVU373
 107:Src/cantp.c   **** 			}
 1335              		.loc 1 107 10 discriminator 2 view .LVU374
 1336 0100 FEE7     		b	.L95
 1337              	.LVL100:
 1338              	.L105:
 110:Src/cantp.c   **** 			if(numberOfRemainingBytesToSend == 0 && expectedFrameState == Any_State){
 1339              		.loc 1 110 15 is_stmt 0 view .LVU375
 1340 0102 0423     		movs	r3, #4
 1341              	.L96:
ARM GAS  C:\Users\wup15j\AppData\Local\Temp\ccxDxktJ.s 			page 35


 1342              	.LVL101:
 123:Src/cantp.c   **** 				// å¦‚æœæœ‰å‰©ä½™å­—èŠ‚éœ€è¦å‘é€æˆ–æœŸæœ›çš„å¸§çŠ¶æ€ä¸ºæµæ§åˆ¶å¸§çŠ¶æ€ã€‚
 1343              		.loc 1 123 4 is_stmt 1 view .LVU376
 123:Src/cantp.c   **** 				// å¦‚æœæœ‰å‰©ä½™å­—èŠ‚éœ€è¦å‘é€æˆ–æœŸæœ›çš„å¸§çŠ¶æ€ä¸ºæµæ§åˆ¶å¸§çŠ¶æ€ã€‚
 1344              		.loc 1 123 36 is_stmt 0 view .LVU377
 1345 0104 2E4A     		ldr	r2, .L110+44
 1346 0106 1268     		ldr	r2, [r2]
 123:Src/cantp.c   **** 				// å¦‚æœæœ‰å‰©ä½™å­—èŠ‚éœ€è¦å‘é€æˆ–æœŸæœ›çš„å¸§çŠ¶æ€ä¸ºæµæ§åˆ¶å¸§çŠ¶æ€ã€‚
 1347              		.loc 1 123 6 view .LVU378
 1348 0108 9AB9     		cbnz	r2, .L97
 123:Src/cantp.c   **** 				// å¦‚æœæœ‰å‰©ä½™å­—èŠ‚éœ€è¦å‘é€æˆ–æœŸæœ›çš„å¸§çŠ¶æ€ä¸ºæµæ§åˆ¶å¸§çŠ¶æ€ã€‚
 1349              		.loc 1 123 62 discriminator 1 view .LVU379
 1350 010a 254A     		ldr	r2, .L110+12
 1351 010c 1278     		ldrb	r2, [r2]	@ zero_extendqisi2
 123:Src/cantp.c   **** 				// å¦‚æœæœ‰å‰©ä½™å­—èŠ‚éœ€è¦å‘é€æˆ–æœŸæœ›çš„å¸§çŠ¶æ€ä¸ºæµæ§åˆ¶å¸§çŠ¶æ€ã€‚
 1352              		.loc 1 123 40 discriminator 1 view .LVU380
 1353 010e 022A     		cmp	r2, #2
 1354 0110 0FD0     		beq	.L97
 1355              	.LVL102:
 1356              	.L98:
 164:Src/cantp.c   **** 				// é‡ç½®æœŸæœ›å¸§çŠ¶æ€ã€‚
 1357              		.loc 1 164 4 is_stmt 1 view .LVU381
 164:Src/cantp.c   **** 				// é‡ç½®æœŸæœ›å¸§çŠ¶æ€ã€‚
 1358              		.loc 1 164 36 is_stmt 0 view .LVU382
 1359 0112 2B4B     		ldr	r3, .L110+44
 1360 0114 1B68     		ldr	r3, [r3]
 164:Src/cantp.c   **** 				// é‡ç½®æœŸæœ›å¸§çŠ¶æ€ã€‚
 1361              		.loc 1 164 6 view .LVU383
 1362 0116 002B     		cmp	r3, #0
 1363 0118 7FF47BAF 		bne	.L93
 166:Src/cantp.c   **** 				currentOffset = -1;  // é‡ç½®å½“å‰åç§»é‡ã€‚
 1364              		.loc 1 166 5 is_stmt 1 view .LVU384
 166:Src/cantp.c   **** 				currentOffset = -1;  // é‡ç½®å½“å‰åç§»é‡ã€‚
 1365              		.loc 1 166 24 is_stmt 0 view .LVU385
 1366 011c 204A     		ldr	r2, .L110+12
 1367 011e 1370     		strb	r3, [r2]
 167:Src/cantp.c   **** 				CanTp_Tx = 0;  // æ¸…é™¤å‘é€æ ‡å¿—ï¼Œè¡¨ç¤ºå‘é€æ“ä½œå®Œæˆã€‚
 1368              		.loc 1 167 5 is_stmt 1 view .LVU386
 167:Src/cantp.c   **** 				CanTp_Tx = 0;  // æ¸…é™¤å‘é€æ ‡å¿—ï¼Œè¡¨ç¤ºå‘é€æ“ä½œå®Œæˆã€‚
 1369              		.loc 1 167 19 is_stmt 0 view .LVU387
 1370 0120 2A4A     		ldr	r2, .L110+56
 1371 0122 4FF0FF31 		mov	r1, #-1
 1372 0126 1160     		str	r1, [r2]
 168:Src/cantp.c   **** 			}
 1373              		.loc 1 168 5 is_stmt 1 view .LVU388
 168:Src/cantp.c   **** 			}
 1374              		.loc 1 168 14 is_stmt 0 view .LVU389
 1375 0128 234A     		ldr	r2, .L110+36
 1376 012a 1370     		strb	r3, [r2]
 1377 012c 71E7     		b	.L93
 1378              	.LVL103:
 1379              	.L106:
 110:Src/cantp.c   **** 			if(numberOfRemainingBytesToSend == 0 && expectedFrameState == Any_State){
 1380              		.loc 1 110 15 view .LVU390
 1381 012e 0423     		movs	r3, #4
 1382 0130 E8E7     		b	.L96
 1383              	.LVL104:
ARM GAS  C:\Users\wup15j\AppData\Local\Temp\ccxDxktJ.s 			page 36


 1384              	.L97:
 125:Src/cantp.c   **** 					frame_type = Consecutive_Frame;  // è®¾ç½®å¸§ç±»å‹ä¸ºè¿ç»­å¸§ã€‚
 1385              		.loc 1 125 5 is_stmt 1 view .LVU391
 125:Src/cantp.c   **** 					frame_type = Consecutive_Frame;  // è®¾ç½®å¸§ç±»å‹ä¸ºè¿ç»­å¸§ã€‚
 1386              		.loc 1 125 27 is_stmt 0 view .LVU392
 1387 0132 1B4A     		ldr	r2, .L110+12
 1388 0134 1278     		ldrb	r2, [r2]	@ zero_extendqisi2
 125:Src/cantp.c   **** 					frame_type = Consecutive_Frame;  // è®¾ç½®å¸§ç±»å‹ä¸ºè¿ç»­å¸§ã€‚
 1389              		.loc 1 125 7 view .LVU393
 1390 0136 012A     		cmp	r2, #1
 1391 0138 15D0     		beq	.L99
 128:Src/cantp.c   **** 					frame_type = FlowControl_Frame;  // è®¾ç½®å¸§ç±»å‹ä¸ºæµæ§åˆ¶å¸§ã€‚
 1392              		.loc 1 128 10 is_stmt 1 view .LVU394
 128:Src/cantp.c   **** 					frame_type = FlowControl_Frame;  // è®¾ç½®å¸§ç±»å‹ä¸ºæµæ§åˆ¶å¸§ã€‚
 1393              		.loc 1 128 12 is_stmt 0 view .LVU395
 1394 013a 022A     		cmp	r2, #2
 1395 013c 22D0     		beq	.L100
 133:Src/cantp.c   **** 
 1396              		.loc 1 133 5 is_stmt 1 view .LVU396
 136:Src/cantp.c   **** 				case Single_Frame:
 1397              		.loc 1 136 5 view .LVU397
 1398 013e 032B     		cmp	r3, #3
 1399 0140 E7D8     		bhi	.L98
 1400 0142 DFE803F0 		tbb	[pc, r3]
 1401              	.L101:
 1402 0146 02       		.byte	(.L103-.L101)/2
 1403 0147 09       		.byte	(.L102-.L101)/2
 1404 0148 10       		.byte	(.L99-.L101)/2
 1405 0149 1F       		.byte	(.L100-.L101)/2
 1406              		.p2align 1
 1407              	.L103:
 138:Src/cantp.c   **** 					break;
 1408              		.loc 1 138 6 view .LVU398
 1409 014a 1C4B     		ldr	r3, .L110+40
 1410              	.LVL105:
 138:Src/cantp.c   **** 					break;
 1411              		.loc 1 138 6 is_stmt 0 view .LVU399
 1412 014c 1868     		ldr	r0, [r3]
 1413 014e 1D4B     		ldr	r3, .L110+48
 1414 0150 1968     		ldr	r1, [r3]
 1415 0152 FFF7FEFF 		bl	CanTp_encodeSingleFrame
 1416              	.LVL106:
 139:Src/cantp.c   **** 				case First_Frame:
 1417              		.loc 1 139 6 is_stmt 1 view .LVU400
 1418 0156 DCE7     		b	.L98
 1419              	.LVL107:
 1420              	.L102:
 141:Src/cantp.c   **** 					frame_type = None;  // å‘é€å®Œé¦–å¸§åï¼Œå°†å¸§ç±»å‹é‡ç½®ä¸º Noneã€‚
 1421              		.loc 1 141 6 view .LVU401
 1422 0158 184B     		ldr	r3, .L110+40
 1423              	.LVL108:
 141:Src/cantp.c   **** 					frame_type = None;  // å‘é€å®Œé¦–å¸§åï¼Œå°†å¸§ç±»å‹é‡ç½®ä¸º Noneã€‚
 1424              		.loc 1 141 6 is_stmt 0 view .LVU402
 1425 015a 1868     		ldr	r0, [r3]
 1426 015c 194B     		ldr	r3, .L110+48
 1427 015e 1968     		ldr	r1, [r3]
 1428 0160 FFF7FEFF 		bl	CanTp_encodeFirstFrame
ARM GAS  C:\Users\wup15j\AppData\Local\Temp\ccxDxktJ.s 			page 37


 1429              	.LVL109:
 142:Src/cantp.c   **** 					break;
 1430              		.loc 1 142 6 is_stmt 1 view .LVU403
 143:Src/cantp.c   **** 				case Consecutive_Frame:
 1431              		.loc 1 143 6 view .LVU404
 1432 0164 D5E7     		b	.L98
 1433              	.LVL110:
 1434              	.L99:
 145:Src/cantp.c   **** 						numberOfConsecutiveFramesToSend--;  // é€’å‡è¿ç»­å¸§è®¡æ•°å™¨ã€‚
 1435              		.loc 1 145 6 view .LVU405
 145:Src/cantp.c   **** 						numberOfConsecutiveFramesToSend--;  // é€’å‡è¿ç»­å¸§è®¡æ•°å™¨ã€‚
 1436              		.loc 1 145 41 is_stmt 0 view .LVU406
 1437 0166 1A4B     		ldr	r3, .L110+60
 1438 0168 1B68     		ldr	r3, [r3]
 145:Src/cantp.c   **** 						numberOfConsecutiveFramesToSend--;  // é€’å‡è¿ç»­å¸§è®¡æ•°å™¨ã€‚
 1439              		.loc 1 145 8 view .LVU407
 1440 016a 002B     		cmp	r3, #0
 1441 016c D1D0     		beq	.L98
 146:Src/cantp.c   **** 						CanTp_encodeConsecutiveFrame(GlobalTxPduId, GlobalTxPduInfoPtr);  // ç¼–ç è¿ç»­å¸§æ•°æ®å¹¶
 1442              		.loc 1 146 7 is_stmt 1 view .LVU408
 146:Src/cantp.c   **** 						CanTp_encodeConsecutiveFrame(GlobalTxPduId, GlobalTxPduInfoPtr);  // ç¼–ç è¿ç»­å¸§æ•°æ®å¹¶
 1443              		.loc 1 146 38 is_stmt 0 view .LVU409
 1444 016e 184A     		ldr	r2, .L110+60
 1445 0170 1368     		ldr	r3, [r2]
 1446 0172 013B     		subs	r3, r3, #1
 1447 0174 1360     		str	r3, [r2]
 147:Src/cantp.c   **** 					}
 1448              		.loc 1 147 7 is_stmt 1 view .LVU410
 1449 0176 114B     		ldr	r3, .L110+40
 1450 0178 1868     		ldr	r0, [r3]
 1451 017a 124B     		ldr	r3, .L110+48
 1452 017c 1968     		ldr	r1, [r3]
 1453 017e FFF7FEFF 		bl	CanTp_encodeConsecutiveFrame
 1454              	.LVL111:
 1455 0182 C6E7     		b	.L98
 1456              	.LVL112:
 1457              	.L100:
 156:Src/cantp.c   **** 					break;
 1458              		.loc 1 156 6 view .LVU411
 1459 0184 0D4B     		ldr	r3, .L110+40
 1460 0186 1868     		ldr	r0, [r3]
 1461 0188 0E4B     		ldr	r3, .L110+48
 1462 018a 1968     		ldr	r1, [r3]
 1463 018c FFF7FEFF 		bl	CanTp_encodeFlowControlFrame
 1464              	.LVL113:
 157:Src/cantp.c   **** 				default:
 1465              		.loc 1 157 6 view .LVU412
 1466 0190 BFE7     		b	.L98
 1467              	.L111:
 1468 0192 00BF     		.align	2
 1469              	.L110:
 1470 0194 00000000 		.word	.LANCHOR1
 1471 0198 00000000 		.word	.LANCHOR2
 1472 019c 00000000 		.word	.LANCHOR0
 1473 01a0 00000000 		.word	.LANCHOR15
 1474 01a4 00000000 		.word	.LANCHOR13
 1475 01a8 00000000 		.word	.LANCHOR17
ARM GAS  C:\Users\wup15j\AppData\Local\Temp\ccxDxktJ.s 			page 38


 1476 01ac 00000000 		.word	.LANCHOR6
 1477 01b0 00000000 		.word	.LANCHOR16
 1478 01b4 00000000 		.word	CompletePduInfo
 1479 01b8 00000000 		.word	.LANCHOR5
 1480 01bc 00000000 		.word	.LANCHOR4
 1481 01c0 00000000 		.word	.LANCHOR8
 1482 01c4 00000000 		.word	.LANCHOR3
 1483 01c8 00100000 		.word	CompletePduInfo+4096
 1484 01cc 00000000 		.word	.LANCHOR11
 1485 01d0 00000000 		.word	.LANCHOR14
 1486              	.LBE5:
 1487              		.cfi_endproc
 1488              	.LFE71:
 1490              		.global	rxComplete
 1491              		.global	rxData
 1492              		.global	rxCurrentMaxIndex
 1493              		.global	rxBufferIndex
 1494              		.global	rxBuffer
 1495              		.global	RxData
 1496              		.global	GlobalTxPduId
 1497              		.global	GlobalRxPduId
 1498              		.global	CanTp_Tx
 1499              		.global	CanTp_Rx
 1500              		.global	startOffset
 1501              		.global	currentOffset
 1502              		.global	currentIndex
 1503              		.global	ConsecSN
 1504              		.global	GlobalTxPduInfoPtr
 1505              		.global	GlobalRxPduInfoPtr
 1506              		.global	CompletePduInfo
 1507              		.global	DecodedPduInfo
 1508              		.global	EncodedPduInfo
 1509              		.global	expectedFrameState
 1510              		.global	App_Callback
 1511              		.global	availableBuffers
 1512              		.global	numberOfRemainingBytesToReceive
 1513              		.global	numberOfRemainingBytesToSend
 1514              		.global	numberOfConsecutiveFramesToReceive
 1515              		.global	currentConsecutiveFrames
 1516              		.global	numberOfConsecutiveFramesToSend
 1517              		.section	.bss.App_Callback,"aw",%nobits
 1518              		.align	2
 1519              		.set	.LANCHOR6,. + 0
 1522              	App_Callback:
 1523 0000 00000000 		.space	4
 1524              		.section	.bss.CanTp_Rx,"aw",%nobits
 1525              		.set	.LANCHOR2,. + 0
 1528              	CanTp_Rx:
 1529 0000 00       		.space	1
 1530              		.section	.bss.CanTp_Tx,"aw",%nobits
 1531              		.set	.LANCHOR5,. + 0
 1534              	CanTp_Tx:
 1535 0000 00       		.space	1
 1536              		.section	.bss.CompletePduInfo,"aw",%nobits
 1537              		.align	2
 1540              	CompletePduInfo:
 1541 0000 00000000 		.space	4100
ARM GAS  C:\Users\wup15j\AppData\Local\Temp\ccxDxktJ.s 			page 39


 1541      00000000 
 1541      00000000 
 1541      00000000 
 1541      00000000 
 1542              		.section	.bss.ConsecSN,"aw",%nobits
 1543              		.set	.LANCHOR9,. + 0
 1546              	ConsecSN:
 1547 0000 00       		.space	1
 1548              		.section	.bss.DecodedPduInfo,"aw",%nobits
 1549              		.align	2
 1550              		.set	.LANCHOR18,. + 0
 1553              	DecodedPduInfo:
 1554 0000 00000000 		.space	12
 1554      00000000 
 1554      00000000 
 1555              		.section	.bss.EncodedPduInfo,"aw",%nobits
 1556              		.align	2
 1557              		.set	.LANCHOR7,. + 0
 1560              	EncodedPduInfo:
 1561 0000 00000000 		.space	12
 1561      00000000 
 1561      00000000 
 1562              		.section	.bss.GlobalRxPduId,"aw",%nobits
 1563              		.align	2
 1564              		.set	.LANCHOR1,. + 0
 1567              	GlobalRxPduId:
 1568 0000 00000000 		.space	4
 1569              		.section	.bss.GlobalRxPduInfoPtr,"aw",%nobits
 1570              		.align	2
 1571              		.set	.LANCHOR0,. + 0
 1574              	GlobalRxPduInfoPtr:
 1575 0000 00000000 		.space	4
 1576              		.section	.bss.GlobalTxPduId,"aw",%nobits
 1577              		.align	2
 1578              		.set	.LANCHOR4,. + 0
 1581              	GlobalTxPduId:
 1582 0000 00000000 		.space	4
 1583              		.section	.bss.GlobalTxPduInfoPtr,"aw",%nobits
 1584              		.align	2
 1585              		.set	.LANCHOR3,. + 0
 1588              	GlobalTxPduInfoPtr:
 1589 0000 00000000 		.space	4
 1590              		.section	.bss.RxData,"aw",%nobits
 1591              		.align	2
 1594              	RxData:
 1595 0000 00000000 		.space	8
 1595      00000000 
 1596              		.section	.bss.currentConsecutiveFrames,"aw",%nobits
 1597              		.align	2
 1600              	currentConsecutiveFrames:
 1601 0000 00000000 		.space	4
 1602              		.section	.bss.currentIndex,"aw",%nobits
 1603              		.align	1
 1604              		.set	.LANCHOR16,. + 0
 1607              	currentIndex:
 1608 0000 0000     		.space	2
 1609              		.section	.bss.expectedFrameState,"aw",%nobits
ARM GAS  C:\Users\wup15j\AppData\Local\Temp\ccxDxktJ.s 			page 40


 1610              		.set	.LANCHOR15,. + 0
 1613              	expectedFrameState:
 1614 0000 00       		.space	1
 1615              		.section	.bss.numberOfConsecutiveFramesToReceive,"aw",%nobits
 1616              		.align	2
 1617              		.set	.LANCHOR13,. + 0
 1620              	numberOfConsecutiveFramesToReceive:
 1621 0000 00000000 		.space	4
 1622              		.section	.bss.numberOfConsecutiveFramesToSend,"aw",%nobits
 1623              		.align	2
 1624              		.set	.LANCHOR14,. + 0
 1627              	numberOfConsecutiveFramesToSend:
 1628 0000 00000000 		.space	4
 1629              		.section	.bss.numberOfRemainingBytesToReceive,"aw",%nobits
 1630              		.align	2
 1631              		.set	.LANCHOR17,. + 0
 1634              	numberOfRemainingBytesToReceive:
 1635 0000 00000000 		.space	4
 1636              		.section	.bss.numberOfRemainingBytesToSend,"aw",%nobits
 1637              		.align	2
 1638              		.set	.LANCHOR8,. + 0
 1641              	numberOfRemainingBytesToSend:
 1642 0000 00000000 		.space	4
 1643              		.section	.bss.rxBuffer,"aw",%nobits
 1644              		.align	2
 1647              	rxBuffer:
 1648 0000 00000000 		.space	100
 1648      00000000 
 1648      00000000 
 1648      00000000 
 1648      00000000 
 1649              		.section	.bss.rxBufferIndex,"aw",%nobits
 1650              		.align	2
 1653              	rxBufferIndex:
 1654 0000 00000000 		.space	4
 1655              		.section	.bss.rxComplete,"aw",%nobits
 1658              	rxComplete:
 1659 0000 00       		.space	1
 1660              		.section	.bss.rxCurrentMaxIndex,"aw",%nobits
 1661              		.align	2
 1664              	rxCurrentMaxIndex:
 1665 0000 00000000 		.space	4
 1666              		.section	.bss.rxData,"aw",%nobits
 1669              	rxData:
 1670 0000 00       		.space	1
 1671              		.section	.bss.startOffset,"aw",%nobits
 1672              		.align	2
 1673              		.set	.LANCHOR10,. + 0
 1676              	startOffset:
 1677 0000 00000000 		.space	4
 1678              		.section	.data.availableBuffers,"aw"
 1679              		.align	2
 1680              		.set	.LANCHOR12,. + 0
 1683              	availableBuffers:
 1684 0000 0A000000 		.word	10
 1685              		.section	.data.currentOffset,"aw"
 1686              		.align	2
ARM GAS  C:\Users\wup15j\AppData\Local\Temp\ccxDxktJ.s 			page 41


 1687              		.set	.LANCHOR11,. + 0
 1690              	currentOffset:
 1691 0000 FFFFFFFF 		.word	-1
 1692              		.text
 1693              	.Letext0:
 1694              		.file 2 "c:\\program files (x86)\\gnu arm embedded toolchain\\10 2021.10\\arm-none-eabi\\include\\
 1695              		.file 3 "c:\\program files (x86)\\gnu arm embedded toolchain\\10 2021.10\\arm-none-eabi\\include\\
 1696              		.file 4 "Inc/CanIf.h"
 1697              		.file 5 "Inc/CanTp.h"
 1698              		.file 6 "Middlewares/Third_Party/FreeRTOS/Source/include/task.h"
ARM GAS  C:\Users\wup15j\AppData\Local\Temp\ccxDxktJ.s 			page 42

