ARM GAS  C:\Users\wup15j\AppData\Local\Temp\ccOEFcAH.s 			page 1


   1              		.cpu cortex-m3
   2              		.arch armv7-m
   3              		.fpu softvfp
   4              		.eabi_attribute 20, 1
   5              		.eabi_attribute 21, 1
   6              		.eabi_attribute 23, 3
   7              		.eabi_attribute 24, 1
   8              		.eabi_attribute 25, 1
   9              		.eabi_attribute 26, 1
  10              		.eabi_attribute 30, 1
  11              		.eabi_attribute 34, 1
  12              		.eabi_attribute 18, 4
  13              		.file	"freertos.c"
  14              		.section	.rodata.str1.4,"aMS",%progbits,1
  15              		.align	2
  16              	.LC0:
  17 0000 64656661 		.ascii	"defaultTask\000"
  17      756C7454 
  17      61736B00 
  18              		.align	2
  19              	.LC2:
  20 000c 4C454454 		.ascii	"LEDTask\000"
  20      61736B00 
  21              		.align	2
  22              	.LC4:
  23 0014 43414E49 		.ascii	"CANIFRXTask\000"
  23      46525854 
  23      61736B00 
  24              		.align	2
  25              	.LC6:
  26 0020 43414E54 		.ascii	"CANTPMF\000"
  26      504D4600 
  27              		.text
  28              	.Ltext0:
  29              		.cfi_sections	.debug_frame
  30              		.section	.text.StartDefaultTask,"ax",%progbits
  31              		.align	1
  32              		.global	StartDefaultTask
  33              		.syntax unified
  34              		.thumb
  35              		.thumb_func
  37              	StartDefaultTask:
  38              	.LFB71:
  39              		.file 1 "Src/freertos.c"
   1:Src/freertos.c **** /* USER CODE BEGIN Header */
   2:Src/freertos.c **** /**
   3:Src/freertos.c ****   ******************************************************************************
   4:Src/freertos.c ****   * File Name          : freertos.c
   5:Src/freertos.c ****   * Description        : Code for freertos applications
   6:Src/freertos.c ****   ******************************************************************************
   7:Src/freertos.c ****   * @attention
   8:Src/freertos.c ****   *
   9:Src/freertos.c ****   * <h2><center>&copy; Copyright (c) 2024 STMicroelectronics.
  10:Src/freertos.c ****   * All rights reserved.</center></h2>
  11:Src/freertos.c ****   *
  12:Src/freertos.c ****   * This software component is licensed by ST under Ultimate Liberty license
  13:Src/freertos.c ****   * SLA0044, the "License"; You may not use this file except in compliance with
ARM GAS  C:\Users\wup15j\AppData\Local\Temp\ccOEFcAH.s 			page 2


  14:Src/freertos.c ****   * the License. You may obtain a copy of the License at:
  15:Src/freertos.c ****   *                             www.st.com/SLA0044
  16:Src/freertos.c ****   *
  17:Src/freertos.c ****   ******************************************************************************
  18:Src/freertos.c ****   */
  19:Src/freertos.c **** /* USER CODE END Header */
  20:Src/freertos.c **** 
  21:Src/freertos.c **** /* Includes ------------------------------------------------------------------*/
  22:Src/freertos.c **** #include "FreeRTOS.h"
  23:Src/freertos.c **** #include "task.h"
  24:Src/freertos.c **** #include "main.h"
  25:Src/freertos.c **** #include "cmsis_os.h"
  26:Src/freertos.c **** #include "cantp.h"
  27:Src/freertos.c **** 
  28:Src/freertos.c **** /* Private includes ----------------------------------------------------------*/
  29:Src/freertos.c **** /* USER CODE BEGIN Includes */
  30:Src/freertos.c **** 
  31:Src/freertos.c **** /* USER CODE END Includes */
  32:Src/freertos.c **** 
  33:Src/freertos.c **** /* Private typedef -----------------------------------------------------------*/
  34:Src/freertos.c **** /* USER CODE BEGIN PTD */
  35:Src/freertos.c **** 
  36:Src/freertos.c **** /* USER CODE END PTD */
  37:Src/freertos.c **** 
  38:Src/freertos.c **** /* Private define ------------------------------------------------------------*/
  39:Src/freertos.c **** /* USER CODE BEGIN PD */
  40:Src/freertos.c **** 
  41:Src/freertos.c **** /* USER CODE END PD */
  42:Src/freertos.c **** 
  43:Src/freertos.c **** /* Private macro -------------------------------------------------------------*/
  44:Src/freertos.c **** /* USER CODE BEGIN PM */
  45:Src/freertos.c **** 
  46:Src/freertos.c **** /* USER CODE END PM */
  47:Src/freertos.c **** 
  48:Src/freertos.c **** /* Private variables ---------------------------------------------------------*/
  49:Src/freertos.c **** /* USER CODE BEGIN Variables */
  50:Src/freertos.c **** 
  51:Src/freertos.c **** /* USER CODE END Variables */
  52:Src/freertos.c **** osThreadId defaultTaskHandle;
  53:Src/freertos.c **** osThreadId LEDTaskHandle;
  54:Src/freertos.c **** osThreadId CANIFRXTaskHandle;
  55:Src/freertos.c **** osThreadId CANTPMFHandle;
  56:Src/freertos.c **** 
  57:Src/freertos.c **** /* Private function prototypes -----------------------------------------------*/
  58:Src/freertos.c **** /* USER CODE BEGIN FunctionPrototypes */
  59:Src/freertos.c **** 
  60:Src/freertos.c **** /* USER CODE END FunctionPrototypes */
  61:Src/freertos.c **** 
  62:Src/freertos.c **** void StartDefaultTask(void const * argument);
  63:Src/freertos.c **** void StartTask02(void const * argument);
  64:Src/freertos.c **** void StartTask03(void const * argument);
  65:Src/freertos.c **** void StartTask04(void const * argument);
  66:Src/freertos.c **** 
  67:Src/freertos.c **** void MX_FREERTOS_Init(void); /* (MISRA C 2004 rule 8.1) */
  68:Src/freertos.c **** 
  69:Src/freertos.c **** /**
  70:Src/freertos.c ****   * @brief  FreeRTOS initialization
ARM GAS  C:\Users\wup15j\AppData\Local\Temp\ccOEFcAH.s 			page 3


  71:Src/freertos.c ****   * @param  None
  72:Src/freertos.c ****   * @retval None
  73:Src/freertos.c ****   */
  74:Src/freertos.c **** void MX_FREERTOS_Init(void) {
  75:Src/freertos.c ****   /* USER CODE BEGIN Init */
  76:Src/freertos.c **** 
  77:Src/freertos.c ****   /* USER CODE END Init */
  78:Src/freertos.c **** 
  79:Src/freertos.c ****   /* USER CODE BEGIN RTOS_MUTEX */
  80:Src/freertos.c ****   /* add mutexes, ... */
  81:Src/freertos.c ****   /* USER CODE END RTOS_MUTEX */
  82:Src/freertos.c **** 
  83:Src/freertos.c ****   /* USER CODE BEGIN RTOS_SEMAPHORES */
  84:Src/freertos.c ****   /* add semaphores, ... */
  85:Src/freertos.c ****   /* USER CODE END RTOS_SEMAPHORES */
  86:Src/freertos.c **** 
  87:Src/freertos.c ****   /* USER CODE BEGIN RTOS_TIMERS */
  88:Src/freertos.c ****   /* start timers, add new ones, ... */
  89:Src/freertos.c ****   /* USER CODE END RTOS_TIMERS */
  90:Src/freertos.c **** 
  91:Src/freertos.c ****   /* USER CODE BEGIN RTOS_QUEUES */
  92:Src/freertos.c ****   /* add queues, ... */
  93:Src/freertos.c ****   /* USER CODE END RTOS_QUEUES */
  94:Src/freertos.c **** 
  95:Src/freertos.c ****   /* Create the thread(s) */
  96:Src/freertos.c ****   /* definition and creation of defaultTask */
  97:Src/freertos.c ****   osThreadDef(defaultTask, StartDefaultTask, osPriorityNormal, 0, 128);
  98:Src/freertos.c ****   defaultTaskHandle = osThreadCreate(osThread(defaultTask), NULL);
  99:Src/freertos.c **** 
 100:Src/freertos.c ****   /* definition and creation of LEDTask */
 101:Src/freertos.c ****   osThreadDef(LEDTask, StartTask02, osPriorityLow, 0, 128);
 102:Src/freertos.c ****   LEDTaskHandle = osThreadCreate(osThread(LEDTask), NULL);
 103:Src/freertos.c **** 
 104:Src/freertos.c ****   /* definition and creation of CANIFRXTask */
 105:Src/freertos.c ****   osThreadDef(CANIFRXTask, StartTask03, osPriorityBelowNormal, 0, 128);
 106:Src/freertos.c ****   CANIFRXTaskHandle = osThreadCreate(osThread(CANIFRXTask), NULL);
 107:Src/freertos.c **** 
 108:Src/freertos.c ****   /* definition and creation of CANTPMF */
 109:Src/freertos.c ****   osThreadDef(CANTPMF, StartTask04, osPriorityLow, 0, 128);
 110:Src/freertos.c ****   CANTPMFHandle = osThreadCreate(osThread(CANTPMF), NULL);
 111:Src/freertos.c **** 
 112:Src/freertos.c ****   /* USER CODE BEGIN RTOS_THREADS */
 113:Src/freertos.c ****   /* add threads, ... */
 114:Src/freertos.c ****   /* USER CODE END RTOS_THREADS */
 115:Src/freertos.c **** 
 116:Src/freertos.c **** }
 117:Src/freertos.c **** 
 118:Src/freertos.c **** /* USER CODE BEGIN Header_StartDefaultTask */
 119:Src/freertos.c **** /**
 120:Src/freertos.c ****   * @brief  Function implementing the defaultTask thread.
 121:Src/freertos.c ****   * @param  argument: Not used
 122:Src/freertos.c ****   * @retval None
 123:Src/freertos.c ****   */
 124:Src/freertos.c **** /* USER CODE END Header_StartDefaultTask */
 125:Src/freertos.c **** void StartDefaultTask(void const * argument)
 126:Src/freertos.c **** {
  40              		.loc 1 126 1 view -0
ARM GAS  C:\Users\wup15j\AppData\Local\Temp\ccOEFcAH.s 			page 4


  41              		.cfi_startproc
  42              		@ Volatile: function does not return.
  43              		@ args = 0, pretend = 0, frame = 0
  44              		@ frame_needed = 0, uses_anonymous_args = 0
  45              	.LVL0:
  46              		.loc 1 126 1 is_stmt 0 view .LVU1
  47 0000 08B5     		push	{r3, lr}
  48              	.LCFI0:
  49              		.cfi_def_cfa_offset 8
  50              		.cfi_offset 3, -8
  51              		.cfi_offset 14, -4
  52              	.LVL1:
  53              	.L2:
 127:Src/freertos.c **** 
 128:Src/freertos.c ****   /* USER CODE BEGIN StartDefaultTask */
 129:Src/freertos.c ****   /* Infinite loop */
 130:Src/freertos.c ****   for(;;)
  54              		.loc 1 130 3 is_stmt 1 discriminator 1 view .LVU2
 131:Src/freertos.c ****   {
 132:Src/freertos.c ****     osDelay(1);
  55              		.loc 1 132 5 discriminator 1 view .LVU3
  56 0002 0120     		movs	r0, #1
  57 0004 FFF7FEFF 		bl	osDelay
  58              	.LVL2:
 130:Src/freertos.c ****   {
  59              		.loc 1 130 8 discriminator 1 view .LVU4
  60 0008 FBE7     		b	.L2
  61              		.cfi_endproc
  62              	.LFE71:
  64              		.section	.text.StartTask02,"ax",%progbits
  65              		.align	1
  66              		.global	StartTask02
  67              		.syntax unified
  68              		.thumb
  69              		.thumb_func
  71              	StartTask02:
  72              	.LFB72:
 133:Src/freertos.c ****   }
 134:Src/freertos.c ****   /* USER CODE END StartDefaultTask */
 135:Src/freertos.c **** }
 136:Src/freertos.c **** 
 137:Src/freertos.c **** /* USER CODE BEGIN Header_StartTask02 */
 138:Src/freertos.c **** /**
 139:Src/freertos.c **** * @brief Function implementing the myTask02 thread.
 140:Src/freertos.c **** * @param argument: Not used
 141:Src/freertos.c **** * @retval None
 142:Src/freertos.c **** */
 143:Src/freertos.c **** /* USER CODE END Header_StartTask02 */
 144:Src/freertos.c **** void StartTask02(void const * argument)
 145:Src/freertos.c **** {
  73              		.loc 1 145 1 view -0
  74              		.cfi_startproc
  75              		@ Volatile: function does not return.
  76              		@ args = 0, pretend = 0, frame = 0
  77              		@ frame_needed = 0, uses_anonymous_args = 0
  78              	.LVL3:
  79              		.loc 1 145 1 is_stmt 0 view .LVU6
ARM GAS  C:\Users\wup15j\AppData\Local\Temp\ccOEFcAH.s 			page 5


  80 0000 08B5     		push	{r3, lr}
  81              	.LCFI1:
  82              		.cfi_def_cfa_offset 8
  83              		.cfi_offset 3, -8
  84              		.cfi_offset 14, -4
  85              	.LVL4:
  86              	.L5:
 146:Src/freertos.c ****   /* USER CODE BEGIN StartTask02 */
 147:Src/freertos.c ****   /* Infinite loop */
 148:Src/freertos.c ****   for(;;)
  87              		.loc 1 148 3 is_stmt 1 discriminator 1 view .LVU7
 149:Src/freertos.c ****   {
 150:Src/freertos.c ****     //HAL_GPIO_TogglePin(LED_GPIO_Port,LED_Pin);
 151:Src/freertos.c ****     osDelay(1000);
  88              		.loc 1 151 5 discriminator 1 view .LVU8
  89 0002 4FF47A70 		mov	r0, #1000
  90 0006 FFF7FEFF 		bl	osDelay
  91              	.LVL5:
 148:Src/freertos.c ****   {
  92              		.loc 1 148 8 discriminator 1 view .LVU9
  93 000a FAE7     		b	.L5
  94              		.cfi_endproc
  95              	.LFE72:
  97              		.section	.text.StartTask03,"ax",%progbits
  98              		.align	1
  99              		.global	StartTask03
 100              		.syntax unified
 101              		.thumb
 102              		.thumb_func
 104              	StartTask03:
 105              	.LFB73:
 152:Src/freertos.c ****   }
 153:Src/freertos.c ****   /* USER CODE END StartTask02 */
 154:Src/freertos.c **** }
 155:Src/freertos.c **** 
 156:Src/freertos.c **** /* USER CODE BEGIN Header_StartTask03 */
 157:Src/freertos.c **** /**
 158:Src/freertos.c **** * @brief Function implementing the CANIFRXTask thread.
 159:Src/freertos.c **** * @param argument: Not used
 160:Src/freertos.c **** * @retval None
 161:Src/freertos.c **** */
 162:Src/freertos.c **** /* USER CODE END Header_StartTask03 */
 163:Src/freertos.c **** void StartTask03(void const * argument)
 164:Src/freertos.c **** {
 106              		.loc 1 164 1 view -0
 107              		.cfi_startproc
 108              		@ Volatile: function does not return.
 109              		@ args = 0, pretend = 0, frame = 0
 110              		@ frame_needed = 0, uses_anonymous_args = 0
 111              	.LVL6:
 112              		.loc 1 164 1 is_stmt 0 view .LVU11
 113 0000 08B5     		push	{r3, lr}
 114              	.LCFI2:
 115              		.cfi_def_cfa_offset 8
 116              		.cfi_offset 3, -8
 117              		.cfi_offset 14, -4
 118              	.LVL7:
ARM GAS  C:\Users\wup15j\AppData\Local\Temp\ccOEFcAH.s 			page 6


 119              	.L8:
 165:Src/freertos.c ****   /* USER CODE BEGIN StartTask03 */
 166:Src/freertos.c ****   /* Infinite loop */
 167:Src/freertos.c ****   for(;;)
 120              		.loc 1 167 3 is_stmt 1 discriminator 1 view .LVU12
 121              	.LBB2:
 168:Src/freertos.c ****   {
 169:Src/freertos.c ****     CanIf_Receive();
 122              		.loc 1 169 5 discriminator 1 view .LVU13
 123 0002 FFF7FEFF 		bl	CanIf_Receive
 124              	.LVL8:
 170:Src/freertos.c ****     osDelay(1);
 125              		.loc 1 170 5 discriminator 1 view .LVU14
 126 0006 0120     		movs	r0, #1
 127 0008 FFF7FEFF 		bl	osDelay
 128              	.LVL9:
 129              	.LBE2:
 167:Src/freertos.c ****   {
 130              		.loc 1 167 8 discriminator 1 view .LVU15
 131 000c F9E7     		b	.L8
 132              		.cfi_endproc
 133              	.LFE73:
 135              		.section	.text.StartTask04,"ax",%progbits
 136              		.align	1
 137              		.global	StartTask04
 138              		.syntax unified
 139              		.thumb
 140              		.thumb_func
 142              	StartTask04:
 143              	.LFB74:
 171:Src/freertos.c ****   }
 172:Src/freertos.c ****   /* USER CODE END StartTask03 */
 173:Src/freertos.c **** }
 174:Src/freertos.c **** 
 175:Src/freertos.c **** /* USER CODE BEGIN Header_StartTask04 */
 176:Src/freertos.c **** /**
 177:Src/freertos.c **** * @brief Function implementing the CANTPMF thread.
 178:Src/freertos.c **** * @param argument: Not used
 179:Src/freertos.c **** * @retval None
 180:Src/freertos.c **** */
 181:Src/freertos.c **** /* USER CODE END Header_StartTask04 */
 182:Src/freertos.c **** void StartTask04(void const * argument)
 183:Src/freertos.c **** {
 144              		.loc 1 183 1 view -0
 145              		.cfi_startproc
 146              		@ Volatile: function does not return.
 147              		@ args = 0, pretend = 0, frame = 0
 148              		@ frame_needed = 0, uses_anonymous_args = 0
 149              	.LVL10:
 150              		.loc 1 183 1 is_stmt 0 view .LVU17
 151 0000 08B5     		push	{r3, lr}
 152              	.LCFI3:
 153              		.cfi_def_cfa_offset 8
 154              		.cfi_offset 3, -8
 155              		.cfi_offset 14, -4
 156              	.LVL11:
 157              	.L11:
ARM GAS  C:\Users\wup15j\AppData\Local\Temp\ccOEFcAH.s 			page 7


 184:Src/freertos.c ****   /* USER CODE BEGIN StartTask04 */
 185:Src/freertos.c ****   /* Infinite loop */
 186:Src/freertos.c ****   for(;;)
 158              		.loc 1 186 3 is_stmt 1 discriminator 1 view .LVU18
 187:Src/freertos.c ****   {
 188:Src/freertos.c ****     CanTp_MainFunction();
 159              		.loc 1 188 5 discriminator 1 view .LVU19
 160 0002 FFF7FEFF 		bl	CanTp_MainFunction
 161              	.LVL12:
 189:Src/freertos.c ****     osDelay(1);
 162              		.loc 1 189 5 discriminator 1 view .LVU20
 163 0006 0120     		movs	r0, #1
 164 0008 FFF7FEFF 		bl	osDelay
 165              	.LVL13:
 186:Src/freertos.c ****   {
 166              		.loc 1 186 8 discriminator 1 view .LVU21
 167 000c F9E7     		b	.L11
 168              		.cfi_endproc
 169              	.LFE74:
 171              		.section	.text.MX_FREERTOS_Init,"ax",%progbits
 172              		.align	1
 173              		.global	MX_FREERTOS_Init
 174              		.syntax unified
 175              		.thumb
 176              		.thumb_func
 178              	MX_FREERTOS_Init:
 179              	.LFB70:
  74:Src/freertos.c ****   /* USER CODE BEGIN Init */
 180              		.loc 1 74 29 view -0
 181              		.cfi_startproc
 182              		@ args = 0, pretend = 0, frame = 80
 183              		@ frame_needed = 0, uses_anonymous_args = 0
 184 0000 10B5     		push	{r4, lr}
 185              	.LCFI4:
 186              		.cfi_def_cfa_offset 8
 187              		.cfi_offset 4, -8
 188              		.cfi_offset 14, -4
 189 0002 94B0     		sub	sp, sp, #80
 190              	.LCFI5:
 191              		.cfi_def_cfa_offset 88
  97:Src/freertos.c ****   defaultTaskHandle = osThreadCreate(osThread(defaultTask), NULL);
 192              		.loc 1 97 3 view .LVU23
 193 0004 244C     		ldr	r4, .L15
 194 0006 0DF13C0C 		add	ip, sp, #60
 195 000a A646     		mov	lr, r4
 196 000c BEE80F00 		ldmia	lr!, {r0, r1, r2, r3}
 197 0010 ACE80F00 		stmia	ip!, {r0, r1, r2, r3}
 198 0014 DEF80030 		ldr	r3, [lr]
 199 0018 CCF80030 		str	r3, [ip]
  98:Src/freertos.c **** 
 200              		.loc 1 98 3 view .LVU24
  98:Src/freertos.c **** 
 201              		.loc 1 98 23 is_stmt 0 view .LVU25
 202 001c 0021     		movs	r1, #0
 203 001e 0FA8     		add	r0, sp, #60
 204 0020 FFF7FEFF 		bl	osThreadCreate
 205              	.LVL14:
ARM GAS  C:\Users\wup15j\AppData\Local\Temp\ccOEFcAH.s 			page 8


  98:Src/freertos.c **** 
 206              		.loc 1 98 21 view .LVU26
 207 0024 1D4B     		ldr	r3, .L15+4
 208 0026 1860     		str	r0, [r3]
 101:Src/freertos.c ****   LEDTaskHandle = osThreadCreate(osThread(LEDTask), NULL);
 209              		.loc 1 101 3 is_stmt 1 view .LVU27
 210 0028 0DF1280C 		add	ip, sp, #40
 211 002c 04F1140E 		add	lr, r4, #20
 212 0030 BEE80F00 		ldmia	lr!, {r0, r1, r2, r3}
 213 0034 ACE80F00 		stmia	ip!, {r0, r1, r2, r3}
 214 0038 DEF80030 		ldr	r3, [lr]
 215 003c CCF80030 		str	r3, [ip]
 102:Src/freertos.c **** 
 216              		.loc 1 102 3 view .LVU28
 102:Src/freertos.c **** 
 217              		.loc 1 102 19 is_stmt 0 view .LVU29
 218 0040 0021     		movs	r1, #0
 219 0042 0AA8     		add	r0, sp, #40
 220 0044 FFF7FEFF 		bl	osThreadCreate
 221              	.LVL15:
 102:Src/freertos.c **** 
 222              		.loc 1 102 17 view .LVU30
 223 0048 154B     		ldr	r3, .L15+8
 224 004a 1860     		str	r0, [r3]
 105:Src/freertos.c ****   CANIFRXTaskHandle = osThreadCreate(osThread(CANIFRXTask), NULL);
 225              		.loc 1 105 3 is_stmt 1 view .LVU31
 226 004c 0DF1140C 		add	ip, sp, #20
 227 0050 04F1280E 		add	lr, r4, #40
 228 0054 BEE80F00 		ldmia	lr!, {r0, r1, r2, r3}
 229 0058 ACE80F00 		stmia	ip!, {r0, r1, r2, r3}
 230 005c DEF80030 		ldr	r3, [lr]
 231 0060 CCF80030 		str	r3, [ip]
 106:Src/freertos.c **** 
 232              		.loc 1 106 3 view .LVU32
 106:Src/freertos.c **** 
 233              		.loc 1 106 23 is_stmt 0 view .LVU33
 234 0064 0021     		movs	r1, #0
 235 0066 05A8     		add	r0, sp, #20
 236 0068 FFF7FEFF 		bl	osThreadCreate
 237              	.LVL16:
 106:Src/freertos.c **** 
 238              		.loc 1 106 21 view .LVU34
 239 006c 0D4B     		ldr	r3, .L15+12
 240 006e 1860     		str	r0, [r3]
 109:Src/freertos.c ****   CANTPMFHandle = osThreadCreate(osThread(CANTPMF), NULL);
 241              		.loc 1 109 3 is_stmt 1 view .LVU35
 242 0070 EE46     		mov	lr, sp
 243 0072 04F13C0C 		add	ip, r4, #60
 244 0076 BCE80F00 		ldmia	ip!, {r0, r1, r2, r3}
 245 007a AEE80F00 		stmia	lr!, {r0, r1, r2, r3}
 246 007e DCF80030 		ldr	r3, [ip]
 247 0082 CEF80030 		str	r3, [lr]
 110:Src/freertos.c **** 
 248              		.loc 1 110 3 view .LVU36
 110:Src/freertos.c **** 
 249              		.loc 1 110 19 is_stmt 0 view .LVU37
 250 0086 0021     		movs	r1, #0
ARM GAS  C:\Users\wup15j\AppData\Local\Temp\ccOEFcAH.s 			page 9


 251 0088 6846     		mov	r0, sp
 252 008a FFF7FEFF 		bl	osThreadCreate
 253              	.LVL17:
 110:Src/freertos.c **** 
 254              		.loc 1 110 17 view .LVU38
 255 008e 064B     		ldr	r3, .L15+16
 256 0090 1860     		str	r0, [r3]
 116:Src/freertos.c **** 
 257              		.loc 1 116 1 view .LVU39
 258 0092 14B0     		add	sp, sp, #80
 259              	.LCFI6:
 260              		.cfi_def_cfa_offset 8
 261              		@ sp needed
 262 0094 10BD     		pop	{r4, pc}
 263              	.L16:
 264 0096 00BF     		.align	2
 265              	.L15:
 266 0098 00000000 		.word	.LANCHOR0
 267 009c 00000000 		.word	.LANCHOR1
 268 00a0 00000000 		.word	.LANCHOR2
 269 00a4 00000000 		.word	.LANCHOR3
 270 00a8 00000000 		.word	.LANCHOR4
 271              		.cfi_endproc
 272              	.LFE70:
 274              		.global	CANTPMFHandle
 275              		.global	CANIFRXTaskHandle
 276              		.global	LEDTaskHandle
 277              		.global	defaultTaskHandle
 278              		.section	.rodata
 279              		.align	2
 280              		.set	.LANCHOR0,. + 0
 281              	.LC8:
 282 0000 00000000 		.word	.LC0
 283 0004 00000000 		.word	StartDefaultTask
 284 0008 0000     		.short	0
 285 000a 0000     		.space	2
 286 000c 00000000 		.word	0
 287 0010 80000000 		.word	128
 288              	.LC9:
 289 0014 0C000000 		.word	.LC2
 290 0018 00000000 		.word	StartTask02
 291 001c FEFF     		.short	-2
 292 001e 0000     		.space	2
 293 0020 00000000 		.word	0
 294 0024 80000000 		.word	128
 295              	.LC10:
 296 0028 14000000 		.word	.LC4
 297 002c 00000000 		.word	StartTask03
 298 0030 FFFF     		.short	-1
 299 0032 0000     		.space	2
 300 0034 00000000 		.word	0
 301 0038 80000000 		.word	128
 302              	.LC11:
 303 003c 20000000 		.word	.LC6
 304 0040 00000000 		.word	StartTask04
 305 0044 FEFF     		.short	-2
 306 0046 0000     		.space	2
ARM GAS  C:\Users\wup15j\AppData\Local\Temp\ccOEFcAH.s 			page 10


 307 0048 00000000 		.word	0
 308 004c 80000000 		.word	128
 309              		.section	.bss.CANIFRXTaskHandle,"aw",%nobits
 310              		.align	2
 311              		.set	.LANCHOR3,. + 0
 314              	CANIFRXTaskHandle:
 315 0000 00000000 		.space	4
 316              		.section	.bss.CANTPMFHandle,"aw",%nobits
 317              		.align	2
 318              		.set	.LANCHOR4,. + 0
 321              	CANTPMFHandle:
 322 0000 00000000 		.space	4
 323              		.section	.bss.LEDTaskHandle,"aw",%nobits
 324              		.align	2
 325              		.set	.LANCHOR2,. + 0
 328              	LEDTaskHandle:
 329 0000 00000000 		.space	4
 330              		.section	.bss.defaultTaskHandle,"aw",%nobits
 331              		.align	2
 332              		.set	.LANCHOR1,. + 0
 335              	defaultTaskHandle:
 336 0000 00000000 		.space	4
 337              		.text
 338              	.Letext0:
 339              		.file 2 "c:\\program files (x86)\\gnu arm embedded toolchain\\10 2021.10\\arm-none-eabi\\include\\
 340              		.file 3 "c:\\program files (x86)\\gnu arm embedded toolchain\\10 2021.10\\arm-none-eabi\\include\\
 341              		.file 4 "Middlewares/Third_Party/FreeRTOS/Source/include/task.h"
 342              		.file 5 "Middlewares/Third_Party/FreeRTOS/Source/CMSIS_RTOS/cmsis_os.h"
 343              		.file 6 "Inc/cantp.h"
ARM GAS  C:\Users\wup15j\AppData\Local\Temp\ccOEFcAH.s 			page 11

