ARM GAS  C:\Users\wup15j\AppData\Local\Temp\cceedoYc.s 			page 1


   1              		.cpu cortex-m3
   2              		.arch armv7-m
   3              		.fpu softvfp
   4              		.eabi_attribute 20, 1
   5              		.eabi_attribute 21, 1
   6              		.eabi_attribute 23, 3
   7              		.eabi_attribute 24, 1
   8              		.eabi_attribute 25, 1
   9              		.eabi_attribute 26, 1
  10              		.eabi_attribute 30, 1
  11              		.eabi_attribute 34, 1
  12              		.eabi_attribute 18, 4
  13              		.file	"freertos.c"
  14              		.section	.rodata.str1.4,"aMS",%progbits,1
  15              		.align	2
  16              	.LC0:
  17 0000 64656661 		.ascii	"defaultTask\000"
  17      756C7454 
  17      61736B00 
  18              		.align	2
  19              	.LC2:
  20 000c 4C454454 		.ascii	"LEDTask\000"
  20      61736B00 
  21              		.align	2
  22              	.LC4:
  23 0014 43414E49 		.ascii	"CANIFRXTask\000"
  23      46525854 
  23      61736B00 
  24              		.text
  25              	.Ltext0:
  26              		.cfi_sections	.debug_frame
  27              		.section	.text.StartDefaultTask,"ax",%progbits
  28              		.align	1
  29              		.global	StartDefaultTask
  30              		.syntax unified
  31              		.thumb
  32              		.thumb_func
  34              	StartDefaultTask:
  35              	.LFB71:
  36              		.file 1 "Src/freertos.c"
   1:Src/freertos.c **** /* USER CODE BEGIN Header */
   2:Src/freertos.c **** /**
   3:Src/freertos.c ****   ******************************************************************************
   4:Src/freertos.c ****   * File Name          : freertos.c
   5:Src/freertos.c ****   * Description        : Code for freertos applications
   6:Src/freertos.c ****   ******************************************************************************
   7:Src/freertos.c ****   * @attention
   8:Src/freertos.c ****   *
   9:Src/freertos.c ****   * <h2><center>&copy; Copyright (c) 2024 STMicroelectronics.
  10:Src/freertos.c ****   * All rights reserved.</center></h2>
  11:Src/freertos.c ****   *
  12:Src/freertos.c ****   * This software component is licensed by ST under Ultimate Liberty license
  13:Src/freertos.c ****   * SLA0044, the "License"; You may not use this file except in compliance with
  14:Src/freertos.c ****   * the License. You may obtain a copy of the License at:
  15:Src/freertos.c ****   *                             www.st.com/SLA0044
  16:Src/freertos.c ****   *
  17:Src/freertos.c ****   ******************************************************************************
ARM GAS  C:\Users\wup15j\AppData\Local\Temp\cceedoYc.s 			page 2


  18:Src/freertos.c ****   */
  19:Src/freertos.c **** /* USER CODE END Header */
  20:Src/freertos.c **** 
  21:Src/freertos.c **** /* Includes ------------------------------------------------------------------*/
  22:Src/freertos.c **** #include "FreeRTOS.h"
  23:Src/freertos.c **** #include "task.h"
  24:Src/freertos.c **** #include "main.h"
  25:Src/freertos.c **** #include "cmsis_os.h"
  26:Src/freertos.c **** #include "cantp.h"
  27:Src/freertos.c **** 
  28:Src/freertos.c **** /* Private includes ----------------------------------------------------------*/
  29:Src/freertos.c **** /* USER CODE BEGIN Includes */
  30:Src/freertos.c **** 
  31:Src/freertos.c **** /* USER CODE END Includes */
  32:Src/freertos.c **** 
  33:Src/freertos.c **** /* Private typedef -----------------------------------------------------------*/
  34:Src/freertos.c **** /* USER CODE BEGIN PTD */
  35:Src/freertos.c **** 
  36:Src/freertos.c **** /* USER CODE END PTD */
  37:Src/freertos.c **** 
  38:Src/freertos.c **** /* Private define ------------------------------------------------------------*/
  39:Src/freertos.c **** /* USER CODE BEGIN PD */
  40:Src/freertos.c **** 
  41:Src/freertos.c **** /* USER CODE END PD */
  42:Src/freertos.c **** 
  43:Src/freertos.c **** /* Private macro -------------------------------------------------------------*/
  44:Src/freertos.c **** /* USER CODE BEGIN PM */
  45:Src/freertos.c **** 
  46:Src/freertos.c **** /* USER CODE END PM */
  47:Src/freertos.c **** 
  48:Src/freertos.c **** /* Private variables ---------------------------------------------------------*/
  49:Src/freertos.c **** /* USER CODE BEGIN Variables */
  50:Src/freertos.c **** 
  51:Src/freertos.c **** /* USER CODE END Variables */
  52:Src/freertos.c **** osThreadId defaultTaskHandle;
  53:Src/freertos.c **** osThreadId LEDTaskHandle;
  54:Src/freertos.c **** osThreadId CANIFRXTaskHandle;
  55:Src/freertos.c **** osThreadId CANTPMFHandle;
  56:Src/freertos.c **** 
  57:Src/freertos.c **** /* Private function prototypes -----------------------------------------------*/
  58:Src/freertos.c **** /* USER CODE BEGIN FunctionPrototypes */
  59:Src/freertos.c **** 
  60:Src/freertos.c **** /* USER CODE END FunctionPrototypes */
  61:Src/freertos.c **** 
  62:Src/freertos.c **** void StartDefaultTask(void const * argument);
  63:Src/freertos.c **** void StartTask02(void const * argument);
  64:Src/freertos.c **** void StartTask03(void const * argument);
  65:Src/freertos.c **** void StartTask04(void const * argument);
  66:Src/freertos.c **** 
  67:Src/freertos.c **** void MX_FREERTOS_Init(void); /* (MISRA C 2004 rule 8.1) */
  68:Src/freertos.c **** 
  69:Src/freertos.c **** /**
  70:Src/freertos.c ****   * @brief  FreeRTOS initialization
  71:Src/freertos.c ****   * @param  None
  72:Src/freertos.c ****   * @retval None
  73:Src/freertos.c ****   */
  74:Src/freertos.c **** void MX_FREERTOS_Init(void) {
ARM GAS  C:\Users\wup15j\AppData\Local\Temp\cceedoYc.s 			page 3


  75:Src/freertos.c ****   /* USER CODE BEGIN Init */
  76:Src/freertos.c **** 
  77:Src/freertos.c ****   /* USER CODE END Init */
  78:Src/freertos.c **** 
  79:Src/freertos.c ****   /* USER CODE BEGIN RTOS_MUTEX */
  80:Src/freertos.c ****   /* add mutexes, ... */
  81:Src/freertos.c ****   /* USER CODE END RTOS_MUTEX */
  82:Src/freertos.c **** 
  83:Src/freertos.c ****   /* USER CODE BEGIN RTOS_SEMAPHORES */
  84:Src/freertos.c ****   /* add semaphores, ... */
  85:Src/freertos.c ****   /* USER CODE END RTOS_SEMAPHORES */
  86:Src/freertos.c **** 
  87:Src/freertos.c ****   /* USER CODE BEGIN RTOS_TIMERS */
  88:Src/freertos.c ****   /* start timers, add new ones, ... */
  89:Src/freertos.c ****   /* USER CODE END RTOS_TIMERS */
  90:Src/freertos.c **** 
  91:Src/freertos.c ****   /* USER CODE BEGIN RTOS_QUEUES */
  92:Src/freertos.c ****   /* add queues, ... */
  93:Src/freertos.c ****   /* USER CODE END RTOS_QUEUES */
  94:Src/freertos.c **** 
  95:Src/freertos.c ****   /* Create the thread(s) */
  96:Src/freertos.c ****   /* definition and creation of defaultTask */
  97:Src/freertos.c ****   osThreadDef(defaultTask, StartDefaultTask, osPriorityNormal, 0, 128);
  98:Src/freertos.c ****   defaultTaskHandle = osThreadCreate(osThread(defaultTask), NULL);
  99:Src/freertos.c **** 
 100:Src/freertos.c ****   /* definition and creation of LEDTask */
 101:Src/freertos.c ****   osThreadDef(LEDTask, StartTask02, osPriorityLow, 0, 128);
 102:Src/freertos.c ****   LEDTaskHandle = osThreadCreate(osThread(LEDTask), NULL);
 103:Src/freertos.c **** 
 104:Src/freertos.c ****   /* definition and creation of CANIFRXTask */
 105:Src/freertos.c ****   osThreadDef(CANIFRXTask, StartTask03, osPriorityBelowNormal, 0, 128);
 106:Src/freertos.c ****   CANIFRXTaskHandle = osThreadCreate(osThread(CANIFRXTask), NULL);
 107:Src/freertos.c **** 
 108:Src/freertos.c ****   /* definition and creation of CANTPMF */
 109:Src/freertos.c ****   // osThreadDef(CANTPMF, StartTask04, osPriorityLow, 0, 128);
 110:Src/freertos.c ****   // CANTPMFHandle = osThreadCreate(osThread(CANTPMF), NULL);
 111:Src/freertos.c **** 
 112:Src/freertos.c ****   /* USER CODE BEGIN RTOS_THREADS */
 113:Src/freertos.c ****   /* add threads, ... */
 114:Src/freertos.c ****   /* USER CODE END RTOS_THREADS */
 115:Src/freertos.c **** 
 116:Src/freertos.c **** }
 117:Src/freertos.c **** 
 118:Src/freertos.c **** /* USER CODE BEGIN Header_StartDefaultTask */
 119:Src/freertos.c **** /**
 120:Src/freertos.c ****   * @brief  Function implementing the defaultTask thread.
 121:Src/freertos.c ****   * @param  argument: Not used
 122:Src/freertos.c ****   * @retval None
 123:Src/freertos.c ****   */
 124:Src/freertos.c **** /* USER CODE END Header_StartDefaultTask */
 125:Src/freertos.c **** void StartDefaultTask(void const * argument)
 126:Src/freertos.c **** {
  37              		.loc 1 126 1 view -0
  38              		.cfi_startproc
  39              		@ Volatile: function does not return.
  40              		@ args = 0, pretend = 0, frame = 0
  41              		@ frame_needed = 0, uses_anonymous_args = 0
ARM GAS  C:\Users\wup15j\AppData\Local\Temp\cceedoYc.s 			page 4


  42              	.LVL0:
  43              		.loc 1 126 1 is_stmt 0 view .LVU1
  44 0000 08B5     		push	{r3, lr}
  45              	.LCFI0:
  46              		.cfi_def_cfa_offset 8
  47              		.cfi_offset 3, -8
  48              		.cfi_offset 14, -4
  49              	.LVL1:
  50              	.L2:
 127:Src/freertos.c **** 
 128:Src/freertos.c ****   /* USER CODE BEGIN StartDefaultTask */
 129:Src/freertos.c ****   /* Infinite loop */
 130:Src/freertos.c ****   for(;;)
  51              		.loc 1 130 3 is_stmt 1 discriminator 1 view .LVU2
 131:Src/freertos.c ****   {
 132:Src/freertos.c ****     osDelay(1);
  52              		.loc 1 132 5 discriminator 1 view .LVU3
  53 0002 0120     		movs	r0, #1
  54 0004 FFF7FEFF 		bl	osDelay
  55              	.LVL2:
 130:Src/freertos.c ****   {
  56              		.loc 1 130 8 discriminator 1 view .LVU4
  57 0008 FBE7     		b	.L2
  58              		.cfi_endproc
  59              	.LFE71:
  61              		.section	.text.StartTask02,"ax",%progbits
  62              		.align	1
  63              		.global	StartTask02
  64              		.syntax unified
  65              		.thumb
  66              		.thumb_func
  68              	StartTask02:
  69              	.LFB72:
 133:Src/freertos.c ****   }
 134:Src/freertos.c ****   /* USER CODE END StartDefaultTask */
 135:Src/freertos.c **** }
 136:Src/freertos.c **** 
 137:Src/freertos.c **** /* USER CODE BEGIN Header_StartTask02 */
 138:Src/freertos.c **** /**
 139:Src/freertos.c **** * @brief Function implementing the myTask02 thread.
 140:Src/freertos.c **** * @param argument: Not used
 141:Src/freertos.c **** * @retval None
 142:Src/freertos.c **** */
 143:Src/freertos.c **** /* USER CODE END Header_StartTask02 */
 144:Src/freertos.c **** void StartTask02(void const * argument)
 145:Src/freertos.c **** {
  70              		.loc 1 145 1 view -0
  71              		.cfi_startproc
  72              		@ Volatile: function does not return.
  73              		@ args = 0, pretend = 0, frame = 0
  74              		@ frame_needed = 0, uses_anonymous_args = 0
  75              	.LVL3:
  76              		.loc 1 145 1 is_stmt 0 view .LVU6
  77 0000 08B5     		push	{r3, lr}
  78              	.LCFI1:
  79              		.cfi_def_cfa_offset 8
  80              		.cfi_offset 3, -8
ARM GAS  C:\Users\wup15j\AppData\Local\Temp\cceedoYc.s 			page 5


  81              		.cfi_offset 14, -4
  82              	.LVL4:
  83              	.L5:
 146:Src/freertos.c ****   /* USER CODE BEGIN StartTask02 */
 147:Src/freertos.c ****   /* Infinite loop */
 148:Src/freertos.c ****   for(;;)
  84              		.loc 1 148 3 is_stmt 1 discriminator 1 view .LVU7
 149:Src/freertos.c ****   {
 150:Src/freertos.c ****     CanTp_MainFunction();
  85              		.loc 1 150 5 discriminator 1 view .LVU8
  86 0002 FFF7FEFF 		bl	CanTp_MainFunction
  87              	.LVL5:
 151:Src/freertos.c ****     //HAL_GPIO_TogglePin(LED_GPIO_Port,LED_Pin);
 152:Src/freertos.c ****     osDelay(1);
  88              		.loc 1 152 5 discriminator 1 view .LVU9
  89 0006 0120     		movs	r0, #1
  90 0008 FFF7FEFF 		bl	osDelay
  91              	.LVL6:
 148:Src/freertos.c ****   {
  92              		.loc 1 148 8 discriminator 1 view .LVU10
  93 000c F9E7     		b	.L5
  94              		.cfi_endproc
  95              	.LFE72:
  97              		.section	.text.StartTask03,"ax",%progbits
  98              		.align	1
  99              		.global	StartTask03
 100              		.syntax unified
 101              		.thumb
 102              		.thumb_func
 104              	StartTask03:
 105              	.LFB73:
 153:Src/freertos.c ****   }
 154:Src/freertos.c ****   /* USER CODE END StartTask02 */
 155:Src/freertos.c **** }
 156:Src/freertos.c **** 
 157:Src/freertos.c **** /* USER CODE BEGIN Header_StartTask03 */
 158:Src/freertos.c **** /**
 159:Src/freertos.c **** * @brief Function implementing the CANIFRXTask thread.
 160:Src/freertos.c **** * @param argument: Not used
 161:Src/freertos.c **** * @retval None
 162:Src/freertos.c **** */
 163:Src/freertos.c **** /* USER CODE END Header_StartTask03 */
 164:Src/freertos.c **** void StartTask03(void const * argument)
 165:Src/freertos.c **** {
 106              		.loc 1 165 1 view -0
 107              		.cfi_startproc
 108              		@ Volatile: function does not return.
 109              		@ args = 0, pretend = 0, frame = 0
 110              		@ frame_needed = 0, uses_anonymous_args = 0
 111              	.LVL7:
 112              		.loc 1 165 1 is_stmt 0 view .LVU12
 113 0000 08B5     		push	{r3, lr}
 114              	.LCFI2:
 115              		.cfi_def_cfa_offset 8
 116              		.cfi_offset 3, -8
 117              		.cfi_offset 14, -4
 118              	.LVL8:
ARM GAS  C:\Users\wup15j\AppData\Local\Temp\cceedoYc.s 			page 6


 119              	.L8:
 166:Src/freertos.c ****   /* USER CODE BEGIN StartTask03 */
 167:Src/freertos.c ****   /* Infinite loop */
 168:Src/freertos.c ****   for(;;)
 120              		.loc 1 168 3 is_stmt 1 discriminator 1 view .LVU13
 121              	.LBB2:
 169:Src/freertos.c ****   {
 170:Src/freertos.c ****     CanIf_Receive();
 122              		.loc 1 170 5 discriminator 1 view .LVU14
 123 0002 FFF7FEFF 		bl	CanIf_Receive
 124              	.LVL9:
 171:Src/freertos.c ****     osDelay(1);
 125              		.loc 1 171 5 discriminator 1 view .LVU15
 126 0006 0120     		movs	r0, #1
 127 0008 FFF7FEFF 		bl	osDelay
 128              	.LVL10:
 129              	.LBE2:
 168:Src/freertos.c ****   {
 130              		.loc 1 168 8 discriminator 1 view .LVU16
 131 000c F9E7     		b	.L8
 132              		.cfi_endproc
 133              	.LFE73:
 135              		.section	.text.MX_FREERTOS_Init,"ax",%progbits
 136              		.align	1
 137              		.global	MX_FREERTOS_Init
 138              		.syntax unified
 139              		.thumb
 140              		.thumb_func
 142              	MX_FREERTOS_Init:
 143              	.LFB70:
  74:Src/freertos.c ****   /* USER CODE BEGIN Init */
 144              		.loc 1 74 29 view -0
 145              		.cfi_startproc
 146              		@ args = 0, pretend = 0, frame = 64
 147              		@ frame_needed = 0, uses_anonymous_args = 0
 148 0000 10B5     		push	{r4, lr}
 149              	.LCFI3:
 150              		.cfi_def_cfa_offset 8
 151              		.cfi_offset 4, -8
 152              		.cfi_offset 14, -4
 153 0002 90B0     		sub	sp, sp, #64
 154              	.LCFI4:
 155              		.cfi_def_cfa_offset 72
  97:Src/freertos.c ****   defaultTaskHandle = osThreadCreate(osThread(defaultTask), NULL);
 156              		.loc 1 97 3 view .LVU18
 157 0004 1B4C     		ldr	r4, .L12
 158 0006 0DF12C0C 		add	ip, sp, #44
 159 000a A646     		mov	lr, r4
 160 000c BEE80F00 		ldmia	lr!, {r0, r1, r2, r3}
 161 0010 ACE80F00 		stmia	ip!, {r0, r1, r2, r3}
 162 0014 DEF80030 		ldr	r3, [lr]
 163 0018 CCF80030 		str	r3, [ip]
  98:Src/freertos.c **** 
 164              		.loc 1 98 3 view .LVU19
  98:Src/freertos.c **** 
 165              		.loc 1 98 23 is_stmt 0 view .LVU20
 166 001c 0021     		movs	r1, #0
ARM GAS  C:\Users\wup15j\AppData\Local\Temp\cceedoYc.s 			page 7


 167 001e 0BA8     		add	r0, sp, #44
 168 0020 FFF7FEFF 		bl	osThreadCreate
 169              	.LVL11:
  98:Src/freertos.c **** 
 170              		.loc 1 98 21 view .LVU21
 171 0024 144B     		ldr	r3, .L12+4
 172 0026 1860     		str	r0, [r3]
 101:Src/freertos.c ****   LEDTaskHandle = osThreadCreate(osThread(LEDTask), NULL);
 173              		.loc 1 101 3 is_stmt 1 view .LVU22
 174 0028 0DF1180C 		add	ip, sp, #24
 175 002c 04F1140E 		add	lr, r4, #20
 176 0030 BEE80F00 		ldmia	lr!, {r0, r1, r2, r3}
 177 0034 ACE80F00 		stmia	ip!, {r0, r1, r2, r3}
 178 0038 DEF80030 		ldr	r3, [lr]
 179 003c CCF80030 		str	r3, [ip]
 102:Src/freertos.c **** 
 180              		.loc 1 102 3 view .LVU23
 102:Src/freertos.c **** 
 181              		.loc 1 102 19 is_stmt 0 view .LVU24
 182 0040 0021     		movs	r1, #0
 183 0042 06A8     		add	r0, sp, #24
 184 0044 FFF7FEFF 		bl	osThreadCreate
 185              	.LVL12:
 102:Src/freertos.c **** 
 186              		.loc 1 102 17 view .LVU25
 187 0048 0C4B     		ldr	r3, .L12+8
 188 004a 1860     		str	r0, [r3]
 105:Src/freertos.c ****   CANIFRXTaskHandle = osThreadCreate(osThread(CANIFRXTask), NULL);
 189              		.loc 1 105 3 is_stmt 1 view .LVU26
 190 004c 0DF1040E 		add	lr, sp, #4
 191 0050 04F1280C 		add	ip, r4, #40
 192 0054 BCE80F00 		ldmia	ip!, {r0, r1, r2, r3}
 193 0058 AEE80F00 		stmia	lr!, {r0, r1, r2, r3}
 194 005c DCF80030 		ldr	r3, [ip]
 195 0060 CEF80030 		str	r3, [lr]
 106:Src/freertos.c **** 
 196              		.loc 1 106 3 view .LVU27
 106:Src/freertos.c **** 
 197              		.loc 1 106 23 is_stmt 0 view .LVU28
 198 0064 0021     		movs	r1, #0
 199 0066 01A8     		add	r0, sp, #4
 200 0068 FFF7FEFF 		bl	osThreadCreate
 201              	.LVL13:
 106:Src/freertos.c **** 
 202              		.loc 1 106 21 view .LVU29
 203 006c 044B     		ldr	r3, .L12+12
 204 006e 1860     		str	r0, [r3]
 116:Src/freertos.c **** 
 205              		.loc 1 116 1 view .LVU30
 206 0070 10B0     		add	sp, sp, #64
 207              	.LCFI5:
 208              		.cfi_def_cfa_offset 8
 209              		@ sp needed
 210 0072 10BD     		pop	{r4, pc}
 211              	.L13:
 212              		.align	2
 213              	.L12:
ARM GAS  C:\Users\wup15j\AppData\Local\Temp\cceedoYc.s 			page 8


 214 0074 00000000 		.word	.LANCHOR0
 215 0078 00000000 		.word	.LANCHOR1
 216 007c 00000000 		.word	.LANCHOR2
 217 0080 00000000 		.word	.LANCHOR3
 218              		.cfi_endproc
 219              	.LFE70:
 221              		.global	CANTPMFHandle
 222              		.global	CANIFRXTaskHandle
 223              		.global	LEDTaskHandle
 224              		.global	defaultTaskHandle
 225              		.section	.rodata
 226              		.align	2
 227              		.set	.LANCHOR0,. + 0
 228              	.LC6:
 229 0000 00000000 		.word	.LC0
 230 0004 00000000 		.word	StartDefaultTask
 231 0008 0000     		.short	0
 232 000a 0000     		.space	2
 233 000c 00000000 		.word	0
 234 0010 80000000 		.word	128
 235              	.LC7:
 236 0014 0C000000 		.word	.LC2
 237 0018 00000000 		.word	StartTask02
 238 001c FEFF     		.short	-2
 239 001e 0000     		.space	2
 240 0020 00000000 		.word	0
 241 0024 80000000 		.word	128
 242              	.LC8:
 243 0028 14000000 		.word	.LC4
 244 002c 00000000 		.word	StartTask03
 245 0030 FFFF     		.short	-1
 246 0032 0000     		.space	2
 247 0034 00000000 		.word	0
 248 0038 80000000 		.word	128
 249              		.section	.bss.CANIFRXTaskHandle,"aw",%nobits
 250              		.align	2
 251              		.set	.LANCHOR3,. + 0
 254              	CANIFRXTaskHandle:
 255 0000 00000000 		.space	4
 256              		.section	.bss.CANTPMFHandle,"aw",%nobits
 257              		.align	2
 260              	CANTPMFHandle:
 261 0000 00000000 		.space	4
 262              		.section	.bss.LEDTaskHandle,"aw",%nobits
 263              		.align	2
 264              		.set	.LANCHOR2,. + 0
 267              	LEDTaskHandle:
 268 0000 00000000 		.space	4
 269              		.section	.bss.defaultTaskHandle,"aw",%nobits
 270              		.align	2
 271              		.set	.LANCHOR1,. + 0
 274              	defaultTaskHandle:
 275 0000 00000000 		.space	4
 276              		.text
 277              	.Letext0:
 278              		.file 2 "c:\\program files (x86)\\gnu arm embedded toolchain\\10 2021.10\\arm-none-eabi\\include\\
 279              		.file 3 "c:\\program files (x86)\\gnu arm embedded toolchain\\10 2021.10\\arm-none-eabi\\include\\
ARM GAS  C:\Users\wup15j\AppData\Local\Temp\cceedoYc.s 			page 9


 280              		.file 4 "Middlewares/Third_Party/FreeRTOS/Source/include/task.h"
 281              		.file 5 "Middlewares/Third_Party/FreeRTOS/Source/CMSIS_RTOS/cmsis_os.h"
 282              		.file 6 "Inc/cantp.h"
ARM GAS  C:\Users\wup15j\AppData\Local\Temp\cceedoYc.s 			page 10


DEFINED SYMBOLS
                            *ABS*:00000000 freertos.c
C:\Users\wup15j\AppData\Local\Temp\cceedoYc.s:15     .rodata.str1.4:00000000 $d
C:\Users\wup15j\AppData\Local\Temp\cceedoYc.s:28     .text.StartDefaultTask:00000000 $t
C:\Users\wup15j\AppData\Local\Temp\cceedoYc.s:34     .text.StartDefaultTask:00000000 StartDefaultTask
C:\Users\wup15j\AppData\Local\Temp\cceedoYc.s:62     .text.StartTask02:00000000 $t
C:\Users\wup15j\AppData\Local\Temp\cceedoYc.s:68     .text.StartTask02:00000000 StartTask02
C:\Users\wup15j\AppData\Local\Temp\cceedoYc.s:98     .text.StartTask03:00000000 $t
C:\Users\wup15j\AppData\Local\Temp\cceedoYc.s:104    .text.StartTask03:00000000 StartTask03
C:\Users\wup15j\AppData\Local\Temp\cceedoYc.s:136    .text.MX_FREERTOS_Init:00000000 $t
C:\Users\wup15j\AppData\Local\Temp\cceedoYc.s:142    .text.MX_FREERTOS_Init:00000000 MX_FREERTOS_Init
C:\Users\wup15j\AppData\Local\Temp\cceedoYc.s:214    .text.MX_FREERTOS_Init:00000074 $d
C:\Users\wup15j\AppData\Local\Temp\cceedoYc.s:260    .bss.CANTPMFHandle:00000000 CANTPMFHandle
C:\Users\wup15j\AppData\Local\Temp\cceedoYc.s:254    .bss.CANIFRXTaskHandle:00000000 CANIFRXTaskHandle
C:\Users\wup15j\AppData\Local\Temp\cceedoYc.s:267    .bss.LEDTaskHandle:00000000 LEDTaskHandle
C:\Users\wup15j\AppData\Local\Temp\cceedoYc.s:274    .bss.defaultTaskHandle:00000000 defaultTaskHandle
C:\Users\wup15j\AppData\Local\Temp\cceedoYc.s:226    .rodata:00000000 $d
C:\Users\wup15j\AppData\Local\Temp\cceedoYc.s:250    .bss.CANIFRXTaskHandle:00000000 $d
C:\Users\wup15j\AppData\Local\Temp\cceedoYc.s:257    .bss.CANTPMFHandle:00000000 $d
C:\Users\wup15j\AppData\Local\Temp\cceedoYc.s:263    .bss.LEDTaskHandle:00000000 $d
C:\Users\wup15j\AppData\Local\Temp\cceedoYc.s:270    .bss.defaultTaskHandle:00000000 $d

UNDEFINED SYMBOLS
osDelay
CanTp_MainFunction
CanIf_Receive
osThreadCreate
