ARM GAS  C:\Users\wup15j\AppData\Local\Temp\cccz2PDA.s 			page 1


   1              		.cpu cortex-m3
   2              		.arch armv7-m
   3              		.fpu softvfp
   4              		.eabi_attribute 20, 1
   5              		.eabi_attribute 21, 1
   6              		.eabi_attribute 23, 3
   7              		.eabi_attribute 24, 1
   8              		.eabi_attribute 25, 1
   9              		.eabi_attribute 26, 1
  10              		.eabi_attribute 30, 1
  11              		.eabi_attribute 34, 1
  12              		.eabi_attribute 18, 4
  13              		.file	"stm32f1xx_it.c"
  14              		.text
  15              	.Ltext0:
  16              		.cfi_sections	.debug_frame
  17              		.section	.text.NMI_Handler,"ax",%progbits
  18              		.align	1
  19              		.global	NMI_Handler
  20              		.syntax unified
  21              		.thumb
  22              		.thumb_func
  24              	NMI_Handler:
  25              	.LFB70:
  26              		.file 1 "Src/stm32f1xx_it.c"
   1:Src/stm32f1xx_it.c **** /* USER CODE BEGIN Header */
   2:Src/stm32f1xx_it.c **** /**
   3:Src/stm32f1xx_it.c ****   ******************************************************************************
   4:Src/stm32f1xx_it.c ****   * @file    stm32f1xx_it.c
   5:Src/stm32f1xx_it.c ****   * @brief   Interrupt Service Routines.
   6:Src/stm32f1xx_it.c ****   ******************************************************************************
   7:Src/stm32f1xx_it.c ****   * @attention
   8:Src/stm32f1xx_it.c ****   *
   9:Src/stm32f1xx_it.c ****   * <h2><center>&copy; Copyright (c) 2024 STMicroelectronics.
  10:Src/stm32f1xx_it.c ****   * All rights reserved.</center></h2>
  11:Src/stm32f1xx_it.c ****   *
  12:Src/stm32f1xx_it.c ****   * This software component is licensed by ST under BSD 3-Clause license,
  13:Src/stm32f1xx_it.c ****   * the "License"; You may not use this file except in compliance with the
  14:Src/stm32f1xx_it.c ****   * License. You may obtain a copy of the License at:
  15:Src/stm32f1xx_it.c ****   *                        opensource.org/licenses/BSD-3-Clause
  16:Src/stm32f1xx_it.c ****   *
  17:Src/stm32f1xx_it.c ****   ******************************************************************************
  18:Src/stm32f1xx_it.c ****   */
  19:Src/stm32f1xx_it.c **** /* USER CODE END Header */
  20:Src/stm32f1xx_it.c **** 
  21:Src/stm32f1xx_it.c **** /* Includes ------------------------------------------------------------------*/
  22:Src/stm32f1xx_it.c **** #include "main.h"
  23:Src/stm32f1xx_it.c **** #include "stm32f1xx_it.h"
  24:Src/stm32f1xx_it.c **** #include "FreeRTOS.h"
  25:Src/stm32f1xx_it.c **** #include "task.h"
  26:Src/stm32f1xx_it.c **** /* Private includes ----------------------------------------------------------*/
  27:Src/stm32f1xx_it.c **** /* USER CODE BEGIN Includes */
  28:Src/stm32f1xx_it.c **** /* USER CODE END Includes */
  29:Src/stm32f1xx_it.c **** 
  30:Src/stm32f1xx_it.c **** /* Private typedef -----------------------------------------------------------*/
  31:Src/stm32f1xx_it.c **** /* USER CODE BEGIN TD */
  32:Src/stm32f1xx_it.c **** 
ARM GAS  C:\Users\wup15j\AppData\Local\Temp\cccz2PDA.s 			page 2


  33:Src/stm32f1xx_it.c **** /* USER CODE END TD */
  34:Src/stm32f1xx_it.c **** 
  35:Src/stm32f1xx_it.c **** /* Private define ------------------------------------------------------------*/
  36:Src/stm32f1xx_it.c **** /* USER CODE BEGIN PD */
  37:Src/stm32f1xx_it.c ****  
  38:Src/stm32f1xx_it.c **** /* USER CODE END PD */
  39:Src/stm32f1xx_it.c **** 
  40:Src/stm32f1xx_it.c **** /* Private macro -------------------------------------------------------------*/
  41:Src/stm32f1xx_it.c **** /* USER CODE BEGIN PM */
  42:Src/stm32f1xx_it.c **** 
  43:Src/stm32f1xx_it.c **** /* USER CODE END PM */
  44:Src/stm32f1xx_it.c **** 
  45:Src/stm32f1xx_it.c **** /* Private variables ---------------------------------------------------------*/
  46:Src/stm32f1xx_it.c **** /* USER CODE BEGIN PV */
  47:Src/stm32f1xx_it.c **** 
  48:Src/stm32f1xx_it.c **** /* USER CODE END PV */
  49:Src/stm32f1xx_it.c **** 
  50:Src/stm32f1xx_it.c **** /* Private function prototypes -----------------------------------------------*/
  51:Src/stm32f1xx_it.c **** /* USER CODE BEGIN PFP */
  52:Src/stm32f1xx_it.c **** 
  53:Src/stm32f1xx_it.c **** /* USER CODE END PFP */
  54:Src/stm32f1xx_it.c **** 
  55:Src/stm32f1xx_it.c **** /* Private user code ---------------------------------------------------------*/
  56:Src/stm32f1xx_it.c **** /* USER CODE BEGIN 0 */
  57:Src/stm32f1xx_it.c **** 
  58:Src/stm32f1xx_it.c **** /* USER CODE END 0 */
  59:Src/stm32f1xx_it.c **** 
  60:Src/stm32f1xx_it.c **** /* External variables --------------------------------------------------------*/
  61:Src/stm32f1xx_it.c **** extern CAN_HandleTypeDef hcan;
  62:Src/stm32f1xx_it.c **** extern TIM_HandleTypeDef htim1;
  63:Src/stm32f1xx_it.c **** 
  64:Src/stm32f1xx_it.c **** /* USER CODE BEGIN EV */
  65:Src/stm32f1xx_it.c **** 
  66:Src/stm32f1xx_it.c **** /* USER CODE END EV */
  67:Src/stm32f1xx_it.c **** 
  68:Src/stm32f1xx_it.c **** /******************************************************************************/
  69:Src/stm32f1xx_it.c **** /*           Cortex-M3 Processor Interruption and Exception Handlers          */
  70:Src/stm32f1xx_it.c **** /******************************************************************************/
  71:Src/stm32f1xx_it.c **** /**
  72:Src/stm32f1xx_it.c ****   * @brief This function handles Non maskable interrupt.
  73:Src/stm32f1xx_it.c ****   */
  74:Src/stm32f1xx_it.c **** void NMI_Handler(void)
  75:Src/stm32f1xx_it.c **** {
  27              		.loc 1 75 1 view -0
  28              		.cfi_startproc
  29              		@ args = 0, pretend = 0, frame = 0
  30              		@ frame_needed = 0, uses_anonymous_args = 0
  31              		@ link register save eliminated.
  76:Src/stm32f1xx_it.c ****   /* USER CODE BEGIN NonMaskableInt_IRQn 0 */
  77:Src/stm32f1xx_it.c **** 
  78:Src/stm32f1xx_it.c ****   /* USER CODE END NonMaskableInt_IRQn 0 */
  79:Src/stm32f1xx_it.c ****   /* USER CODE BEGIN NonMaskableInt_IRQn 1 */
  80:Src/stm32f1xx_it.c **** 
  81:Src/stm32f1xx_it.c ****   /* USER CODE END NonMaskableInt_IRQn 1 */
  82:Src/stm32f1xx_it.c **** }
  32              		.loc 1 82 1 view .LVU1
  33 0000 7047     		bx	lr
ARM GAS  C:\Users\wup15j\AppData\Local\Temp\cccz2PDA.s 			page 3


  34              		.cfi_endproc
  35              	.LFE70:
  37              		.section	.text.HardFault_Handler,"ax",%progbits
  38              		.align	1
  39              		.global	HardFault_Handler
  40              		.syntax unified
  41              		.thumb
  42              		.thumb_func
  44              	HardFault_Handler:
  45              	.LFB71:
  83:Src/stm32f1xx_it.c **** 
  84:Src/stm32f1xx_it.c **** /**
  85:Src/stm32f1xx_it.c ****   * @brief This function handles Hard fault interrupt.
  86:Src/stm32f1xx_it.c ****   */
  87:Src/stm32f1xx_it.c **** void HardFault_Handler(void)
  88:Src/stm32f1xx_it.c **** {
  46              		.loc 1 88 1 view -0
  47              		.cfi_startproc
  48              		@ Volatile: function does not return.
  49              		@ args = 0, pretend = 0, frame = 0
  50              		@ frame_needed = 0, uses_anonymous_args = 0
  51              		@ link register save eliminated.
  52              	.L3:
  89:Src/stm32f1xx_it.c ****   /* USER CODE BEGIN HardFault_IRQn 0 */
  90:Src/stm32f1xx_it.c **** 
  91:Src/stm32f1xx_it.c ****   /* USER CODE END HardFault_IRQn 0 */
  92:Src/stm32f1xx_it.c ****   while (1)
  53              		.loc 1 92 3 discriminator 1 view .LVU3
  93:Src/stm32f1xx_it.c ****   {
  94:Src/stm32f1xx_it.c ****     /* USER CODE BEGIN W1_HardFault_IRQn 0 */
  95:Src/stm32f1xx_it.c ****     /* USER CODE END W1_HardFault_IRQn 0 */
  96:Src/stm32f1xx_it.c ****   }
  54              		.loc 1 96 3 discriminator 1 view .LVU4
  92:Src/stm32f1xx_it.c ****   {
  55              		.loc 1 92 9 discriminator 1 view .LVU5
  56 0000 FEE7     		b	.L3
  57              		.cfi_endproc
  58              	.LFE71:
  60              		.section	.text.MemManage_Handler,"ax",%progbits
  61              		.align	1
  62              		.global	MemManage_Handler
  63              		.syntax unified
  64              		.thumb
  65              		.thumb_func
  67              	MemManage_Handler:
  68              	.LFB72:
  97:Src/stm32f1xx_it.c **** }
  98:Src/stm32f1xx_it.c **** 
  99:Src/stm32f1xx_it.c **** /**
 100:Src/stm32f1xx_it.c ****   * @brief This function handles Memory management fault.
 101:Src/stm32f1xx_it.c ****   */
 102:Src/stm32f1xx_it.c **** void MemManage_Handler(void)
 103:Src/stm32f1xx_it.c **** {
  69              		.loc 1 103 1 view -0
  70              		.cfi_startproc
  71              		@ Volatile: function does not return.
  72              		@ args = 0, pretend = 0, frame = 0
ARM GAS  C:\Users\wup15j\AppData\Local\Temp\cccz2PDA.s 			page 4


  73              		@ frame_needed = 0, uses_anonymous_args = 0
  74              		@ link register save eliminated.
  75              	.L5:
 104:Src/stm32f1xx_it.c ****   /* USER CODE BEGIN MemoryManagement_IRQn 0 */
 105:Src/stm32f1xx_it.c **** 
 106:Src/stm32f1xx_it.c ****   /* USER CODE END MemoryManagement_IRQn 0 */
 107:Src/stm32f1xx_it.c ****   while (1)
  76              		.loc 1 107 3 discriminator 1 view .LVU7
 108:Src/stm32f1xx_it.c ****   {
 109:Src/stm32f1xx_it.c ****     /* USER CODE BEGIN W1_MemoryManagement_IRQn 0 */
 110:Src/stm32f1xx_it.c ****     /* USER CODE END W1_MemoryManagement_IRQn 0 */
 111:Src/stm32f1xx_it.c ****   }
  77              		.loc 1 111 3 discriminator 1 view .LVU8
 107:Src/stm32f1xx_it.c ****   {
  78              		.loc 1 107 9 discriminator 1 view .LVU9
  79 0000 FEE7     		b	.L5
  80              		.cfi_endproc
  81              	.LFE72:
  83              		.section	.text.BusFault_Handler,"ax",%progbits
  84              		.align	1
  85              		.global	BusFault_Handler
  86              		.syntax unified
  87              		.thumb
  88              		.thumb_func
  90              	BusFault_Handler:
  91              	.LFB73:
 112:Src/stm32f1xx_it.c **** }
 113:Src/stm32f1xx_it.c **** 
 114:Src/stm32f1xx_it.c **** /**
 115:Src/stm32f1xx_it.c ****   * @brief This function handles Prefetch fault, memory access fault.
 116:Src/stm32f1xx_it.c ****   */
 117:Src/stm32f1xx_it.c **** void BusFault_Handler(void)
 118:Src/stm32f1xx_it.c **** {
  92              		.loc 1 118 1 view -0
  93              		.cfi_startproc
  94              		@ Volatile: function does not return.
  95              		@ args = 0, pretend = 0, frame = 0
  96              		@ frame_needed = 0, uses_anonymous_args = 0
  97              		@ link register save eliminated.
  98              	.L7:
 119:Src/stm32f1xx_it.c ****   /* USER CODE BEGIN BusFault_IRQn 0 */
 120:Src/stm32f1xx_it.c **** 
 121:Src/stm32f1xx_it.c ****   /* USER CODE END BusFault_IRQn 0 */
 122:Src/stm32f1xx_it.c ****   while (1)
  99              		.loc 1 122 3 discriminator 1 view .LVU11
 123:Src/stm32f1xx_it.c ****   {
 124:Src/stm32f1xx_it.c ****     /* USER CODE BEGIN W1_BusFault_IRQn 0 */
 125:Src/stm32f1xx_it.c ****     /* USER CODE END W1_BusFault_IRQn 0 */
 126:Src/stm32f1xx_it.c ****   }
 100              		.loc 1 126 3 discriminator 1 view .LVU12
 122:Src/stm32f1xx_it.c ****   {
 101              		.loc 1 122 9 discriminator 1 view .LVU13
 102 0000 FEE7     		b	.L7
 103              		.cfi_endproc
 104              	.LFE73:
 106              		.section	.text.UsageFault_Handler,"ax",%progbits
 107              		.align	1
ARM GAS  C:\Users\wup15j\AppData\Local\Temp\cccz2PDA.s 			page 5


 108              		.global	UsageFault_Handler
 109              		.syntax unified
 110              		.thumb
 111              		.thumb_func
 113              	UsageFault_Handler:
 114              	.LFB74:
 127:Src/stm32f1xx_it.c **** }
 128:Src/stm32f1xx_it.c **** 
 129:Src/stm32f1xx_it.c **** /**
 130:Src/stm32f1xx_it.c ****   * @brief This function handles Undefined instruction or illegal state.
 131:Src/stm32f1xx_it.c ****   */
 132:Src/stm32f1xx_it.c **** void UsageFault_Handler(void)
 133:Src/stm32f1xx_it.c **** {
 115              		.loc 1 133 1 view -0
 116              		.cfi_startproc
 117              		@ Volatile: function does not return.
 118              		@ args = 0, pretend = 0, frame = 0
 119              		@ frame_needed = 0, uses_anonymous_args = 0
 120              		@ link register save eliminated.
 121              	.L9:
 134:Src/stm32f1xx_it.c ****   /* USER CODE BEGIN UsageFault_IRQn 0 */
 135:Src/stm32f1xx_it.c **** 
 136:Src/stm32f1xx_it.c ****   /* USER CODE END UsageFault_IRQn 0 */
 137:Src/stm32f1xx_it.c ****   while (1)
 122              		.loc 1 137 3 discriminator 1 view .LVU15
 138:Src/stm32f1xx_it.c ****   {
 139:Src/stm32f1xx_it.c ****     /* USER CODE BEGIN W1_UsageFault_IRQn 0 */
 140:Src/stm32f1xx_it.c ****     /* USER CODE END W1_UsageFault_IRQn 0 */
 141:Src/stm32f1xx_it.c ****   }
 123              		.loc 1 141 3 discriminator 1 view .LVU16
 137:Src/stm32f1xx_it.c ****   {
 124              		.loc 1 137 9 discriminator 1 view .LVU17
 125 0000 FEE7     		b	.L9
 126              		.cfi_endproc
 127              	.LFE74:
 129              		.section	.text.DebugMon_Handler,"ax",%progbits
 130              		.align	1
 131              		.global	DebugMon_Handler
 132              		.syntax unified
 133              		.thumb
 134              		.thumb_func
 136              	DebugMon_Handler:
 137              	.LFB75:
 142:Src/stm32f1xx_it.c **** }
 143:Src/stm32f1xx_it.c **** 
 144:Src/stm32f1xx_it.c **** /**
 145:Src/stm32f1xx_it.c ****   * @brief This function handles Debug monitor.
 146:Src/stm32f1xx_it.c ****   */
 147:Src/stm32f1xx_it.c **** void DebugMon_Handler(void)
 148:Src/stm32f1xx_it.c **** {
 138              		.loc 1 148 1 view -0
 139              		.cfi_startproc
 140              		@ args = 0, pretend = 0, frame = 0
 141              		@ frame_needed = 0, uses_anonymous_args = 0
 142              		@ link register save eliminated.
 149:Src/stm32f1xx_it.c ****   /* USER CODE BEGIN DebugMonitor_IRQn 0 */
 150:Src/stm32f1xx_it.c **** 
ARM GAS  C:\Users\wup15j\AppData\Local\Temp\cccz2PDA.s 			page 6


 151:Src/stm32f1xx_it.c ****   /* USER CODE END DebugMonitor_IRQn 0 */
 152:Src/stm32f1xx_it.c ****   /* USER CODE BEGIN DebugMonitor_IRQn 1 */
 153:Src/stm32f1xx_it.c **** 
 154:Src/stm32f1xx_it.c ****   /* USER CODE END DebugMonitor_IRQn 1 */
 155:Src/stm32f1xx_it.c **** }
 143              		.loc 1 155 1 view .LVU19
 144 0000 7047     		bx	lr
 145              		.cfi_endproc
 146              	.LFE75:
 148              		.section	.text.USB_LP_CAN1_RX0_IRQHandler,"ax",%progbits
 149              		.align	1
 150              		.global	USB_LP_CAN1_RX0_IRQHandler
 151              		.syntax unified
 152              		.thumb
 153              		.thumb_func
 155              	USB_LP_CAN1_RX0_IRQHandler:
 156              	.LFB76:
 156:Src/stm32f1xx_it.c **** 
 157:Src/stm32f1xx_it.c **** /******************************************************************************/
 158:Src/stm32f1xx_it.c **** /* STM32F1xx Peripheral Interrupt Handlers                                    */
 159:Src/stm32f1xx_it.c **** /* Add here the Interrupt Handlers for the used peripherals.                  */
 160:Src/stm32f1xx_it.c **** /* For the available peripheral interrupt handler names,                      */
 161:Src/stm32f1xx_it.c **** /* please refer to the startup file (startup_stm32f1xx.s).                    */
 162:Src/stm32f1xx_it.c **** /******************************************************************************/
 163:Src/stm32f1xx_it.c **** 
 164:Src/stm32f1xx_it.c **** /**
 165:Src/stm32f1xx_it.c ****   * @brief This function handles USB low priority or CAN RX0 interrupts.
 166:Src/stm32f1xx_it.c ****   */
 167:Src/stm32f1xx_it.c **** void USB_LP_CAN1_RX0_IRQHandler(void)
 168:Src/stm32f1xx_it.c **** {
 157              		.loc 1 168 1 view -0
 158              		.cfi_startproc
 159              		@ args = 0, pretend = 0, frame = 0
 160              		@ frame_needed = 0, uses_anonymous_args = 0
 161 0000 08B5     		push	{r3, lr}
 162              	.LCFI0:
 163              		.cfi_def_cfa_offset 8
 164              		.cfi_offset 3, -8
 165              		.cfi_offset 14, -4
 169:Src/stm32f1xx_it.c ****   /* USER CODE BEGIN USB_LP_CAN1_RX0_IRQn 0 */
 170:Src/stm32f1xx_it.c **** 
 171:Src/stm32f1xx_it.c ****   /* USER CODE END USB_LP_CAN1_RX0_IRQn 0 */
 172:Src/stm32f1xx_it.c ****   HAL_CAN_IRQHandler(&hcan);
 166              		.loc 1 172 3 view .LVU21
 167 0002 0248     		ldr	r0, .L13
 168 0004 FFF7FEFF 		bl	HAL_CAN_IRQHandler
 169              	.LVL0:
 173:Src/stm32f1xx_it.c ****   /* USER CODE BEGIN USB_LP_CAN1_RX0_IRQn 1 */
 174:Src/stm32f1xx_it.c **** 
 175:Src/stm32f1xx_it.c ****   /* USER CODE END USB_LP_CAN1_RX0_IRQn 1 */
 176:Src/stm32f1xx_it.c **** }
 170              		.loc 1 176 1 is_stmt 0 view .LVU22
 171 0008 08BD     		pop	{r3, pc}
 172              	.L14:
 173 000a 00BF     		.align	2
 174              	.L13:
 175 000c 00000000 		.word	hcan
ARM GAS  C:\Users\wup15j\AppData\Local\Temp\cccz2PDA.s 			page 7


 176              		.cfi_endproc
 177              	.LFE76:
 179              		.section	.text.CAN1_RX1_IRQHandler,"ax",%progbits
 180              		.align	1
 181              		.global	CAN1_RX1_IRQHandler
 182              		.syntax unified
 183              		.thumb
 184              		.thumb_func
 186              	CAN1_RX1_IRQHandler:
 187              	.LFB77:
 177:Src/stm32f1xx_it.c **** 
 178:Src/stm32f1xx_it.c **** /**
 179:Src/stm32f1xx_it.c ****   * @brief This function handles CAN RX1 interrupt.
 180:Src/stm32f1xx_it.c ****   */
 181:Src/stm32f1xx_it.c **** void CAN1_RX1_IRQHandler(void)
 182:Src/stm32f1xx_it.c **** {
 188              		.loc 1 182 1 is_stmt 1 view -0
 189              		.cfi_startproc
 190              		@ args = 0, pretend = 0, frame = 0
 191              		@ frame_needed = 0, uses_anonymous_args = 0
 192 0000 08B5     		push	{r3, lr}
 193              	.LCFI1:
 194              		.cfi_def_cfa_offset 8
 195              		.cfi_offset 3, -8
 196              		.cfi_offset 14, -4
 183:Src/stm32f1xx_it.c ****   /* USER CODE BEGIN CAN1_RX1_IRQn 0 */
 184:Src/stm32f1xx_it.c **** 
 185:Src/stm32f1xx_it.c ****   /* USER CODE END CAN1_RX1_IRQn 0 */
 186:Src/stm32f1xx_it.c ****   HAL_CAN_IRQHandler(&hcan);
 197              		.loc 1 186 3 view .LVU24
 198 0002 0248     		ldr	r0, .L17
 199 0004 FFF7FEFF 		bl	HAL_CAN_IRQHandler
 200              	.LVL1:
 187:Src/stm32f1xx_it.c ****   /* USER CODE BEGIN CAN1_RX1_IRQn 1 */
 188:Src/stm32f1xx_it.c **** 
 189:Src/stm32f1xx_it.c ****   /* USER CODE END CAN1_RX1_IRQn 1 */
 190:Src/stm32f1xx_it.c **** }
 201              		.loc 1 190 1 is_stmt 0 view .LVU25
 202 0008 08BD     		pop	{r3, pc}
 203              	.L18:
 204 000a 00BF     		.align	2
 205              	.L17:
 206 000c 00000000 		.word	hcan
 207              		.cfi_endproc
 208              	.LFE77:
 210              		.section	.text.TIM1_UP_IRQHandler,"ax",%progbits
 211              		.align	1
 212              		.global	TIM1_UP_IRQHandler
 213              		.syntax unified
 214              		.thumb
 215              		.thumb_func
 217              	TIM1_UP_IRQHandler:
 218              	.LFB78:
 191:Src/stm32f1xx_it.c **** 
 192:Src/stm32f1xx_it.c **** /**
 193:Src/stm32f1xx_it.c ****   * @brief This function handles TIM1 update interrupt.
 194:Src/stm32f1xx_it.c ****   */
ARM GAS  C:\Users\wup15j\AppData\Local\Temp\cccz2PDA.s 			page 8


 195:Src/stm32f1xx_it.c **** void TIM1_UP_IRQHandler(void)
 196:Src/stm32f1xx_it.c **** {
 219              		.loc 1 196 1 is_stmt 1 view -0
 220              		.cfi_startproc
 221              		@ args = 0, pretend = 0, frame = 0
 222              		@ frame_needed = 0, uses_anonymous_args = 0
 223 0000 08B5     		push	{r3, lr}
 224              	.LCFI2:
 225              		.cfi_def_cfa_offset 8
 226              		.cfi_offset 3, -8
 227              		.cfi_offset 14, -4
 197:Src/stm32f1xx_it.c ****   /* USER CODE BEGIN TIM1_UP_IRQn 0 */
 198:Src/stm32f1xx_it.c **** 
 199:Src/stm32f1xx_it.c ****   /* USER CODE END TIM1_UP_IRQn 0 */
 200:Src/stm32f1xx_it.c ****   HAL_TIM_IRQHandler(&htim1);
 228              		.loc 1 200 3 view .LVU27
 229 0002 0248     		ldr	r0, .L21
 230 0004 FFF7FEFF 		bl	HAL_TIM_IRQHandler
 231              	.LVL2:
 201:Src/stm32f1xx_it.c ****   /* USER CODE BEGIN TIM1_UP_IRQn 1 */
 202:Src/stm32f1xx_it.c **** 
 203:Src/stm32f1xx_it.c ****   /* USER CODE END TIM1_UP_IRQn 1 */
 204:Src/stm32f1xx_it.c **** }
 232              		.loc 1 204 1 is_stmt 0 view .LVU28
 233 0008 08BD     		pop	{r3, pc}
 234              	.L22:
 235 000a 00BF     		.align	2
 236              	.L21:
 237 000c 00000000 		.word	htim1
 238              		.cfi_endproc
 239              	.LFE78:
 241              		.text
 242              	.Letext0:
 243              		.file 2 "c:\\program files (x86)\\gnu arm embedded toolchain\\10 2021.10\\arm-none-eabi\\include\\
 244              		.file 3 "c:\\program files (x86)\\gnu arm embedded toolchain\\10 2021.10\\arm-none-eabi\\include\\
 245              		.file 4 "Drivers/CMSIS/Device/ST/STM32F1xx/Include/stm32f103x6.h"
 246              		.file 5 "Drivers/CMSIS/Device/ST/STM32F1xx/Include/stm32f1xx.h"
 247              		.file 6 "Drivers/STM32F1xx_HAL_Driver/Inc/stm32f1xx_hal_def.h"
 248              		.file 7 "Drivers/STM32F1xx_HAL_Driver/Inc/stm32f1xx_hal_dma.h"
 249              		.file 8 "Drivers/STM32F1xx_HAL_Driver/Inc/stm32f1xx_hal_can.h"
 250              		.file 9 "Drivers/STM32F1xx_HAL_Driver/Inc/stm32f1xx_hal_tim.h"
ARM GAS  C:\Users\wup15j\AppData\Local\Temp\cccz2PDA.s 			page 9

