ARM GAS  C:\Users\wup15j\AppData\Local\Temp\ccx9HpCv.s 			page 1


   1              		.cpu cortex-m3
   2              		.arch armv7-m
   3              		.fpu softvfp
   4              		.eabi_attribute 20, 1
   5              		.eabi_attribute 21, 1
   6              		.eabi_attribute 23, 3
   7              		.eabi_attribute 24, 1
   8              		.eabi_attribute 25, 1
   9              		.eabi_attribute 26, 1
  10              		.eabi_attribute 30, 1
  11              		.eabi_attribute 34, 1
  12              		.eabi_attribute 18, 4
  13              		.file	"uds_diag.c"
  14              		.text
  15              	.Ltext0:
  16              		.cfi_sections	.debug_frame
  17              		.section	.text.UDS_Init,"ax",%progbits
  18              		.align	1
  19              		.global	UDS_Init
  20              		.syntax unified
  21              		.thumb
  22              		.thumb_func
  24              	UDS_Init:
  25              	.LFB73:
  26              		.file 1 "Src/uds_diag.c"
   1:Src/uds_diag.c **** /*
   2:Src/uds_diag.c ****  * UDS_APP_Diag.c
   3:Src/uds_diag.c ****  *
   4:Src/uds_diag.c ****  *  Created on: Jun 4, 2024
   5:Src/uds_diag.c ****  *      Author: Omnia
   6:Src/uds_diag.c ****  */
   7:Src/uds_diag.c **** 
   8:Src/uds_diag.c **** #include "uds_diag.h"
   9:Src/uds_diag.c **** 
  10:Src/uds_diag.c **** // there are many ser. has sub,  this var indecate for which sub servise
  11:Src/uds_diag.c **** #define sub_func_control  	1
  12:Src/uds_diag.c **** #define Num_of_Services 	5
  13:Src/uds_diag.c **** 
  14:Src/uds_diag.c **** Std_ReturnType CanTp_Transmit(uint32_t TxPduId, PduInfoType* PduInfoPtr);
  15:Src/uds_diag.c **** 
  16:Src/uds_diag.c **** 
  17:Src/uds_diag.c **** PduInfoType Read_Data_Client;
  18:Src/uds_diag.c **** PduInfoType Write_Data_Client;
  19:Src/uds_diag.c **** PduInfoType Control_Session_Default;
  20:Src/uds_diag.c **** PduInfoType Send_Security_Seed;
  21:Src/uds_diag.c **** PduInfoType Control_Session_Extended;
  22:Src/uds_diag.c **** PduInfoType PduInfoTypePtr;
  23:Src/uds_diag.c **** volatile uint8_t global_sec_flag = 0;
  24:Src/uds_diag.c **** volatile uint8_t global_session = DefaultSession;
  25:Src/uds_diag.c **** 
  26:Src/uds_diag.c **** volatile uint8_t Security_Service_Availability_Flag = Not_Available;
  27:Src/uds_diag.c **** //uint8_t seed =50 ; // for example
  28:Src/uds_diag.c **** /*Security Variables */
  29:Src/uds_diag.c **** volatile uint32_t Sec_u32SeedValue = 0 ;
  30:Src/uds_diag.c **** Security_Access_State Sec_State = Un_Secure ;
  31:Src/uds_diag.c **** volatile uint32_t Active_Session_var = 0x778899AA;
  32:Src/uds_diag.c **** volatile uint32_t SW_version_var = 0x5566;
ARM GAS  C:\Users\wup15j\AppData\Local\Temp\ccx9HpCv.s 			page 2


  33:Src/uds_diag.c **** volatile uint8_t VIN_number_var[17]= { 0x11, 0x11,0x11,0x11,0x11,0x11,0x11,0x11,0x11,0x11,0x11,0x11
  34:Src/uds_diag.c **** //volatile uint32_t VIN_number_var;
  35:Src/uds_diag.c **** ServiceInfo pos_Response;
  36:Src/uds_diag.c **** 
  37:Src/uds_diag.c **** ServiceInfo Control;
  38:Src/uds_diag.c **** PduInfoType msg;
  39:Src/uds_diag.c **** extern TIM_HandleTypeDef htim2;
  40:Src/uds_diag.c **** volatile uint8_t flag_sub_fun;
  41:Src/uds_diag.c **** uint8_t UDS_Tx_Confirm = 0;
  42:Src/uds_diag.c **** PduInfoType* UDS_Struct;
  43:Src/uds_diag.c **** PduInfoType* PduDataPTR;
  44:Src/uds_diag.c **** 
  45:Src/uds_diag.c **** uint8_t* seed = NULL;
  46:Src/uds_diag.c **** uint8_t* key = NULL;
  47:Src/uds_diag.c **** 
  48:Src/uds_diag.c **** 
  49:Src/uds_diag.c **** uint8_t SupressedPosRes_CLient = 1;
  50:Src/uds_diag.c **** uint8_t SupressedPosRes_Server = 1;
  51:Src/uds_diag.c **** 
  52:Src/uds_diag.c **** uint8_t Source_Address = Client_Address;
  53:Src/uds_diag.c **** uint8_t Target_Address = Tempreture_Address;
  54:Src/uds_diag.c **** 
  55:Src/uds_diag.c **** 
  56:Src/uds_diag.c **** /***************************************************************Init*******************************
  57:Src/uds_diag.c **** 
  58:Src/uds_diag.c **** 
  59:Src/uds_diag.c **** void UDS_Init(void)
  60:Src/uds_diag.c **** {
  27              		.loc 1 60 1 view -0
  28              		.cfi_startproc
  29              		@ args = 0, pretend = 0, frame = 0
  30              		@ frame_needed = 0, uses_anonymous_args = 0
  31              		@ link register save eliminated.
  61:Src/uds_diag.c **** 
  62:Src/uds_diag.c **** }
  32              		.loc 1 62 1 view .LVU1
  33 0000 7047     		bx	lr
  34              		.cfi_endproc
  35              	.LFE73:
  37              		.section	.text.UDS_Tester_Presenter_Client,"ax",%progbits
  38              		.align	1
  39              		.global	UDS_Tester_Presenter_Client
  40              		.syntax unified
  41              		.thumb
  42              		.thumb_func
  44              	UDS_Tester_Presenter_Client:
  45              	.LFB74:
  63:Src/uds_diag.c **** 
  64:Src/uds_diag.c **** 
  65:Src/uds_diag.c **** 
  66:Src/uds_diag.c **** void UDS_Tester_Presenter_Client(void)
  67:Src/uds_diag.c **** {
  46              		.loc 1 67 1 view -0
  47              		.cfi_startproc
  48              		@ args = 0, pretend = 0, frame = 0
  49              		@ frame_needed = 0, uses_anonymous_args = 0
  50 0000 08B5     		push	{r3, lr}
ARM GAS  C:\Users\wup15j\AppData\Local\Temp\ccx9HpCv.s 			page 3


  51              	.LCFI0:
  52              		.cfi_def_cfa_offset 8
  53              		.cfi_offset 3, -8
  54              		.cfi_offset 14, -4
  68:Src/uds_diag.c **** 	PduInfoTypePtr.Data[PCI]= 5; 	// TESTER_PRESENT_PCI
  55              		.loc 1 68 2 view .LVU3
  56              		.loc 1 68 26 is_stmt 0 view .LVU4
  57 0002 174B     		ldr	r3, .L9
  58 0004 0522     		movs	r2, #5
  59 0006 1A70     		strb	r2, [r3]
  69:Src/uds_diag.c **** 	PduInfoTypePtr.Data[ADD_Source]= Client_Address; 	// ADD_Source
  60              		.loc 1 69 2 is_stmt 1 view .LVU5
  61              		.loc 1 69 33 is_stmt 0 view .LVU6
  62 0008 F122     		movs	r2, #241
  63 000a 5A70     		strb	r2, [r3, #1]
  70:Src/uds_diag.c **** 
  71:Src/uds_diag.c **** 	if( Target_Address == Tempreture_Address)
  64              		.loc 1 71 2 is_stmt 1 view .LVU7
  65              		.loc 1 71 21 is_stmt 0 view .LVU8
  66 000c 154B     		ldr	r3, .L9+4
  67 000e 1B78     		ldrb	r3, [r3]	@ zero_extendqisi2
  68              		.loc 1 71 4 view .LVU9
  69 0010 3D2B     		cmp	r3, #61
  70 0012 07D0     		beq	.L7
  72:Src/uds_diag.c **** 	{
  73:Src/uds_diag.c **** 		PduInfoTypePtr.Data[ADD_Target]= Tempreture_Address; 	// ADD_Target
  74:Src/uds_diag.c **** 	}
  75:Src/uds_diag.c **** 	else if( Target_Address == Pressure_Address)
  71              		.loc 1 75 7 is_stmt 1 view .LVU10
  72              		.loc 1 75 9 is_stmt 0 view .LVU11
  73 0014 4D2B     		cmp	r3, #77
  74 0016 1ED0     		beq	.L8
  76:Src/uds_diag.c **** 	{
  77:Src/uds_diag.c **** 		PduInfoTypePtr.Data[ADD_Target]= Pressure_Address; 	// ADD_Target
  78:Src/uds_diag.c **** 	}
  79:Src/uds_diag.c **** 	else if( Target_Address == Functional_Address)
  75              		.loc 1 79 7 is_stmt 1 view .LVU12
  76              		.loc 1 79 9 is_stmt 0 view .LVU13
  77 0018 FF2B     		cmp	r3, #255
  78 001a 06D1     		bne	.L4
  80:Src/uds_diag.c **** 	{
  81:Src/uds_diag.c **** 		PduInfoTypePtr.Data[ADD_Target]= Functional_Address; 	// ADD_Target
  79              		.loc 1 81 3 is_stmt 1 view .LVU14
  80              		.loc 1 81 34 is_stmt 0 view .LVU15
  81 001c 104B     		ldr	r3, .L9
  82 001e FF22     		movs	r2, #255
  83 0020 9A70     		strb	r2, [r3, #2]
  84 0022 02E0     		b	.L4
  85              	.L7:
  73:Src/uds_diag.c **** 	}
  86              		.loc 1 73 3 is_stmt 1 view .LVU16
  73:Src/uds_diag.c **** 	}
  87              		.loc 1 73 34 is_stmt 0 view .LVU17
  88 0024 0E4B     		ldr	r3, .L9
  89 0026 3D22     		movs	r2, #61
  90 0028 9A70     		strb	r2, [r3, #2]
  91              	.L4:
ARM GAS  C:\Users\wup15j\AppData\Local\Temp\ccx9HpCv.s 			page 4


  82:Src/uds_diag.c **** 	}
  83:Src/uds_diag.c **** 	else
  84:Src/uds_diag.c **** 	{
  85:Src/uds_diag.c **** 		//Nothing
  86:Src/uds_diag.c **** 	}
  92              		.loc 1 86 2 is_stmt 1 view .LVU18
  87:Src/uds_diag.c **** 
  88:Src/uds_diag.c **** 
  89:Src/uds_diag.c **** 	PduInfoTypePtr.Data[SID]= Tester_Representer_Service; 	// TESTER_PRESENT_SID
  93              		.loc 1 89 2 view .LVU19
  94              		.loc 1 89 26 is_stmt 0 view .LVU20
  95 002a 0D49     		ldr	r1, .L9
  96 002c 3E23     		movs	r3, #62
  97 002e 0B70     		strb	r3, [r1]
  90:Src/uds_diag.c **** 	PduInfoTypePtr.Data[Sub_F]= 0x00; 	// TESTER_PRESENT_Sub_Fun
  98              		.loc 1 90 2 is_stmt 1 view .LVU21
  99              		.loc 1 90 28 is_stmt 0 view .LVU22
 100 0030 0020     		movs	r0, #0
 101 0032 0871     		strb	r0, [r1, #4]
  91:Src/uds_diag.c **** 	PduInfoTypePtr.Length = 5;		// TESTER_PRESENT_LENGTH
 102              		.loc 1 91 2 is_stmt 1 view .LVU23
 103              		.loc 1 91 24 is_stmt 0 view .LVU24
 104 0034 0523     		movs	r3, #5
 105 0036 C1F80032 		str	r3, [r1, #512]
  92:Src/uds_diag.c **** 
  93:Src/uds_diag.c **** 	//Check supressed Positive Responce
  94:Src/uds_diag.c **** 	PduInfoTypePtr.Data[Sub_F] |= 0b10000000;
 106              		.loc 1 94 2 is_stmt 1 view .LVU25
 107              		.loc 1 94 29 is_stmt 0 view .LVU26
 108 003a 8023     		movs	r3, #128
 109 003c 0B71     		strb	r3, [r1, #4]
  95:Src/uds_diag.c **** 	PduInfoTypePtr.Data[Sub_F] &= ((SupressedPosRes_CLient<<7)|0x7F);
 110              		.loc 1 95 2 is_stmt 1 view .LVU27
 111              		.loc 1 95 56 is_stmt 0 view .LVU28
 112 003e 0A4B     		ldr	r3, .L9+8
 113 0040 1B78     		ldrb	r3, [r3]	@ zero_extendqisi2
 114 0042 DB01     		lsls	r3, r3, #7
 115              		.loc 1 95 60 view .LVU29
 116 0044 43F07F03 		orr	r3, r3, #127
 117 0048 5BB2     		sxtb	r3, r3
 118              		.loc 1 95 29 view .LVU30
 119 004a 23F07F03 		bic	r3, r3, #127
 120 004e 0B71     		strb	r3, [r1, #4]
  96:Src/uds_diag.c **** 	//Sending Frame to Can TP
  97:Src/uds_diag.c **** 	CanTp_Transmit(0, &PduInfoTypePtr);
 121              		.loc 1 97 2 is_stmt 1 view .LVU31
 122 0050 FFF7FEFF 		bl	CanTp_Transmit
 123              	.LVL0:
  98:Src/uds_diag.c **** }
 124              		.loc 1 98 1 is_stmt 0 view .LVU32
 125 0054 08BD     		pop	{r3, pc}
 126              	.L8:
  77:Src/uds_diag.c **** 	}
 127              		.loc 1 77 3 is_stmt 1 view .LVU33
  77:Src/uds_diag.c **** 	}
 128              		.loc 1 77 34 is_stmt 0 view .LVU34
 129 0056 024B     		ldr	r3, .L9
ARM GAS  C:\Users\wup15j\AppData\Local\Temp\ccx9HpCv.s 			page 5


 130 0058 4D22     		movs	r2, #77
 131 005a 9A70     		strb	r2, [r3, #2]
 132 005c E5E7     		b	.L4
 133              	.L10:
 134 005e 00BF     		.align	2
 135              	.L9:
 136 0060 00000000 		.word	.LANCHOR0
 137 0064 00000000 		.word	.LANCHOR1
 138 0068 00000000 		.word	.LANCHOR2
 139              		.cfi_endproc
 140              	.LFE74:
 142              		.section	.text.UDS_Send_Security_Client,"ax",%progbits
 143              		.align	1
 144              		.global	UDS_Send_Security_Client
 145              		.syntax unified
 146              		.thumb
 147              		.thumb_func
 149              	UDS_Send_Security_Client:
 150              	.LVL1:
 151              	.LFB75:
  99:Src/uds_diag.c **** 
 100:Src/uds_diag.c **** 
 101:Src/uds_diag.c **** 
 102:Src/uds_diag.c **** /***************************************************************Read*******************************
 103:Src/uds_diag.c **** 
 104:Src/uds_diag.c **** 
 105:Src/uds_diag.c **** 
 106:Src/uds_diag.c **** //Recieve Read Frame
 107:Src/uds_diag.c **** //before in call back: SID is checked
 108:Src/uds_diag.c **** //void UDS_Read_Data_Server( PduInfoType* PduInfoTypePtr )
 109:Src/uds_diag.c **** //{
 110:Src/uds_diag.c **** //	ServiceInfo Read_Data_Server ;
 111:Src/uds_diag.c **** //	Read_Data_Server.SID = 0x22;
 112:Src/uds_diag.c **** //	Read_Data_Server.SUB_FUNC = -1;
 113:Src/uds_diag.c **** //	//if DID --> SW_version
 114:Src/uds_diag.c **** //	if((PduInfoTypeptr->Data[SID] == 0xF1) && (PduInfoTypeptr->Data[Sub_F] == 0x3D) )
 115:Src/uds_diag.c **** //	{
 116:Src/uds_diag.c **** //		Read_Data_Server.DID[0] = 0xF1;
 117:Src/uds_diag.c **** //		Read_Data_Server.DID[1] = 0x3D;
 118:Src/uds_diag.c **** //		Read_Data_Server.DID_Length = 2;
 119:Src/uds_diag.c **** //		//For Debugging
 120:Src/uds_diag.c **** //		//HAL_UART_Transmit(&huart2, "\r\nRead Frame Client DID:", 50, HAL_MAX_DELAY);
 121:Src/uds_diag.c **** //		//sendHexArrayAsASCII(Read_Data_Server.DID, Read_Data_Server.DID_Length );
 122:Src/uds_diag.c **** //		//HAL_UART_Transmit(&huart2, "\r\n", 50, HAL_MAX_DELAY);
 123:Src/uds_diag.c **** //
 124:Src/uds_diag.c **** //		Read_Data_Server.Data[SID] = 0x55; //value of SW_version
 125:Src/uds_diag.c **** //		Read_Data_Server.Data[Sub_F] = 0x66; //value of SW_version
 126:Src/uds_diag.c **** //		Read_Data_Server.Data_Length = 2;
 127:Src/uds_diag.c **** //		//Send +ve responce
 128:Src/uds_diag.c **** //		//UDS_Send_Pos_Res(Read_Data_Server);
 129:Src/uds_diag.c **** //
 130:Src/uds_diag.c **** //		//For Debugging
 131:Src/uds_diag.c **** //		//HAL_UART_Transmit(&huart2, "\r\nRead Frame Server Data:", 50, HAL_MAX_DELAY);
 132:Src/uds_diag.c **** //		//sendHexArrayAsASCII(Read_Data_Server.Data, Read_Data_Server.Data_Length);
 133:Src/uds_diag.c **** //		//HAL_UART_Transmit(&huart2, "\r\n", 50, HAL_MAX_DELAY);
 134:Src/uds_diag.c **** //
 135:Src/uds_diag.c **** //	}//if DID --> Active_Session
ARM GAS  C:\Users\wup15j\AppData\Local\Temp\ccx9HpCv.s 			page 6


 136:Src/uds_diag.c **** //	else if((PduInfoTypeptr->Data[SID] == 0xF5) && (PduInfoTypeptr->Data[Sub_F] == 0x3D) )
 137:Src/uds_diag.c **** //	{
 138:Src/uds_diag.c **** //		Read_Data_Server.DID[0] = 0xF5;
 139:Src/uds_diag.c **** //		Read_Data_Server.DID[1] = 0x3D;
 140:Src/uds_diag.c **** //		Read_Data_Server.DID_Length = 2;
 141:Src/uds_diag.c **** //		//For Debugging
 142:Src/uds_diag.c **** //		//HAL_UART_Transmit(&huart2, "\r\nRead Frame Client DID:", 50, HAL_MAX_DELAY);
 143:Src/uds_diag.c **** //		//sendHexArrayAsASCII(Read_Data_Server.DID, Read_Data_Server.DID_Length );
 144:Src/uds_diag.c **** //		//HAL_UART_Transmit(&huart2, "\r\n", 50, HAL_MAX_DELAY);
 145:Src/uds_diag.c **** //		Read_Data_Server.Data[SID] = 0x77; //value of Active_Session
 146:Src/uds_diag.c **** //		Read_Data_Server.Data[Sub_F] = 0x88; //value of Active_Session
 147:Src/uds_diag.c **** //		Read_Data_Server.Data[2] = 0x99; //value of Active_Session
 148:Src/uds_diag.c **** //		Read_Data_Server.Data[3] = 0xAA; //value of Active_Session
 149:Src/uds_diag.c **** //		Read_Data_Server.Data_Length = 4;
 150:Src/uds_diag.c **** //		//Send +ve responce
 151:Src/uds_diag.c **** //		//UDS_Send_Pos_Res(Read_Data_Server);
 152:Src/uds_diag.c **** //
 153:Src/uds_diag.c **** //		//For Debugging
 154:Src/uds_diag.c **** //		//HAL_UART_Transmit(&huart2, "\r\nRead Frame Client DID:", 50, HAL_MAX_DELAY);
 155:Src/uds_diag.c **** //		//sendHexArrayAsASCII(Read_Data_Server.DID, Read_Data_Server.DID_Length );
 156:Src/uds_diag.c **** //		//HAL_UART_Transmit(&huart2, "\r\n", 50, HAL_MAX_DELAY);
 157:Src/uds_diag.c **** //	}
 158:Src/uds_diag.c **** //	else
 159:Src/uds_diag.c **** //	{
 160:Src/uds_diag.c **** //		//otherwize: send -ve responce
 161:Src/uds_diag.c **** //		//UDS_Send_Neg_Res(Read_Data_Server.SID, NRC);
 162:Src/uds_diag.c **** //	}
 163:Src/uds_diag.c **** //
 164:Src/uds_diag.c **** //}
 165:Src/uds_diag.c **** //
 166:Src/uds_diag.c **** 
 167:Src/uds_diag.c **** 
 168:Src/uds_diag.c **** /***************************************************************Write******************************
 169:Src/uds_diag.c **** 
 170:Src/uds_diag.c **** 
 171:Src/uds_diag.c **** 
 172:Src/uds_diag.c **** 
 173:Src/uds_diag.c **** //void UDS_Write_Data_Server(PduInfoType* Received_data)
 174:Src/uds_diag.c **** //{
 175:Src/uds_diag.c **** //
 176:Src/uds_diag.c **** //	uint16_t SW_version;
 177:Src/uds_diag.c **** //	uint32_t Active_Session;
 178:Src/uds_diag.c **** //	PduInfoType Write_Data_Server;
 179:Src/uds_diag.c **** //
 180:Src/uds_diag.c **** //
 181:Src/uds_diag.c **** //	// did for SW_version or we can check by the length of the received_data
 182:Src/uds_diag.c **** //	if ((Received_data->Data[1] == 0xF1) && (Received_data->Data[2] == 0x3D))
 183:Src/uds_diag.c **** //	{
 184:Src/uds_diag.c **** //		// udate the value of oil temperature
 185:Src/uds_diag.c **** //		SW_version = ( (Received_data->Data[3] << 8) | (Received_data->Data[4]) );
 186:Src/uds_diag.c **** //
 187:Src/uds_diag.c **** //	}
 188:Src/uds_diag.c **** //	// did for Active_Session
 189:Src/uds_diag.c **** //	else if (Received_data->Data[1] == 0xF5 && Received_data->Data[2] == 0x3D)
 190:Src/uds_diag.c **** //	{
 191:Src/uds_diag.c **** //		// udate the value of oil pressure
 192:Src/uds_diag.c **** //		Active_Session = ( (Received_data->Data[3] << 24) | (Received_data->Data[4] << 16) | (Received_
ARM GAS  C:\Users\wup15j\AppData\Local\Temp\ccx9HpCv.s 			page 7


 193:Src/uds_diag.c **** //
 194:Src/uds_diag.c **** //	}
 195:Src/uds_diag.c **** //	else
 196:Src/uds_diag.c **** //	{
 197:Src/uds_diag.c **** //
 198:Src/uds_diag.c **** //		// error in the did
 199:Src/uds_diag.c **** //		// call the negative response function
 200:Src/uds_diag.c **** //	}
 201:Src/uds_diag.c **** //
 202:Src/uds_diag.c **** //	// prepare positive response
 203:Src/uds_diag.c **** //	Write_Data_Server.Data[SID] = 0x6E; //SID of WDID
 204:Src/uds_diag.c **** //	Write_Data_Server.Data[Sub_F] = Received_data->Data[1];
 205:Src/uds_diag.c **** //	Write_Data_Server.Data[2] = Received_data->Data[2];
 206:Src/uds_diag.c **** //
 207:Src/uds_diag.c **** //	// Calculating the data length
 208:Src/uds_diag.c **** //	Write_Data_Server.Length = 3;
 209:Src/uds_diag.c **** //
 210:Src/uds_diag.c **** //
 211:Src/uds_diag.c **** //	//Sending Frame to Can TP
 212:Src/uds_diag.c **** //	//CanTp_Transmit(0, &Write_Data_Server);
 213:Src/uds_diag.c **** //}
 214:Src/uds_diag.c **** //
 215:Src/uds_diag.c **** 
 216:Src/uds_diag.c **** /***************************************************************Control Session********************
 217:Src/uds_diag.c **** 
 218:Src/uds_diag.c **** 
 219:Src/uds_diag.c **** 
 220:Src/uds_diag.c **** /***************************************************************Security***************************
 221:Src/uds_diag.c **** 
 222:Src/uds_diag.c **** 
 223:Src/uds_diag.c **** /***************************************************************Security***************************
 224:Src/uds_diag.c **** 
 225:Src/uds_diag.c **** void UDS_Send_Security_Client(Sub_Fun sub_fun)
 226:Src/uds_diag.c **** {
 152              		.loc 1 226 1 is_stmt 1 view -0
 153              		.cfi_startproc
 154              		@ args = 0, pretend = 0, frame = 0
 155              		@ frame_needed = 0, uses_anonymous_args = 0
 156              		.loc 1 226 1 is_stmt 0 view .LVU36
 157 0000 08B5     		push	{r3, lr}
 158              	.LCFI1:
 159              		.cfi_def_cfa_offset 8
 160              		.cfi_offset 3, -8
 161              		.cfi_offset 14, -4
 227:Src/uds_diag.c **** 
 228:Src/uds_diag.c **** 	Send_Security_Seed.Data[SID] = Security_Service;//Security SID
 162              		.loc 1 228 2 is_stmt 1 view .LVU37
 163              		.loc 1 228 31 is_stmt 0 view .LVU38
 164 0002 204B     		ldr	r3, .L22
 165 0004 2722     		movs	r2, #39
 166 0006 1A70     		strb	r2, [r3]
 229:Src/uds_diag.c **** 
 230:Src/uds_diag.c **** 	//Prepare the Key
 231:Src/uds_diag.c **** 	//Security_Key security_key;
 232:Src/uds_diag.c **** 	Send_Security_Seed.Data[ADD_Source] = Client_Address;
 167              		.loc 1 232 2 is_stmt 1 view .LVU39
 168              		.loc 1 232 38 is_stmt 0 view .LVU40
ARM GAS  C:\Users\wup15j\AppData\Local\Temp\ccx9HpCv.s 			page 8


 169 0008 F122     		movs	r2, #241
 170 000a 5A70     		strb	r2, [r3, #1]
 233:Src/uds_diag.c **** 
 234:Src/uds_diag.c **** 	if( Target_Address == Tempreture_Address)
 171              		.loc 1 234 2 is_stmt 1 view .LVU41
 172              		.loc 1 234 21 is_stmt 0 view .LVU42
 173 000c 1E4B     		ldr	r3, .L22+4
 174 000e 1B78     		ldrb	r3, [r3]	@ zero_extendqisi2
 175              		.loc 1 234 4 view .LVU43
 176 0010 3D2B     		cmp	r3, #61
 177 0012 07D0     		beq	.L18
 235:Src/uds_diag.c **** 	{
 236:Src/uds_diag.c **** 		Send_Security_Seed.Data[ADD_Target]= Tempreture_Address; 	// ADD_Target
 237:Src/uds_diag.c **** 	}
 238:Src/uds_diag.c **** 	else if( Target_Address == Pressure_Address)
 178              		.loc 1 238 7 is_stmt 1 view .LVU44
 179              		.loc 1 238 9 is_stmt 0 view .LVU45
 180 0014 4D2B     		cmp	r3, #77
 181 0016 1DD0     		beq	.L19
 239:Src/uds_diag.c **** 	{
 240:Src/uds_diag.c **** 		Send_Security_Seed.Data[ADD_Target]= Pressure_Address; 	// ADD_Target
 241:Src/uds_diag.c **** 	}
 242:Src/uds_diag.c **** 	else if( Target_Address == Functional_Address)
 182              		.loc 1 242 7 is_stmt 1 view .LVU46
 183              		.loc 1 242 9 is_stmt 0 view .LVU47
 184 0018 FF2B     		cmp	r3, #255
 185 001a 06D1     		bne	.L13
 243:Src/uds_diag.c **** 	{
 244:Src/uds_diag.c **** 		Send_Security_Seed.Data[ADD_Target]= Functional_Address; 	// ADD_Target
 186              		.loc 1 244 3 is_stmt 1 view .LVU48
 187              		.loc 1 244 38 is_stmt 0 view .LVU49
 188 001c 194B     		ldr	r3, .L22
 189 001e FF22     		movs	r2, #255
 190 0020 9A70     		strb	r2, [r3, #2]
 191 0022 02E0     		b	.L13
 192              	.L18:
 236:Src/uds_diag.c **** 	}
 193              		.loc 1 236 3 is_stmt 1 view .LVU50
 236:Src/uds_diag.c **** 	}
 194              		.loc 1 236 38 is_stmt 0 view .LVU51
 195 0024 174B     		ldr	r3, .L22
 196 0026 3D22     		movs	r2, #61
 197 0028 9A70     		strb	r2, [r3, #2]
 198              	.L13:
 245:Src/uds_diag.c **** 	}
 246:Src/uds_diag.c **** 	else
 247:Src/uds_diag.c **** 	{
 248:Src/uds_diag.c **** 		//Nothing
 249:Src/uds_diag.c **** 	}
 199              		.loc 1 249 2 is_stmt 1 view .LVU52
 250:Src/uds_diag.c **** 	if(sub_fun == Seed)
 200              		.loc 1 250 2 view .LVU53
 201              		.loc 1 250 4 is_stmt 0 view .LVU54
 202 002a 0128     		cmp	r0, #1
 203 002c 16D0     		beq	.L20
 251:Src/uds_diag.c **** 	{
 252:Src/uds_diag.c **** 		Send_Security_Seed.Data[Sub_F] = Seed;//Sub_Fun Seed
ARM GAS  C:\Users\wup15j\AppData\Local\Temp\ccx9HpCv.s 			page 9


 253:Src/uds_diag.c **** 		Send_Security_Seed.Length = 5;
 254:Src/uds_diag.c **** 		Send_Security_Seed.Data[PCI] = 5;
 255:Src/uds_diag.c **** 	}
 256:Src/uds_diag.c **** 	else if(sub_fun == Key)
 204              		.loc 1 256 7 is_stmt 1 view .LVU55
 205              		.loc 1 256 9 is_stmt 0 view .LVU56
 206 002e 0228     		cmp	r0, #2
 207 0030 1CD0     		beq	.L21
 208              	.LVL2:
 209              	.L16:
 257:Src/uds_diag.c **** 	{
 258:Src/uds_diag.c **** 		Send_Security_Seed.Data[Sub_F] = Key;//Sub_Fun Key
 259:Src/uds_diag.c **** 		Send_Security_Seed.Length = 5+Seed_Key_Lenght;
 260:Src/uds_diag.c **** 		Send_Security_Seed.Data[PCI] = 5+Seed_Key_Lenght;
 261:Src/uds_diag.c **** 		UART_ReceiveAndConvert(8,&Send_Security_Seed);
 262:Src/uds_diag.c **** 
 263:Src/uds_diag.c **** 		//security_key.Seed = seed;
 264:Src/uds_diag.c **** 		//Prepare Key From Seed
 265:Src/uds_diag.c **** 		//uint8_t security_key_counter = Seed_Key_Lenght-1;
 266:Src/uds_diag.c **** 		//uint8_t Send_Security_Seed_counter = 2;
 267:Src/uds_diag.c **** 		/*
 268:Src/uds_diag.c **** 		while(security_key_counter >= 0 )
 269:Src/uds_diag.c **** 		{
 270:Src/uds_diag.c **** 			//sendHexArrayAsASCII(security_key.Key,4);
 271:Src/uds_diag.c **** 			//HAL_UART_Transmit(&huart2, "\r\n", 50, HAL_MAX_DELAY);
 272:Src/uds_diag.c **** 			security_key.Key[security_key_counter] = security_key.Seed[security_key_counter] + Key_Code;//+0
 273:Src/uds_diag.c **** 			security_key_counter--;
 274:Src/uds_diag.c **** 
 275:Src/uds_diag.c **** 			//Put New Key Calculated into Frame
 276:Src/uds_diag.c **** 			Send_Security_Seed.Data[Send_Security_Seed_counter] = security_key.Key[security_key_counter];
 277:Src/uds_diag.c **** 			Send_Security_Seed_counter++;
 278:Src/uds_diag.c **** 		}
 279:Src/uds_diag.c **** 		 */
 280:Src/uds_diag.c **** 		//key = security_key.Key;
 281:Src/uds_diag.c **** 
 282:Src/uds_diag.c **** 	}
 283:Src/uds_diag.c **** 	else
 284:Src/uds_diag.c **** 	{
 285:Src/uds_diag.c **** 		//Nothing
 286:Src/uds_diag.c **** 	}
 210              		.loc 1 286 2 is_stmt 1 view .LVU57
 287:Src/uds_diag.c **** 
 288:Src/uds_diag.c **** 	//Check supressed Positive Responce
 289:Src/uds_diag.c **** 	Send_Security_Seed.Data[Sub_F] |= 0b10000000;
 211              		.loc 1 289 2 view .LVU58
 212              		.loc 1 289 33 is_stmt 0 view .LVU59
 213 0032 1449     		ldr	r1, .L22
 214 0034 0B79     		ldrb	r3, [r1, #4]	@ zero_extendqisi2
 215 0036 43F08002 		orr	r2, r3, #128
 216 003a 0A71     		strb	r2, [r1, #4]
 290:Src/uds_diag.c **** 	Send_Security_Seed.Data[Sub_F] &= ((SupressedPosRes_CLient<<7)|0x7F);
 217              		.loc 1 290 2 is_stmt 1 view .LVU60
 218              		.loc 1 290 60 is_stmt 0 view .LVU61
 219 003c 134B     		ldr	r3, .L22+8
 220 003e 1B78     		ldrb	r3, [r3]	@ zero_extendqisi2
 221 0040 DB01     		lsls	r3, r3, #7
 222              		.loc 1 290 64 view .LVU62
ARM GAS  C:\Users\wup15j\AppData\Local\Temp\ccx9HpCv.s 			page 10


 223 0042 43F07F03 		orr	r3, r3, #127
 224 0046 5BB2     		sxtb	r3, r3
 225              		.loc 1 290 33 view .LVU63
 226 0048 1340     		ands	r3, r3, r2
 227 004a 0B71     		strb	r3, [r1, #4]
 291:Src/uds_diag.c **** 
 292:Src/uds_diag.c **** 	//Send Frame to Can TP
 293:Src/uds_diag.c **** 	CanTp_Transmit(0, &Send_Security_Seed);
 228              		.loc 1 293 2 is_stmt 1 view .LVU64
 229 004c 0020     		movs	r0, #0
 230 004e FFF7FEFF 		bl	CanTp_Transmit
 231              	.LVL3:
 294:Src/uds_diag.c **** 
 295:Src/uds_diag.c **** 	//For Debugging
 296:Src/uds_diag.c **** 	//HAL_UART_Transmit(&huart2, "\r\nUDS_Send_Security_Client", 50, HAL_MAX_DELAY);
 297:Src/uds_diag.c **** 	//HAL_UART_Transmit(&huart2, "\r\n", 50, HAL_MAX_DELAY);
 298:Src/uds_diag.c **** 	//sendHexArrayAsASCII(Send_Security_Seed.Data, Send_Security_Seed.Length);
 299:Src/uds_diag.c **** 	//HAL_UART_Transmit(&huart2, "\r\n", 50, HAL_MAX_DELAY);
 300:Src/uds_diag.c **** 
 301:Src/uds_diag.c **** 
 302:Src/uds_diag.c **** }
 232              		.loc 1 302 1 is_stmt 0 view .LVU65
 233 0052 08BD     		pop	{r3, pc}
 234              	.LVL4:
 235              	.L19:
 240:Src/uds_diag.c **** 	}
 236              		.loc 1 240 3 is_stmt 1 view .LVU66
 240:Src/uds_diag.c **** 	}
 237              		.loc 1 240 38 is_stmt 0 view .LVU67
 238 0054 0B4B     		ldr	r3, .L22
 239 0056 4D22     		movs	r2, #77
 240 0058 9A70     		strb	r2, [r3, #2]
 241 005a E6E7     		b	.L13
 242              	.L20:
 252:Src/uds_diag.c **** 		Send_Security_Seed.Length = 5;
 243              		.loc 1 252 3 is_stmt 1 view .LVU68
 252:Src/uds_diag.c **** 		Send_Security_Seed.Length = 5;
 244              		.loc 1 252 34 is_stmt 0 view .LVU69
 245 005c 094B     		ldr	r3, .L22
 246 005e 0122     		movs	r2, #1
 247 0060 1A71     		strb	r2, [r3, #4]
 253:Src/uds_diag.c **** 		Send_Security_Seed.Data[PCI] = 5;
 248              		.loc 1 253 3 is_stmt 1 view .LVU70
 253:Src/uds_diag.c **** 		Send_Security_Seed.Data[PCI] = 5;
 249              		.loc 1 253 29 is_stmt 0 view .LVU71
 250 0062 0522     		movs	r2, #5
 251 0064 C3F80022 		str	r2, [r3, #512]
 254:Src/uds_diag.c **** 	}
 252              		.loc 1 254 3 is_stmt 1 view .LVU72
 254:Src/uds_diag.c **** 	}
 253              		.loc 1 254 32 is_stmt 0 view .LVU73
 254 0068 1A70     		strb	r2, [r3]
 255 006a E2E7     		b	.L16
 256              	.L21:
 258:Src/uds_diag.c **** 		Send_Security_Seed.Length = 5+Seed_Key_Lenght;
 257              		.loc 1 258 3 is_stmt 1 view .LVU74
 258:Src/uds_diag.c **** 		Send_Security_Seed.Length = 5+Seed_Key_Lenght;
ARM GAS  C:\Users\wup15j\AppData\Local\Temp\ccx9HpCv.s 			page 11


 258              		.loc 1 258 34 is_stmt 0 view .LVU75
 259 006c 0549     		ldr	r1, .L22
 260 006e 0223     		movs	r3, #2
 261 0070 0B71     		strb	r3, [r1, #4]
 259:Src/uds_diag.c **** 		Send_Security_Seed.Data[PCI] = 5+Seed_Key_Lenght;
 262              		.loc 1 259 3 is_stmt 1 view .LVU76
 259:Src/uds_diag.c **** 		Send_Security_Seed.Data[PCI] = 5+Seed_Key_Lenght;
 263              		.loc 1 259 29 is_stmt 0 view .LVU77
 264 0072 0923     		movs	r3, #9
 265 0074 C1F80032 		str	r3, [r1, #512]
 260:Src/uds_diag.c **** 		UART_ReceiveAndConvert(8,&Send_Security_Seed);
 266              		.loc 1 260 3 is_stmt 1 view .LVU78
 260:Src/uds_diag.c **** 		UART_ReceiveAndConvert(8,&Send_Security_Seed);
 267              		.loc 1 260 32 is_stmt 0 view .LVU79
 268 0078 0B70     		strb	r3, [r1]
 261:Src/uds_diag.c **** 
 269              		.loc 1 261 3 is_stmt 1 view .LVU80
 270 007a 0820     		movs	r0, #8
 271              	.LVL5:
 261:Src/uds_diag.c **** 
 272              		.loc 1 261 3 is_stmt 0 view .LVU81
 273 007c FFF7FEFF 		bl	UART_ReceiveAndConvert
 274              	.LVL6:
 275 0080 D7E7     		b	.L16
 276              	.L23:
 277 0082 00BF     		.align	2
 278              	.L22:
 279 0084 00000000 		.word	.LANCHOR3
 280 0088 00000000 		.word	.LANCHOR1
 281 008c 00000000 		.word	.LANCHOR2
 282              		.cfi_endproc
 283              	.LFE75:
 285              		.section	.rodata.sendHexArrayAsASCII.str1.4,"aMS",%progbits,1
 286              		.align	2
 287              	.LC0:
 288 0000 25303258 		.ascii	"%02X\000"
 288      00
 289              		.section	.text.sendHexArrayAsASCII,"ax",%progbits
 290              		.align	1
 291              		.global	sendHexArrayAsASCII
 292              		.syntax unified
 293              		.thumb
 294              		.thumb_func
 296              	sendHexArrayAsASCII:
 297              	.LVL7:
 298              	.LFB76:
 303:Src/uds_diag.c **** 
 304:Src/uds_diag.c **** 
 305:Src/uds_diag.c **** 
 306:Src/uds_diag.c **** 
 307:Src/uds_diag.c **** /***************************************************************CallBack Function******************
 308:Src/uds_diag.c **** //
 309:Src/uds_diag.c **** //void UDS_Client_Callback(uint32_t RxPduId,PduInfoType *Ptr)
 310:Src/uds_diag.c **** //{
 311:Src/uds_diag.c **** //	/*************************************************************************************/
 312:Src/uds_diag.c **** //
 313:Src/uds_diag.c **** //					//recieve response frame from tp
ARM GAS  C:\Users\wup15j\AppData\Local\Temp\ccx9HpCv.s 			page 12


 314:Src/uds_diag.c **** //					//check First Byte
 315:Src/uds_diag.c **** //					// if(7F == arr[0])  // -ive  // print NRC
 316:Src/uds_diag.c **** //					// else +ive
 317:Src/uds_diag.c **** //					// read SID--> if read --> print data
 318:Src/uds_diag.c **** //					// if write --> print success
 319:Src/uds_diag.c **** //					// if control --> print current session
 320:Src/uds_diag.c **** //					// if security --> security state
 321:Src/uds_diag.c **** //
 322:Src/uds_diag.c **** //	/*************************************************************************************/
 323:Src/uds_diag.c **** //	//PduInfoType Glgl;
 324:Src/uds_diag.c **** //	//CanTp_RxIndication ( 0, &Glgl);
 325:Src/uds_diag.c **** //	//PduInfoType *Ptr1 = &Glgl;
 326:Src/uds_diag.c **** //	//ptr->Data[0] = ptr->Data[0] - 0x40;
 327:Src/uds_diag.c **** //
 328:Src/uds_diag.c **** //	if ( Ptr ->Data[0] == 0x7f)
 329:Src/uds_diag.c **** //	{
 330:Src/uds_diag.c **** //		HAL_UART_Transmit(&huart2, (const uint8_t*) "\r\n Sorry Negative frame .\r\n",strlen("\r\n Sorr
 331:Src/uds_diag.c **** //	}
 332:Src/uds_diag.c **** //
 333:Src/uds_diag.c **** //	else {
 334:Src/uds_diag.c **** //		/*  READ IDS Message */
 335:Src/uds_diag.c **** //		if (Ptr->Data[0] == Read_Service)
 336:Src/uds_diag.c **** //
 337:Src/uds_diag.c **** //		{
 338:Src/uds_diag.c **** //			if  ( ptr->Data[SID] == SW_version_First_byte &&  ptr->Data[Sub_F] == SW_version_Second_byte )
 339:Src/uds_diag.c **** //			{
 340:Src/uds_diag.c **** //
 341:Src/uds_diag.c **** //				HAL_UART_Transmit(&huart2, (const uint8_t*) "\r\n Oil Temp .\r\n", strlen("\r\n Oil Temp .\r\
 342:Src/uds_diag.c **** //				sendHexArrayAsASCII((const uint8_t*)&Ptr->Data[3],2);
 343:Src/uds_diag.c **** //
 344:Src/uds_diag.c **** //			}
 345:Src/uds_diag.c **** //
 346:Src/uds_diag.c **** //			else if  ( ptr->Data[SID] == Active_Session_First_byte &&  ptr->Data[Sub_F] == Active_Session_
 347:Src/uds_diag.c **** //			{
 348:Src/uds_diag.c **** //				HAL_UART_Transmit(&huart2, (const uint8_t*) "\r\n Oil Pressure .\r\n", strlen("\r\n Oil Press
 349:Src/uds_diag.c **** //				sendHexArrayAsASCII((const uint8_t*)&Ptr->Data[3],4);
 350:Src/uds_diag.c **** //
 351:Src/uds_diag.c **** //			}
 352:Src/uds_diag.c **** //		}
 353:Src/uds_diag.c **** //
 354:Src/uds_diag.c **** //		/*  Write IDS Message */
 355:Src/uds_diag.c **** //		else if (Ptr->Data[0] == Write_Service)
 356:Src/uds_diag.c **** //
 357:Src/uds_diag.c **** //		{
 358:Src/uds_diag.c **** //
 359:Src/uds_diag.c **** //			if ( ptr->Data[SID] == SW_version_First_byte &&  ptr->Data[Sub_F] == SW_version_Second_byte )
 360:Src/uds_diag.c **** //			{
 361:Src/uds_diag.c **** //				HAL_UART_Transmit(&huart2, (const uint8_t*) "\r\n Oil Temperature Written successfully .\r\n"
 362:Src/uds_diag.c **** //			}
 363:Src/uds_diag.c **** //
 364:Src/uds_diag.c **** //			else if  ( ptr->Data[SID] == Active_Session_First_byte &&  ptr->Data[Sub_F] == Active_Session_
 365:Src/uds_diag.c **** //			{
 366:Src/uds_diag.c **** //				HAL_UART_Transmit(&huart2, (const uint8_t*) "\r\n Oil Pressure Written successfully .\r\n", s
 367:Src/uds_diag.c **** //			}
 368:Src/uds_diag.c **** //		}
 369:Src/uds_diag.c **** //		/*  Control Service  Session */
 370:Src/uds_diag.c **** //
ARM GAS  C:\Users\wup15j\AppData\Local\Temp\ccx9HpCv.s 			page 13


 371:Src/uds_diag.c **** //		else if (Ptr->Data[0] == Control_Service)
 372:Src/uds_diag.c **** //
 373:Src/uds_diag.c **** //		{
 374:Src/uds_diag.c **** //
 375:Src/uds_diag.c **** //			switch ( ptr->Data[SID] )
 376:Src/uds_diag.c **** //			{
 377:Src/uds_diag.c **** //
 378:Src/uds_diag.c **** //			case Default_Session :
 379:Src/uds_diag.c **** //				HAL_UART_Transmit(&huart2, (const uint8_t*) "\r\n It's Default Session ! .\r\n", strlen("\r\n
 380:Src/uds_diag.c **** //				//UDS_Read_Data_Client(Frame_Info.DID);
 381:Src/uds_diag.c **** //				break ;
 382:Src/uds_diag.c **** //
 383:Src/uds_diag.c **** //			case Extended_Session :
 384:Src/uds_diag.c **** //				HAL_UART_Transmit(&huart2,(const uint8_t*) "\r\n It's Extended Session ! .\r\n", strlen("\r\n
 385:Src/uds_diag.c **** //				//UDS_Read_Data_Client(Frame_Info.DID);
 386:Src/uds_diag.c **** //				break ;
 387:Src/uds_diag.c **** //			}
 388:Src/uds_diag.c **** //		}
 389:Src/uds_diag.c **** //		/*  Security Service  */
 390:Src/uds_diag.c **** //
 391:Src/uds_diag.c **** //		else if (Ptr->Data[0] == Security_Service)
 392:Src/uds_diag.c **** //
 393:Src/uds_diag.c **** //		{
 394:Src/uds_diag.c **** //
 395:Src/uds_diag.c **** //			switch ( ptr->Data[SID] )
 396:Src/uds_diag.c **** //			{
 397:Src/uds_diag.c **** //
 398:Src/uds_diag.c **** //			case Key :
 399:Src/uds_diag.c **** //				HAL_UART_Transmit(&huart2, (const uint8_t*) "\r\n Key is Compatible ! .\r\n", strlen ( "\r\n 
 400:Src/uds_diag.c **** //				break ;
 401:Src/uds_diag.c **** //
 402:Src/uds_diag.c **** //			case Seed :
 403:Src/uds_diag.c **** //				HAL_UART_Transmit(&huart2, (const uint8_t*) "\r\n Seed is \r\n", strlen ("\r\n Seed is \r\n")
 404:Src/uds_diag.c **** //				sendHexArrayAsASCII((const uint8_t*)&ptr->Data[Sub_F],4);
 405:Src/uds_diag.c **** //
 406:Src/uds_diag.c **** //				break ;
 407:Src/uds_diag.c **** //			}
 408:Src/uds_diag.c **** //		}
 409:Src/uds_diag.c **** //		/*  Tester_Representer_Service  */
 410:Src/uds_diag.c **** //
 411:Src/uds_diag.c **** //		else if (Ptr->Data[0] == Tester_Representer_Service)
 412:Src/uds_diag.c **** //
 413:Src/uds_diag.c **** //		{
 414:Src/uds_diag.c **** //
 415:Src/uds_diag.c **** //			HAL_UART_Transmit(&huart2,(const uint8_t*) "\r\n ECU Reseted ! .\r\n", strlen("\r\n ECU Resete
 416:Src/uds_diag.c **** //
 417:Src/uds_diag.c **** //		}
 418:Src/uds_diag.c **** //
 419:Src/uds_diag.c **** //		else { /* no thing  */	}
 420:Src/uds_diag.c **** //
 421:Src/uds_diag.c **** //	}
 422:Src/uds_diag.c **** //
 423:Src/uds_diag.c **** //}
 424:Src/uds_diag.c **** //
 425:Src/uds_diag.c **** 
 426:Src/uds_diag.c **** /***************************************************************Shared Functions*******************
 427:Src/uds_diag.c **** 
ARM GAS  C:\Users\wup15j\AppData\Local\Temp\ccx9HpCv.s 			page 14


 428:Src/uds_diag.c **** //Function to convert from Hex to ASCII and Displays Frame on UART
 429:Src/uds_diag.c **** void sendHexArrayAsASCII(uint8_t* hexArray, uint16_t length)
 430:Src/uds_diag.c **** {
 299              		.loc 1 430 1 is_stmt 1 view -0
 300              		.cfi_startproc
 301              		@ args = 0, pretend = 0, frame = 0
 302              		@ frame_needed = 1, uses_anonymous_args = 0
 303              		.loc 1 430 1 is_stmt 0 view .LVU83
 304 0000 2DE9F041 		push	{r4, r5, r6, r7, r8, lr}
 305              	.LCFI2:
 306              		.cfi_def_cfa_offset 24
 307              		.cfi_offset 4, -24
 308              		.cfi_offset 5, -20
 309              		.cfi_offset 6, -16
 310              		.cfi_offset 7, -12
 311              		.cfi_offset 8, -8
 312              		.cfi_offset 14, -4
 313 0004 00AF     		add	r7, sp, #0
 314              	.LCFI3:
 315              		.cfi_def_cfa_register 7
 316 0006 8046     		mov	r8, r0
 317 0008 0E46     		mov	r6, r1
 431:Src/uds_diag.c **** 
 432:Src/uds_diag.c **** 	// Buffer to hold the ASCII representation (2 chars per byte + 1 for null terminator)
 433:Src/uds_diag.c **** 	char asciiBuffer[length * 2 + 1];
 318              		.loc 1 433 2 is_stmt 1 view .LVU84
 319              		.loc 1 433 26 is_stmt 0 view .LVU85
 320 000a 4B00     		lsls	r3, r1, #1
 321              	.LVL8:
 322              		.loc 1 433 7 view .LVU86
 323 000c 0833     		adds	r3, r3, #8
 324              	.LVL9:
 325              		.loc 1 433 7 view .LVU87
 326 000e DB08     		lsrs	r3, r3, #3
 327              	.LVL10:
 328              		.loc 1 433 7 view .LVU88
 329 0010 6A46     		mov	r2, sp
 330 0012 A2EBC303 		sub	r3, r2, r3, lsl #3
 331 0016 9D46     		mov	sp, r3
 332 0018 6D46     		mov	r5, sp
 333              	.LVL11:
 434:Src/uds_diag.c **** 	char* pBuffer = asciiBuffer;
 334              		.loc 1 434 2 is_stmt 1 view .LVU89
 435:Src/uds_diag.c **** 
 436:Src/uds_diag.c **** 	// Convert each byte to its ASCII representation
 437:Src/uds_diag.c **** 	for (uint16_t i = 0; i < length; i++) {
 335              		.loc 1 437 2 view .LVU90
 336              	.LBB2:
 337              		.loc 1 437 7 view .LVU91
 338              		.loc 1 437 16 is_stmt 0 view .LVU92
 339 001a 0024     		movs	r4, #0
 340              		.loc 1 437 2 view .LVU93
 341 001c 08E0     		b	.L25
 342              	.LVL12:
 343              	.L26:
 438:Src/uds_diag.c **** 		sprintf(pBuffer, "%02X", hexArray[i]);
 344              		.loc 1 438 3 is_stmt 1 discriminator 3 view .LVU94
ARM GAS  C:\Users\wup15j\AppData\Local\Temp\ccx9HpCv.s 			page 15


 345 001e 18F80420 		ldrb	r2, [r8, r4]	@ zero_extendqisi2
 346 0022 0749     		ldr	r1, .L28
 347 0024 2846     		mov	r0, r5
 348 0026 FFF7FEFF 		bl	sprintf
 349              	.LVL13:
 439:Src/uds_diag.c **** 		pBuffer += 2;
 350              		.loc 1 439 3 discriminator 3 view .LVU95
 351              		.loc 1 439 11 is_stmt 0 discriminator 3 view .LVU96
 352 002a 0235     		adds	r5, r5, #2
 353              	.LVL14:
 437:Src/uds_diag.c **** 		sprintf(pBuffer, "%02X", hexArray[i]);
 354              		.loc 1 437 35 is_stmt 1 discriminator 3 view .LVU97
 437:Src/uds_diag.c **** 		sprintf(pBuffer, "%02X", hexArray[i]);
 355              		.loc 1 437 36 is_stmt 0 discriminator 3 view .LVU98
 356 002c 0134     		adds	r4, r4, #1
 357              	.LVL15:
 437:Src/uds_diag.c **** 		sprintf(pBuffer, "%02X", hexArray[i]);
 358              		.loc 1 437 36 discriminator 3 view .LVU99
 359 002e A4B2     		uxth	r4, r4
 360              	.LVL16:
 361              	.L25:
 437:Src/uds_diag.c **** 		sprintf(pBuffer, "%02X", hexArray[i]);
 362              		.loc 1 437 23 is_stmt 1 discriminator 1 view .LVU100
 437:Src/uds_diag.c **** 		sprintf(pBuffer, "%02X", hexArray[i]);
 363              		.loc 1 437 2 is_stmt 0 discriminator 1 view .LVU101
 364 0030 B442     		cmp	r4, r6
 365 0032 F4D3     		bcc	.L26
 437:Src/uds_diag.c **** 		sprintf(pBuffer, "%02X", hexArray[i]);
 366              		.loc 1 437 2 discriminator 1 view .LVU102
 367              	.LBE2:
 440:Src/uds_diag.c **** 	}
 441:Src/uds_diag.c **** 
 442:Src/uds_diag.c **** 	// Null-terminate the string
 443:Src/uds_diag.c **** 	*pBuffer = '\0';
 368              		.loc 1 443 2 is_stmt 1 view .LVU103
 369              		.loc 1 443 11 is_stmt 0 view .LVU104
 370 0034 0023     		movs	r3, #0
 371 0036 2B70     		strb	r3, [r5]
 444:Src/uds_diag.c **** 
 445:Src/uds_diag.c **** 	// Transmit the ASCII string over UART
 446:Src/uds_diag.c **** 	//(&huart2, (uint8_t*)asciiBuffer, strlen(asciiBuffer), HAL_MAX_DELAY);
 447:Src/uds_diag.c **** }
 372              		.loc 1 447 1 view .LVU105
 373 0038 BD46     		mov	sp, r7
 374              	.LCFI4:
 375              		.cfi_def_cfa_register 13
 376              	.LVL17:
 377              		.loc 1 447 1 view .LVU106
 378              		@ sp needed
 379 003a BDE8F081 		pop	{r4, r5, r6, r7, r8, pc}
 380              	.LVL18:
 381              	.L29:
 382              		.loc 1 447 1 view .LVU107
 383 003e 00BF     		.align	2
 384              	.L28:
 385 0040 00000000 		.word	.LC0
 386              		.cfi_endproc
ARM GAS  C:\Users\wup15j\AppData\Local\Temp\ccx9HpCv.s 			page 16


 387              	.LFE76:
 389              		.section	.text.charToHex,"ax",%progbits
 390              		.align	1
 391              		.global	charToHex
 392              		.syntax unified
 393              		.thumb
 394              		.thumb_func
 396              	charToHex:
 397              	.LVL19:
 398              	.LFB77:
 448:Src/uds_diag.c **** 
 449:Src/uds_diag.c **** 
 450:Src/uds_diag.c **** 
 451:Src/uds_diag.c **** // void UART_ReceiveAndConvert(uint8_t RX_BUFFER_SIZE, PduInfoType* PduInfoType_Ptr)
 452:Src/uds_diag.c **** // {
 453:Src/uds_diag.c **** // 	uint8_t rxBuffer[RX_BUFFER_SIZE];
 454:Src/uds_diag.c **** // 	uint8_t hexValue;
 455:Src/uds_diag.c **** // 	uint8_t hexOutput[RX_BUFFER_SIZE / 2];
 456:Src/uds_diag.c **** // 	uint16_t length = 0;
 457:Src/uds_diag.c **** 
 458:Src/uds_diag.c **** // 	// Receive ASCII characters from UART
 459:Src/uds_diag.c **** // 	if (HAL_UART_Receive(&huart2, rxBuffer, RX_BUFFER_SIZE, HAL_MAX_DELAY) == HAL_OK) {
 460:Src/uds_diag.c **** // 		// Calculate the length of the received string
 461:Src/uds_diag.c **** // 		length = RX_BUFFER_SIZE/*strlen((char*)rxBuffer)*/;
 462:Src/uds_diag.c **** 
 463:Src/uds_diag.c **** // 		// Ensure the length is even (each hex byte is represented by 2 ASCII characters)
 464:Src/uds_diag.c **** // 		if (length % 2 != 0) {
 465:Src/uds_diag.c **** // 			// Send an error message
 466:Src/uds_diag.c **** // 			char errorMsg[] = "Error: Odd number of characters received.\n";
 467:Src/uds_diag.c **** // 			//(&huart2, (uint8_t*)errorMsg, strlen(errorMsg), HAL_MAX_DELAY);
 468:Src/uds_diag.c **** // 			return;
 469:Src/uds_diag.c **** // 		}
 470:Src/uds_diag.c **** 
 471:Src/uds_diag.c **** // 		// Process each pair of ASCII characters
 472:Src/uds_diag.c **** // 		for (uint16_t i = 0; i < length; i += 2) {
 473:Src/uds_diag.c **** // 			hexValue = (charToHex(rxBuffer[i]) << 4) | charToHex(rxBuffer[i + 1]);
 474:Src/uds_diag.c **** // 			//update hexvalue into frame
 475:Src/uds_diag.c **** // 			if(PduInfoType_Ptr->Data[Sub_F] == Key)
 476:Src/uds_diag.c **** // 			{
 477:Src/uds_diag.c **** // 				PduInfoType_Ptr->Data[(i / 2)+5] = hexValue;
 478:Src/uds_diag.c **** // 			}
 479:Src/uds_diag.c **** // 			else if ( (PduInfoType_Ptr->Data[DID_1] == SW_version_First_byte) || (PduInfoType_Ptr->Data[D
 480:Src/uds_diag.c **** // 			{
 481:Src/uds_diag.c **** // 				PduInfoType_Ptr->Data[(i / 2)+6] = hexValue;
 482:Src/uds_diag.c **** // 			}
 483:Src/uds_diag.c **** 
 484:Src/uds_diag.c **** // 			hexOutput[i / 2] = hexValue;
 485:Src/uds_diag.c **** // 			// Optionally, send the hexadecimal values back via UART
 486:Src/uds_diag.c **** // 			//HAL_UART_Transmit(&huart2, hexOutput, 1/*length / 2*/, HAL_MAX_DELAY);
 487:Src/uds_diag.c **** // 		}
 488:Src/uds_diag.c **** // 		sendHexArrayAsASCII(hexOutput,  length / 2);
 489:Src/uds_diag.c **** 
 490:Src/uds_diag.c **** // 	}
 491:Src/uds_diag.c **** // }
 492:Src/uds_diag.c **** 
 493:Src/uds_diag.c **** uint8_t charToHex(uint8_t ascii)
 494:Src/uds_diag.c **** {
ARM GAS  C:\Users\wup15j\AppData\Local\Temp\ccx9HpCv.s 			page 17


 399              		.loc 1 494 1 is_stmt 1 view -0
 400              		.cfi_startproc
 401              		@ args = 0, pretend = 0, frame = 0
 402              		@ frame_needed = 0, uses_anonymous_args = 0
 403              		@ link register save eliminated.
 404              		.loc 1 494 1 is_stmt 0 view .LVU109
 405 0000 0346     		mov	r3, r0
 495:Src/uds_diag.c **** 	if (ascii >= '0' && ascii <= '9') {
 406              		.loc 1 495 2 is_stmt 1 view .LVU110
 407              		.loc 1 495 19 is_stmt 0 view .LVU111
 408 0002 3038     		subs	r0, r0, #48
 409              	.LVL20:
 410              		.loc 1 495 19 view .LVU112
 411 0004 C0B2     		uxtb	r0, r0
 412              		.loc 1 495 5 view .LVU113
 413 0006 0928     		cmp	r0, #9
 414 0008 10D9     		bls	.L31
 496:Src/uds_diag.c **** 		return ascii - '0';
 497:Src/uds_diag.c **** 	} else if (ascii >= 'A' && ascii <= 'F') {
 415              		.loc 1 497 9 is_stmt 1 view .LVU114
 416              		.loc 1 497 26 is_stmt 0 view .LVU115
 417 000a A3F14102 		sub	r2, r3, #65
 418 000e D2B2     		uxtb	r2, r2
 419              		.loc 1 497 12 view .LVU116
 420 0010 052A     		cmp	r2, #5
 421 0012 07D9     		bls	.L34
 498:Src/uds_diag.c **** 		return ascii - 'A' + 10;
 499:Src/uds_diag.c **** 	} else if (ascii >= 'a' && ascii <= 'f') {
 422              		.loc 1 499 9 is_stmt 1 view .LVU117
 423              		.loc 1 499 26 is_stmt 0 view .LVU118
 424 0014 A3F16102 		sub	r2, r3, #97
 425 0018 D2B2     		uxtb	r2, r2
 426              		.loc 1 499 12 view .LVU119
 427 001a 052A     		cmp	r2, #5
 428 001c 05D8     		bhi	.L33
 500:Src/uds_diag.c **** 		return ascii - 'a' + 10;
 429              		.loc 1 500 3 is_stmt 1 view .LVU120
 430              		.loc 1 500 22 is_stmt 0 view .LVU121
 431 001e 573B     		subs	r3, r3, #87
 432 0020 D8B2     		uxtb	r0, r3
 433 0022 7047     		bx	lr
 434              	.L34:
 498:Src/uds_diag.c **** 		return ascii - 'A' + 10;
 435              		.loc 1 498 3 is_stmt 1 view .LVU122
 498:Src/uds_diag.c **** 		return ascii - 'A' + 10;
 436              		.loc 1 498 22 is_stmt 0 view .LVU123
 437 0024 373B     		subs	r3, r3, #55
 438 0026 D8B2     		uxtb	r0, r3
 439 0028 7047     		bx	lr
 440              	.L33:
 501:Src/uds_diag.c **** 	} else {
 502:Src/uds_diag.c **** 		return 0; // Invalid character
 441              		.loc 1 502 10 view .LVU124
 442 002a 0020     		movs	r0, #0
 443              	.L31:
 503:Src/uds_diag.c **** 	}
 504:Src/uds_diag.c **** }
ARM GAS  C:\Users\wup15j\AppData\Local\Temp\ccx9HpCv.s 			page 18


 444              		.loc 1 504 1 view .LVU125
 445 002c 7047     		bx	lr
 446              		.cfi_endproc
 447              	.LFE77:
 449              		.section	.text.UDS_Send_Pos_Res,"ax",%progbits
 450              		.align	1
 451              		.global	UDS_Send_Pos_Res
 452              		.syntax unified
 453              		.thumb
 454              		.thumb_func
 456              	UDS_Send_Pos_Res:
 457              	.LVL21:
 458              	.LFB79:
 505:Src/uds_diag.c **** 
 506:Src/uds_diag.c **** 
 507:Src/uds_diag.c **** /***************************************************************Server*****************************
 508:Src/uds_diag.c **** 
 509:Src/uds_diag.c **** void UDS_Write_Data_Server(uint8_t* received_data, uint16_t received_length)
 510:Src/uds_diag.c **** {
 511:Src/uds_diag.c **** 	/*???????????????????????*/
 512:Src/uds_diag.c **** 	uint8_t received_data_l = sizeof(received_data);
 513:Src/uds_diag.c **** 	if (received_length != received_data_l - 1)
 514:Src/uds_diag.c **** 	{
 515:Src/uds_diag.c **** 		//UDS_Send_Neg_Res(Write_Service, incorrectMessageLengthOrInvalidFormat);
 516:Src/uds_diag.c **** 	}
 517:Src/uds_diag.c **** 
 518:Src/uds_diag.c **** 	// Extract the DID from the received data
 519:Src/uds_diag.c **** 	//	uint16_t DID = (received_data[2] << 8) | received_data[3];
 520:Src/uds_diag.c **** 
 521:Src/uds_diag.c **** 	// Extract the data from the received data
 522:Src/uds_diag.c **** 	//	uint32_t data;
 523:Src/uds_diag.c **** 	//	data = (received_data[4] << 24) | (received_data[5] << 16) | (received_data[6] << 8) | received
 524:Src/uds_diag.c **** 
 525:Src/uds_diag.c **** 
 526:Src/uds_diag.c **** 	// update the data in the required DID
 527:Src/uds_diag.c **** 	//	uint8_t returnType = check_DID( DID, data);
 528:Src/uds_diag.c **** 	// according to the returnType if it is equal to 1 --> positive response - but if it is equal to 0
 529:Src/uds_diag.c **** 
 530:Src/uds_diag.c **** 	/*********************************
 531:Src/uds_diag.c **** 		this is the logic of +ive resp ( we need edit )
 532:Src/uds_diag.c **** 	 *************************************/
 533:Src/uds_diag.c **** 	// Define the positive response array
 534:Src/uds_diag.c **** 	//	uint8_t arr[7]; // Adjust size as needed
 535:Src/uds_diag.c **** 	//	uint8_t  SID_response = 0x6E; // Positive response SID (0x2E + 0x40)
 536:Src/uds_diag.c **** 
 537:Src/uds_diag.c **** 	// Fill the local array with SID_response, DID, and data
 538:Src/uds_diag.c **** 	//	arr[0] = SID_response;
 539:Src/uds_diag.c **** 	//	arr[1] = (DID >> 8) & 0xFF; // Most significant byte of DID
 540:Src/uds_diag.c **** 	//	arr[2] = DID & 0xFF;        // Least significant byte of DID
 541:Src/uds_diag.c **** 	//
 542:Src/uds_diag.c **** 	//	// Assuming Data is 4 bytes
 543:Src/uds_diag.c **** 	//	arr[3] = (data >> 24) & 0xFF; // Most significant byte of data
 544:Src/uds_diag.c **** 	//	arr[4] = (data >> 16) & 0xFF;
 545:Src/uds_diag.c **** 	//	arr[5] = (data >> 8) & 0xFF;
 546:Src/uds_diag.c **** 	//	arr[6] = data & 0xFF;		  // Least significant byte of data
 547:Src/uds_diag.c **** 
 548:Src/uds_diag.c **** 
ARM GAS  C:\Users\wup15j\AppData\Local\Temp\ccx9HpCv.s 			page 19


 549:Src/uds_diag.c **** 	pos_Response.SID = Write_Service ;
 550:Src/uds_diag.c **** 	pos_Response.DID[0]=received_data[DID_1];
 551:Src/uds_diag.c **** 	pos_Response.DID[1]=received_data[DID_2];
 552:Src/uds_diag.c **** 	pos_Response.DID_Length=2;
 553:Src/uds_diag.c **** 	pos_Response.Data_Length = 0;
 554:Src/uds_diag.c **** 	pos_Response.SUB_FUNC = -1;
 555:Src/uds_diag.c **** 
 556:Src/uds_diag.c **** 	pos_Response.DID[0] |= 0b10000000;//Original DID
 557:Src/uds_diag.c **** 
 558:Src/uds_diag.c **** 	if(received_data[DID_1] == SW_version_First_byte && received_data[DID_2] == SW_version_Second_byte
 559:Src/uds_diag.c **** 		SW_version_var = received_data[Data_DID] << 8 | received_data[Data_DID+1];
 560:Src/uds_diag.c **** 	}
 561:Src/uds_diag.c **** 	else if(received_data[DID_1] == Active_Session_First_byte && received_data[DID_2] == Active_Sessio
 562:Src/uds_diag.c **** 		Active_Session_var = received_data[Data_DID] << 24 | received_data[Data_DID+1] << 16 | received_d
 563:Src/uds_diag.c **** 	}
 564:Src/uds_diag.c **** 	else if(received_data[DID_1] == VIN_number_First_byte && received_data[DID_2] == VIN_number_Second
 565:Src/uds_diag.c **** 		//VIN_number_var = received_data[Data_DID] << 24 | received_data[Data_DID+1] << 16 | received_dat
 566:Src/uds_diag.c **** 
 567:Src/uds_diag.c **** 		for (uint8_t i=0; i<=16; i++)
 568:Src/uds_diag.c **** 		{
 569:Src/uds_diag.c **** 			VIN_number_var[i] = received_data[Data_DID + i];
 570:Src/uds_diag.c **** 			//VIN_number_var |= received_data[(Data_DID + (16-i))] << (i*8);
 571:Src/uds_diag.c **** 		}
 572:Src/uds_diag.c **** /*
 573:Src/uds_diag.c **** 		HAL_UART_Transmit(&huart2, (uint8_t*)"VIN_number_var: ", strlen("VIN_number_var: "), HAL_MAX_DELA
 574:Src/uds_diag.c **** 		sendHexArrayAsASCII(VIN_number_var,  17);
 575:Src/uds_diag.c **** 		HAL_UART_Transmit(&huart2, (uint8_t*)"\r\n", strlen("\r\n"), HAL_MAX_DELAY);
 576:Src/uds_diag.c **** 		sendHexArrayAsASCII(&received_data[Data_DID],  17);
 577:Src/uds_diag.c **** 		HAL_UART_Transmit(&huart2, (uint8_t*)"\r\n", strlen("\r\n"), HAL_MAX_DELAY);
 578:Src/uds_diag.c **** 	*/
 579:Src/uds_diag.c **** 	}
 580:Src/uds_diag.c **** 	else
 581:Src/uds_diag.c **** 	{
 582:Src/uds_diag.c **** 		//Another DID
 583:Src/uds_diag.c **** 	}
 584:Src/uds_diag.c **** 	if(SupressedPosRes_Server == 1)
 585:Src/uds_diag.c **** 	{
 586:Src/uds_diag.c **** 		UDS_Send_Pos_Res(&pos_Response);
 587:Src/uds_diag.c **** 		return;
 588:Src/uds_diag.c **** 	}
 589:Src/uds_diag.c **** 
 590:Src/uds_diag.c **** 	return;
 591:Src/uds_diag.c **** 
 592:Src/uds_diag.c **** 	/*
 593:Src/uds_diag.c **** 	PduInfoType hamada_write;
 594:Src/uds_diag.c **** 
 595:Src/uds_diag.c **** 	// Prepare the TP structure
 596:Src/uds_diag.c **** 	//hamada_write.Data = arr;
 597:Src/uds_diag.c **** 
 598:Src/uds_diag.c **** 	for(int i = 0 ; i< 8; i++)
 599:Src/uds_diag.c **** 	{
 600:Src/uds_diag.c **** 		hamada_write.Data[i] = arr[i];
 601:Src/uds_diag.c **** 	}
 602:Src/uds_diag.c **** 	hamada_write.Length = sizeof(arr);
 603:Src/uds_diag.c **** 
 604:Src/uds_diag.c **** 	// Transmit the data through CAN_TP using this function
 605:Src/uds_diag.c **** 	CanTP_Transmit(0, &hamada_write);*/
ARM GAS  C:\Users\wup15j\AppData\Local\Temp\ccx9HpCv.s 			page 20


 606:Src/uds_diag.c **** }
 607:Src/uds_diag.c **** 
 608:Src/uds_diag.c **** 
 609:Src/uds_diag.c **** 
 610:Src/uds_diag.c **** /*****************************************************************************/
 611:Src/uds_diag.c **** 
 612:Src/uds_diag.c **** void UDS_Send_Pos_Res(ServiceInfo* Response)
 613:Src/uds_diag.c **** {
 459              		.loc 1 613 1 is_stmt 1 view -0
 460              		.cfi_startproc
 461              		@ args = 0, pretend = 0, frame = 0
 462              		@ frame_needed = 0, uses_anonymous_args = 0
 463              		.loc 1 613 1 is_stmt 0 view .LVU127
 464 0000 10B5     		push	{r4, lr}
 465              	.LCFI5:
 466              		.cfi_def_cfa_offset 8
 467              		.cfi_offset 4, -8
 468              		.cfi_offset 14, -4
 614:Src/uds_diag.c **** 
 615:Src/uds_diag.c **** 	uint8_t PCI = Response->DID_Length + Response->Data_Length;
 469              		.loc 1 615 2 is_stmt 1 view .LVU128
 470              		.loc 1 615 24 is_stmt 0 view .LVU129
 471 0002 0479     		ldrb	r4, [r0, #4]	@ zero_extendqisi2
 472              		.loc 1 615 47 view .LVU130
 473 0004 90F805E2 		ldrb	lr, [r0, #517]	@ zero_extendqisi2
 474              		.loc 1 615 10 view .LVU131
 475 0008 7444     		add	r4, r4, lr
 476 000a E4B2     		uxtb	r4, r4
 477              	.LVL22:
 616:Src/uds_diag.c **** 	msg.Data[SID] = Response->SID + 0x40;
 478              		.loc 1 616 2 is_stmt 1 view .LVU132
 479              		.loc 1 616 26 is_stmt 0 view .LVU133
 480 000c 0378     		ldrb	r3, [r0]	@ zero_extendqisi2
 481              		.loc 1 616 32 view .LVU134
 482 000e 4033     		adds	r3, r3, #64
 483              		.loc 1 616 16 view .LVU135
 484 0010 174A     		ldr	r2, .L43
 485 0012 1370     		strb	r3, [r2]
 617:Src/uds_diag.c **** 	uint8_t currentIndex = Sub_F;
 486              		.loc 1 617 2 is_stmt 1 view .LVU136
 487              	.LVL23:
 618:Src/uds_diag.c **** 	if(Response->SUB_FUNC != -1)
 488              		.loc 1 618 2 view .LVU137
 489              		.loc 1 618 13 is_stmt 0 view .LVU138
 490 0014 90F90130 		ldrsb	r3, [r0, #1]
 491              		.loc 1 618 4 view .LVU139
 492 0018 B3F1FF3F 		cmp	r3, #-1
 493 001c 10D0     		beq	.L41
 619:Src/uds_diag.c **** 	{
 620:Src/uds_diag.c **** 		PCI++;
 494              		.loc 1 620 3 is_stmt 1 view .LVU140
 495              		.loc 1 620 6 is_stmt 0 view .LVU141
 496 001e 0134     		adds	r4, r4, #1
 497              	.LVL24:
 498              		.loc 1 620 6 view .LVU142
 499 0020 E4B2     		uxtb	r4, r4
 500              	.LVL25:
ARM GAS  C:\Users\wup15j\AppData\Local\Temp\ccx9HpCv.s 			page 21


 621:Src/uds_diag.c **** 		msg.Data[currentIndex++]= Response->SUB_FUNC;
 501              		.loc 1 621 3 is_stmt 1 view .LVU143
 502              		.loc 1 621 27 is_stmt 0 view .LVU144
 503 0022 1371     		strb	r3, [r2, #4]
 504              		.loc 1 621 24 view .LVU145
 505 0024 0522     		movs	r2, #5
 506              	.LVL26:
 507              	.L37:
 622:Src/uds_diag.c **** 	}
 623:Src/uds_diag.c **** 	else
 624:Src/uds_diag.c **** 	{
 625:Src/uds_diag.c **** 		for(currentIndex = DID_1; currentIndex <= Response->DID_Length ; currentIndex++)
 626:Src/uds_diag.c **** 		{
 627:Src/uds_diag.c **** 			msg.Data[currentIndex] = Response->DID[currentIndex - 1 ];
 628:Src/uds_diag.c **** 		}
 629:Src/uds_diag.c **** 	}
 630:Src/uds_diag.c **** 
 631:Src/uds_diag.c **** 	uint8_t temp = currentIndex;
 508              		.loc 1 631 2 is_stmt 1 view .LVU146
 632:Src/uds_diag.c **** 	while(currentIndex < Response->Data_Length + temp)
 509              		.loc 1 632 2 view .LVU147
 510              		.loc 1 632 7 is_stmt 0 view .LVU148
 511 0026 1346     		mov	r3, r2
 512 0028 15E0     		b	.L39
 513              	.LVL27:
 514              	.L38:
 627:Src/uds_diag.c **** 		}
 515              		.loc 1 627 4 is_stmt 1 discriminator 3 view .LVU149
 627:Src/uds_diag.c **** 		}
 516              		.loc 1 627 56 is_stmt 0 discriminator 3 view .LVU150
 517 002a 531E     		subs	r3, r2, #1
 627:Src/uds_diag.c **** 		}
 518              		.loc 1 627 42 discriminator 3 view .LVU151
 519 002c 0344     		add	r3, r3, r0
 520 002e 9978     		ldrb	r1, [r3, #2]	@ zero_extendqisi2
 627:Src/uds_diag.c **** 		}
 521              		.loc 1 627 27 discriminator 3 view .LVU152
 522 0030 0F4B     		ldr	r3, .L43
 523 0032 9954     		strb	r1, [r3, r2]
 625:Src/uds_diag.c **** 		{
 524              		.loc 1 625 68 is_stmt 1 discriminator 3 view .LVU153
 625:Src/uds_diag.c **** 		{
 525              		.loc 1 625 80 is_stmt 0 discriminator 3 view .LVU154
 526 0034 0132     		adds	r2, r2, #1
 527              	.LVL28:
 625:Src/uds_diag.c **** 		{
 528              		.loc 1 625 80 discriminator 3 view .LVU155
 529 0036 D2B2     		uxtb	r2, r2
 530              	.LVL29:
 531              	.L36:
 625:Src/uds_diag.c **** 		{
 532              		.loc 1 625 29 is_stmt 1 discriminator 1 view .LVU156
 625:Src/uds_diag.c **** 		{
 533              		.loc 1 625 53 is_stmt 0 discriminator 1 view .LVU157
 534 0038 0379     		ldrb	r3, [r0, #4]	@ zero_extendqisi2
 625:Src/uds_diag.c **** 		{
 535              		.loc 1 625 3 discriminator 1 view .LVU158
ARM GAS  C:\Users\wup15j\AppData\Local\Temp\ccx9HpCv.s 			page 22


 536 003a 9342     		cmp	r3, r2
 537 003c F5D2     		bcs	.L38
 538 003e F2E7     		b	.L37
 539              	.LVL30:
 540              	.L41:
 625:Src/uds_diag.c **** 		{
 541              		.loc 1 625 20 view .LVU159
 542 0040 0122     		movs	r2, #1
 543 0042 F9E7     		b	.L36
 544              	.LVL31:
 545              	.L40:
 633:Src/uds_diag.c **** 	{
 634:Src/uds_diag.c **** 		msg.Data[currentIndex] = Response->Data[currentIndex - temp];
 546              		.loc 1 634 3 is_stmt 1 view .LVU160
 547              		.loc 1 634 56 is_stmt 0 view .LVU161
 548 0044 991A     		subs	r1, r3, r2
 549              		.loc 1 634 42 view .LVU162
 550 0046 0144     		add	r1, r1, r0
 551 0048 91F805C0 		ldrb	ip, [r1, #5]	@ zero_extendqisi2
 552              		.loc 1 634 26 view .LVU163
 553 004c 0849     		ldr	r1, .L43
 554 004e 01F803C0 		strb	ip, [r1, r3]
 635:Src/uds_diag.c **** 		currentIndex++;
 555              		.loc 1 635 3 is_stmt 1 view .LVU164
 556              		.loc 1 635 15 is_stmt 0 view .LVU165
 557 0052 0133     		adds	r3, r3, #1
 558              	.LVL32:
 559              		.loc 1 635 15 view .LVU166
 560 0054 DBB2     		uxtb	r3, r3
 561              	.LVL33:
 562              	.L39:
 632:Src/uds_diag.c **** 	{
 563              		.loc 1 632 7 is_stmt 1 view .LVU167
 632:Src/uds_diag.c **** 	{
 564              		.loc 1 632 45 is_stmt 0 view .LVU168
 565 0056 0EEB0201 		add	r1, lr, r2
 632:Src/uds_diag.c **** 	{
 566              		.loc 1 632 7 view .LVU169
 567 005a 8B42     		cmp	r3, r1
 568 005c F2DB     		blt	.L40
 636:Src/uds_diag.c **** 	}
 637:Src/uds_diag.c **** 	msg.Length = PCI+1;
 569              		.loc 1 637 2 is_stmt 1 view .LVU170
 570              		.loc 1 637 18 is_stmt 0 view .LVU171
 571 005e 0134     		adds	r4, r4, #1
 572              	.LVL34:
 573              		.loc 1 637 13 view .LVU172
 574 0060 0349     		ldr	r1, .L43
 575 0062 C1F80042 		str	r4, [r1, #512]
 638:Src/uds_diag.c **** 
 639:Src/uds_diag.c **** 	CanTp_Transmit(8, &msg);
 576              		.loc 1 639 2 is_stmt 1 view .LVU173
 577 0066 0820     		movs	r0, #8
 578              	.LVL35:
 579              		.loc 1 639 2 is_stmt 0 view .LVU174
 580 0068 FFF7FEFF 		bl	CanTp_Transmit
 581              	.LVL36:
ARM GAS  C:\Users\wup15j\AppData\Local\Temp\ccx9HpCv.s 			page 23


 640:Src/uds_diag.c **** }
 582              		.loc 1 640 1 view .LVU175
 583 006c 10BD     		pop	{r4, pc}
 584              	.L44:
 585 006e 00BF     		.align	2
 586              	.L43:
 587 0070 00000000 		.word	.LANCHOR4
 588              		.cfi_endproc
 589              	.LFE79:
 591              		.section	.text.UDS_Write_Data_Server,"ax",%progbits
 592              		.align	1
 593              		.global	UDS_Write_Data_Server
 594              		.syntax unified
 595              		.thumb
 596              		.thumb_func
 598              	UDS_Write_Data_Server:
 599              	.LVL37:
 600              	.LFB78:
 510:Src/uds_diag.c **** 	/*???????????????????????*/
 601              		.loc 1 510 1 is_stmt 1 view -0
 602              		.cfi_startproc
 603              		@ args = 0, pretend = 0, frame = 0
 604              		@ frame_needed = 0, uses_anonymous_args = 0
 510:Src/uds_diag.c **** 	/*???????????????????????*/
 605              		.loc 1 510 1 is_stmt 0 view .LVU177
 606 0000 08B5     		push	{r3, lr}
 607              	.LCFI6:
 608              		.cfi_def_cfa_offset 8
 609              		.cfi_offset 3, -8
 610              		.cfi_offset 14, -4
 512:Src/uds_diag.c **** 	if (received_length != received_data_l - 1)
 611              		.loc 1 512 2 is_stmt 1 view .LVU178
 612              	.LVL38:
 513:Src/uds_diag.c **** 	{
 613              		.loc 1 513 2 view .LVU179
 516:Src/uds_diag.c **** 
 614              		.loc 1 516 2 view .LVU180
 549:Src/uds_diag.c **** 	pos_Response.DID[0]=received_data[DID_1];
 615              		.loc 1 549 2 view .LVU181
 549:Src/uds_diag.c **** 	pos_Response.DID[0]=received_data[DID_1];
 616              		.loc 1 549 19 is_stmt 0 view .LVU182
 617 0002 254B     		ldr	r3, .L58
 618 0004 2E22     		movs	r2, #46
 619 0006 1A70     		strb	r2, [r3]
 550:Src/uds_diag.c **** 	pos_Response.DID[1]=received_data[DID_2];
 620              		.loc 1 550 2 is_stmt 1 view .LVU183
 550:Src/uds_diag.c **** 	pos_Response.DID[1]=received_data[DID_2];
 621              		.loc 1 550 35 is_stmt 0 view .LVU184
 622 0008 90F90120 		ldrsb	r2, [r0, #1]
 550:Src/uds_diag.c **** 	pos_Response.DID[1]=received_data[DID_2];
 623              		.loc 1 550 21 view .LVU185
 624 000c 9A70     		strb	r2, [r3, #2]
 551:Src/uds_diag.c **** 	pos_Response.DID_Length=2;
 625              		.loc 1 551 2 is_stmt 1 view .LVU186
 551:Src/uds_diag.c **** 	pos_Response.DID_Length=2;
 626              		.loc 1 551 35 is_stmt 0 view .LVU187
 627 000e 90F90210 		ldrsb	r1, [r0, #2]
ARM GAS  C:\Users\wup15j\AppData\Local\Temp\ccx9HpCv.s 			page 24


 628              	.LVL39:
 551:Src/uds_diag.c **** 	pos_Response.DID_Length=2;
 629              		.loc 1 551 21 view .LVU188
 630 0012 D970     		strb	r1, [r3, #3]
 552:Src/uds_diag.c **** 	pos_Response.Data_Length = 0;
 631              		.loc 1 552 2 is_stmt 1 view .LVU189
 552:Src/uds_diag.c **** 	pos_Response.Data_Length = 0;
 632              		.loc 1 552 25 is_stmt 0 view .LVU190
 633 0014 0221     		movs	r1, #2
 634 0016 1971     		strb	r1, [r3, #4]
 553:Src/uds_diag.c **** 	pos_Response.SUB_FUNC = -1;
 635              		.loc 1 553 2 is_stmt 1 view .LVU191
 553:Src/uds_diag.c **** 	pos_Response.SUB_FUNC = -1;
 636              		.loc 1 553 27 is_stmt 0 view .LVU192
 637 0018 0021     		movs	r1, #0
 638 001a 83F80512 		strb	r1, [r3, #517]
 554:Src/uds_diag.c **** 
 639              		.loc 1 554 2 is_stmt 1 view .LVU193
 554:Src/uds_diag.c **** 
 640              		.loc 1 554 24 is_stmt 0 view .LVU194
 641 001e FF21     		movs	r1, #255
 642 0020 5970     		strb	r1, [r3, #1]
 556:Src/uds_diag.c **** 
 643              		.loc 1 556 2 is_stmt 1 view .LVU195
 556:Src/uds_diag.c **** 
 644              		.loc 1 556 22 is_stmt 0 view .LVU196
 645 0022 62F07F02 		orn	r2, r2, #127
 646 0026 9A70     		strb	r2, [r3, #2]
 558:Src/uds_diag.c **** 		SW_version_var = received_data[Data_DID] << 8 | received_data[Data_DID+1];
 647              		.loc 1 558 2 is_stmt 1 view .LVU197
 558:Src/uds_diag.c **** 		SW_version_var = received_data[Data_DID] << 8 | received_data[Data_DID+1];
 648              		.loc 1 558 18 is_stmt 0 view .LVU198
 649 0028 4378     		ldrb	r3, [r0, #1]	@ zero_extendqisi2
 558:Src/uds_diag.c **** 		SW_version_var = received_data[Data_DID] << 8 | received_data[Data_DID+1];
 650              		.loc 1 558 4 view .LVU199
 651 002a F12B     		cmp	r3, #241
 652 002c 08D0     		beq	.L54
 653              	.L46:
 561:Src/uds_diag.c **** 		Active_Session_var = received_data[Data_DID] << 24 | received_data[Data_DID+1] << 16 | received_d
 654              		.loc 1 561 7 is_stmt 1 view .LVU200
 561:Src/uds_diag.c **** 		Active_Session_var = received_data[Data_DID] << 24 | received_data[Data_DID+1] << 16 | received_d
 655              		.loc 1 561 9 is_stmt 0 view .LVU201
 656 002e F12B     		cmp	r3, #241
 657 0030 10D0     		beq	.L55
 658              	.L48:
 564:Src/uds_diag.c **** 		//VIN_number_var = received_data[Data_DID] << 24 | received_data[Data_DID+1] << 16 | received_dat
 659              		.loc 1 564 7 is_stmt 1 view .LVU202
 564:Src/uds_diag.c **** 		//VIN_number_var = received_data[Data_DID] << 24 | received_data[Data_DID+1] << 16 | received_dat
 660              		.loc 1 564 9 is_stmt 0 view .LVU203
 661 0032 ED2B     		cmp	r3, #237
 662 0034 1ED0     		beq	.L56
 663              	.L47:
 583:Src/uds_diag.c **** 	if(SupressedPosRes_Server == 1)
 664              		.loc 1 583 2 is_stmt 1 view .LVU204
 584:Src/uds_diag.c **** 	{
 665              		.loc 1 584 2 view .LVU205
 584:Src/uds_diag.c **** 	{
ARM GAS  C:\Users\wup15j\AppData\Local\Temp\ccx9HpCv.s 			page 25


 666              		.loc 1 584 28 is_stmt 0 view .LVU206
 667 0036 194B     		ldr	r3, .L58+4
 668 0038 1B78     		ldrb	r3, [r3]	@ zero_extendqisi2
 584:Src/uds_diag.c **** 	{
 669              		.loc 1 584 4 view .LVU207
 670 003a 012B     		cmp	r3, #1
 671 003c 28D0     		beq	.L57
 672              	.LVL40:
 673              	.L45:
 606:Src/uds_diag.c **** 
 674              		.loc 1 606 1 view .LVU208
 675 003e 08BD     		pop	{r3, pc}
 676              	.LVL41:
 677              	.L54:
 558:Src/uds_diag.c **** 		SW_version_var = received_data[Data_DID] << 8 | received_data[Data_DID+1];
 678              		.loc 1 558 67 discriminator 1 view .LVU209
 679 0040 8278     		ldrb	r2, [r0, #2]	@ zero_extendqisi2
 558:Src/uds_diag.c **** 		SW_version_var = received_data[Data_DID] << 8 | received_data[Data_DID+1];
 680              		.loc 1 558 51 discriminator 1 view .LVU210
 681 0042 8C2A     		cmp	r2, #140
 682 0044 F3D1     		bne	.L46
 559:Src/uds_diag.c **** 	}
 683              		.loc 1 559 3 is_stmt 1 view .LVU211
 559:Src/uds_diag.c **** 	}
 684              		.loc 1 559 33 is_stmt 0 view .LVU212
 685 0046 8279     		ldrb	r2, [r0, #6]	@ zero_extendqisi2
 559:Src/uds_diag.c **** 	}
 686              		.loc 1 559 64 view .LVU213
 687 0048 C379     		ldrb	r3, [r0, #7]	@ zero_extendqisi2
 559:Src/uds_diag.c **** 	}
 688              		.loc 1 559 49 view .LVU214
 689 004a 43EA0223 		orr	r3, r3, r2, lsl #8
 559:Src/uds_diag.c **** 	}
 690              		.loc 1 559 18 view .LVU215
 691 004e 144A     		ldr	r2, .L58+8
 692 0050 1360     		str	r3, [r2]
 693 0052 F0E7     		b	.L47
 694              	.L55:
 561:Src/uds_diag.c **** 		Active_Session_var = received_data[Data_DID] << 24 | received_data[Data_DID+1] << 16 | received_d
 695              		.loc 1 561 76 discriminator 1 view .LVU216
 696 0054 8278     		ldrb	r2, [r0, #2]	@ zero_extendqisi2
 561:Src/uds_diag.c **** 		Active_Session_var = received_data[Data_DID] << 24 | received_data[Data_DID+1] << 16 | received_d
 697              		.loc 1 561 60 discriminator 1 view .LVU217
 698 0056 862A     		cmp	r2, #134
 699 0058 EBD1     		bne	.L48
 562:Src/uds_diag.c **** 	}
 700              		.loc 1 562 3 is_stmt 1 view .LVU218
 562:Src/uds_diag.c **** 	}
 701              		.loc 1 562 37 is_stmt 0 view .LVU219
 702 005a 8279     		ldrb	r2, [r0, #6]	@ zero_extendqisi2
 562:Src/uds_diag.c **** 	}
 703              		.loc 1 562 69 view .LVU220
 704 005c C379     		ldrb	r3, [r0, #7]	@ zero_extendqisi2
 562:Src/uds_diag.c **** 	}
 705              		.loc 1 562 82 view .LVU221
 706 005e 1B04     		lsls	r3, r3, #16
 562:Src/uds_diag.c **** 	}
ARM GAS  C:\Users\wup15j\AppData\Local\Temp\ccx9HpCv.s 			page 26


 707              		.loc 1 562 54 view .LVU222
 708 0060 43EA0263 		orr	r3, r3, r2, lsl #24
 562:Src/uds_diag.c **** 	}
 709              		.loc 1 562 103 view .LVU223
 710 0064 027A     		ldrb	r2, [r0, #8]	@ zero_extendqisi2
 562:Src/uds_diag.c **** 	}
 711              		.loc 1 562 88 view .LVU224
 712 0066 43EA0223 		orr	r3, r3, r2, lsl #8
 562:Src/uds_diag.c **** 	}
 713              		.loc 1 562 136 view .LVU225
 714 006a 427A     		ldrb	r2, [r0, #9]	@ zero_extendqisi2
 562:Src/uds_diag.c **** 	}
 715              		.loc 1 562 121 view .LVU226
 716 006c 1343     		orrs	r3, r3, r2
 562:Src/uds_diag.c **** 	}
 717              		.loc 1 562 22 view .LVU227
 718 006e 0D4A     		ldr	r2, .L58+12
 719 0070 1360     		str	r3, [r2]
 720 0072 E0E7     		b	.L47
 721              	.L56:
 564:Src/uds_diag.c **** 		//VIN_number_var = received_data[Data_DID] << 24 | received_data[Data_DID+1] << 16 | received_dat
 722              		.loc 1 564 72 discriminator 1 view .LVU228
 723 0074 8378     		ldrb	r3, [r0, #2]	@ zero_extendqisi2
 564:Src/uds_diag.c **** 		//VIN_number_var = received_data[Data_DID] << 24 | received_data[Data_DID+1] << 16 | received_dat
 724              		.loc 1 564 56 discriminator 1 view .LVU229
 725 0076 A02B     		cmp	r3, #160
 726 0078 DDD1     		bne	.L47
 727              	.LBB3:
 567:Src/uds_diag.c **** 		{
 728              		.loc 1 567 16 view .LVU230
 729 007a 0023     		movs	r3, #0
 730 007c 05E0     		b	.L49
 731              	.LVL42:
 732              	.L50:
 569:Src/uds_diag.c **** 			//VIN_number_var |= received_data[(Data_DID + (16-i))] << (i*8);
 733              		.loc 1 569 4 is_stmt 1 discriminator 3 view .LVU231
 569:Src/uds_diag.c **** 			//VIN_number_var |= received_data[(Data_DID + (16-i))] << (i*8);
 734              		.loc 1 569 47 is_stmt 0 discriminator 3 view .LVU232
 735 007e 9A1D     		adds	r2, r3, #6
 569:Src/uds_diag.c **** 			//VIN_number_var |= received_data[(Data_DID + (16-i))] << (i*8);
 736              		.loc 1 569 37 discriminator 3 view .LVU233
 737 0080 815C     		ldrb	r1, [r0, r2]	@ zero_extendqisi2
 569:Src/uds_diag.c **** 			//VIN_number_var |= received_data[(Data_DID + (16-i))] << (i*8);
 738              		.loc 1 569 22 discriminator 3 view .LVU234
 739 0082 094A     		ldr	r2, .L58+16
 740 0084 D154     		strb	r1, [r2, r3]
 567:Src/uds_diag.c **** 		{
 741              		.loc 1 567 28 is_stmt 1 discriminator 3 view .LVU235
 567:Src/uds_diag.c **** 		{
 742              		.loc 1 567 29 is_stmt 0 discriminator 3 view .LVU236
 743 0086 0133     		adds	r3, r3, #1
 744              	.LVL43:
 567:Src/uds_diag.c **** 		{
 745              		.loc 1 567 29 discriminator 3 view .LVU237
 746 0088 DBB2     		uxtb	r3, r3
 747              	.LVL44:
 748              	.L49:
ARM GAS  C:\Users\wup15j\AppData\Local\Temp\ccx9HpCv.s 			page 27


 567:Src/uds_diag.c **** 		{
 749              		.loc 1 567 21 is_stmt 1 discriminator 1 view .LVU238
 567:Src/uds_diag.c **** 		{
 750              		.loc 1 567 3 is_stmt 0 discriminator 1 view .LVU239
 751 008a 102B     		cmp	r3, #16
 752 008c F7D9     		bls	.L50
 753 008e D2E7     		b	.L47
 754              	.LVL45:
 755              	.L57:
 567:Src/uds_diag.c **** 		{
 756              		.loc 1 567 3 discriminator 1 view .LVU240
 757              	.LBE3:
 586:Src/uds_diag.c **** 		return;
 758              		.loc 1 586 3 is_stmt 1 view .LVU241
 759 0090 0148     		ldr	r0, .L58
 760              	.LVL46:
 586:Src/uds_diag.c **** 		return;
 761              		.loc 1 586 3 is_stmt 0 view .LVU242
 762 0092 FFF7FEFF 		bl	UDS_Send_Pos_Res
 763              	.LVL47:
 587:Src/uds_diag.c **** 	}
 764              		.loc 1 587 3 is_stmt 1 view .LVU243
 765 0096 D2E7     		b	.L45
 766              	.L59:
 767              		.align	2
 768              	.L58:
 769 0098 00000000 		.word	.LANCHOR5
 770 009c 00000000 		.word	.LANCHOR9
 771 00a0 00000000 		.word	.LANCHOR6
 772 00a4 00000000 		.word	.LANCHOR7
 773 00a8 00000000 		.word	.LANCHOR8
 774              		.cfi_endproc
 775              	.LFE78:
 777              		.section	.text.UDS_Send_Neg_Res,"ax",%progbits
 778              		.align	1
 779              		.global	UDS_Send_Neg_Res
 780              		.syntax unified
 781              		.thumb
 782              		.thumb_func
 784              	UDS_Send_Neg_Res:
 785              	.LVL48:
 786              	.LFB80:
 641:Src/uds_diag.c **** 
 642:Src/uds_diag.c **** void UDS_Send_Neg_Res(uint8_t SID, uint8_t NRC)
 643:Src/uds_diag.c **** {
 787              		.loc 1 643 1 view -0
 788              		.cfi_startproc
 789              		@ args = 0, pretend = 0, frame = 0
 790              		@ frame_needed = 0, uses_anonymous_args = 0
 791              		.loc 1 643 1 is_stmt 0 view .LVU245
 792 0000 08B5     		push	{r3, lr}
 793              	.LCFI7:
 794              		.cfi_def_cfa_offset 8
 795              		.cfi_offset 3, -8
 796              		.cfi_offset 14, -4
 644:Src/uds_diag.c **** 	msg.Data[Neg_Res_INDEX] = 0x7F;
 797              		.loc 1 644 2 is_stmt 1 view .LVU246
ARM GAS  C:\Users\wup15j\AppData\Local\Temp\ccx9HpCv.s 			page 28


 798              		.loc 1 644 26 is_stmt 0 view .LVU247
 799 0002 064B     		ldr	r3, .L62
 800 0004 7F22     		movs	r2, #127
 801 0006 1A70     		strb	r2, [r3]
 645:Src/uds_diag.c **** 	msg.Data[SID_NR_INDEX] = SID;
 802              		.loc 1 645 2 is_stmt 1 view .LVU248
 803              		.loc 1 645 25 is_stmt 0 view .LVU249
 804 0008 5870     		strb	r0, [r3, #1]
 646:Src/uds_diag.c **** 	msg.Data[NRC_INDEX] = NRC;
 805              		.loc 1 646 2 is_stmt 1 view .LVU250
 806              		.loc 1 646 22 is_stmt 0 view .LVU251
 807 000a 9970     		strb	r1, [r3, #2]
 647:Src/uds_diag.c **** 	msg.Length = 3;
 808              		.loc 1 647 2 is_stmt 1 view .LVU252
 809              		.loc 1 647 13 is_stmt 0 view .LVU253
 810 000c 0322     		movs	r2, #3
 811 000e C3F80022 		str	r2, [r3, #512]
 648:Src/uds_diag.c **** 
 649:Src/uds_diag.c **** 	CanTp_Transmit(8, &msg);
 812              		.loc 1 649 2 is_stmt 1 view .LVU254
 813 0012 1946     		mov	r1, r3
 814              	.LVL49:
 815              		.loc 1 649 2 is_stmt 0 view .LVU255
 816 0014 0820     		movs	r0, #8
 817              	.LVL50:
 818              		.loc 1 649 2 view .LVU256
 819 0016 FFF7FEFF 		bl	CanTp_Transmit
 820              	.LVL51:
 650:Src/uds_diag.c **** }
 821              		.loc 1 650 1 view .LVU257
 822 001a 08BD     		pop	{r3, pc}
 823              	.L63:
 824              		.align	2
 825              	.L62:
 826 001c 00000000 		.word	.LANCHOR4
 827              		.cfi_endproc
 828              	.LFE80:
 830              		.section	.text.UDS_Tester_Presenter_Server,"ax",%progbits
 831              		.align	1
 832              		.global	UDS_Tester_Presenter_Server
 833              		.syntax unified
 834              		.thumb
 835              		.thumb_func
 837              	UDS_Tester_Presenter_Server:
 838              	.LFB81:
 651:Src/uds_diag.c **** 
 652:Src/uds_diag.c **** 
 653:Src/uds_diag.c **** 
 654:Src/uds_diag.c **** 
 655:Src/uds_diag.c **** 
 656:Src/uds_diag.c **** void UDS_Tester_Presenter_Server(void)//Khaled Waleed
 657:Src/uds_diag.c **** {
 839              		.loc 1 657 1 is_stmt 1 view -0
 840              		.cfi_startproc
 841              		@ args = 0, pretend = 0, frame = 0
 842              		@ frame_needed = 0, uses_anonymous_args = 0
 843 0000 08B5     		push	{r3, lr}
ARM GAS  C:\Users\wup15j\AppData\Local\Temp\ccx9HpCv.s 			page 29


 844              	.LCFI8:
 845              		.cfi_def_cfa_offset 8
 846              		.cfi_offset 3, -8
 847              		.cfi_offset 14, -4
 658:Src/uds_diag.c **** 	//globally in server:  there is a timer >= tout { reset timer + return to default (global ssesion 
 659:Src/uds_diag.c **** 	//	reset_timer();
 660:Src/uds_diag.c **** 	pos_Response.SID = Tester_Representer_Service ;
 848              		.loc 1 660 2 view .LVU259
 849              		.loc 1 660 19 is_stmt 0 view .LVU260
 850 0002 084B     		ldr	r3, .L68
 851 0004 3E22     		movs	r2, #62
 852 0006 1A70     		strb	r2, [r3]
 661:Src/uds_diag.c **** 	pos_Response.DID_Length=0;
 853              		.loc 1 661 2 is_stmt 1 view .LVU261
 854              		.loc 1 661 25 is_stmt 0 view .LVU262
 855 0008 0022     		movs	r2, #0
 856 000a 1A71     		strb	r2, [r3, #4]
 662:Src/uds_diag.c **** 	pos_Response.Data_Length = 0;
 857              		.loc 1 662 2 is_stmt 1 view .LVU263
 858              		.loc 1 662 27 is_stmt 0 view .LVU264
 859 000c 83F80522 		strb	r2, [r3, #517]
 663:Src/uds_diag.c **** 	pos_Response.SUB_FUNC = 0x00;
 860              		.loc 1 663 2 is_stmt 1 view .LVU265
 861              		.loc 1 663 24 is_stmt 0 view .LVU266
 862 0010 5A70     		strb	r2, [r3, #1]
 664:Src/uds_diag.c **** 
 665:Src/uds_diag.c **** 	if(SupressedPosRes_Server == 1 )
 863              		.loc 1 665 2 is_stmt 1 view .LVU267
 864              		.loc 1 665 28 is_stmt 0 view .LVU268
 865 0012 054B     		ldr	r3, .L68+4
 866 0014 1B78     		ldrb	r3, [r3]	@ zero_extendqisi2
 867              		.loc 1 665 4 view .LVU269
 868 0016 012B     		cmp	r3, #1
 869 0018 00D0     		beq	.L67
 870              	.L64:
 666:Src/uds_diag.c **** 	{
 667:Src/uds_diag.c **** 		UDS_Send_Pos_Res(&pos_Response);
 668:Src/uds_diag.c **** 	}
 669:Src/uds_diag.c **** 
 670:Src/uds_diag.c **** }
 871              		.loc 1 670 1 view .LVU270
 872 001a 08BD     		pop	{r3, pc}
 873              	.L67:
 667:Src/uds_diag.c **** 	}
 874              		.loc 1 667 3 is_stmt 1 view .LVU271
 875 001c 0148     		ldr	r0, .L68
 876 001e FFF7FEFF 		bl	UDS_Send_Pos_Res
 877              	.LVL52:
 878              		.loc 1 670 1 is_stmt 0 view .LVU272
 879 0022 FAE7     		b	.L64
 880              	.L69:
 881              		.align	2
 882              	.L68:
 883 0024 00000000 		.word	.LANCHOR5
 884 0028 00000000 		.word	.LANCHOR9
 885              		.cfi_endproc
 886              	.LFE81:
ARM GAS  C:\Users\wup15j\AppData\Local\Temp\ccx9HpCv.s 			page 30


 888              		.section	.text.reset_timer,"ax",%progbits
 889              		.align	1
 890              		.global	reset_timer
 891              		.syntax unified
 892              		.thumb
 893              		.thumb_func
 895              	reset_timer:
 896              	.LFB82:
 671:Src/uds_diag.c **** 
 672:Src/uds_diag.c **** void reset_timer(void)
 673:Src/uds_diag.c **** {
 897              		.loc 1 673 1 is_stmt 1 view -0
 898              		.cfi_startproc
 899              		@ args = 0, pretend = 0, frame = 0
 900              		@ frame_needed = 0, uses_anonymous_args = 0
 901 0000 10B5     		push	{r4, lr}
 902              	.LCFI9:
 903              		.cfi_def_cfa_offset 8
 904              		.cfi_offset 4, -8
 905              		.cfi_offset 14, -4
 674:Src/uds_diag.c **** 	HAL_TIM_Base_Stop_IT(&htim2); // Stop Timer6
 906              		.loc 1 674 2 view .LVU274
 907 0002 064C     		ldr	r4, .L72
 908 0004 2046     		mov	r0, r4
 909 0006 FFF7FEFF 		bl	HAL_TIM_Base_Stop_IT
 910              	.LVL53:
 675:Src/uds_diag.c **** 	TIM2->CNT = 0; // Reset Timer6 counter to 0
 911              		.loc 1 675 2 view .LVU275
 912              		.loc 1 675 12 is_stmt 0 view .LVU276
 913 000a 4FF08043 		mov	r3, #1073741824
 914 000e 0022     		movs	r2, #0
 915 0010 5A62     		str	r2, [r3, #36]
 676:Src/uds_diag.c **** 	HAL_TIM_Base_Start_IT(&htim2); // Start Timer6 again
 916              		.loc 1 676 2 is_stmt 1 view .LVU277
 917 0012 2046     		mov	r0, r4
 918 0014 FFF7FEFF 		bl	HAL_TIM_Base_Start_IT
 919              	.LVL54:
 677:Src/uds_diag.c **** }
 920              		.loc 1 677 1 is_stmt 0 view .LVU278
 921 0018 10BD     		pop	{r4, pc}
 922              	.L73:
 923 001a 00BF     		.align	2
 924              	.L72:
 925 001c 00000000 		.word	htim2
 926              		.cfi_endproc
 927              	.LFE82:
 929              		.section	.text.stop_timer,"ax",%progbits
 930              		.align	1
 931              		.global	stop_timer
 932              		.syntax unified
 933              		.thumb
 934              		.thumb_func
 936              	stop_timer:
 937              	.LVL55:
 938              	.LFB83:
 678:Src/uds_diag.c **** 
 679:Src/uds_diag.c **** void stop_timer(TIM_HandleTypeDef* htim){
ARM GAS  C:\Users\wup15j\AppData\Local\Temp\ccx9HpCv.s 			page 31


 939              		.loc 1 679 41 is_stmt 1 view -0
 940              		.cfi_startproc
 941              		@ args = 0, pretend = 0, frame = 0
 942              		@ frame_needed = 0, uses_anonymous_args = 0
 943              		.loc 1 679 41 is_stmt 0 view .LVU280
 944 0000 08B5     		push	{r3, lr}
 945              	.LCFI10:
 946              		.cfi_def_cfa_offset 8
 947              		.cfi_offset 3, -8
 948              		.cfi_offset 14, -4
 680:Src/uds_diag.c **** 	HAL_TIM_Base_Stop_IT(htim); // Stop Timer
 949              		.loc 1 680 2 is_stmt 1 view .LVU281
 950 0002 FFF7FEFF 		bl	HAL_TIM_Base_Stop_IT
 951              	.LVL56:
 681:Src/uds_diag.c **** }
 952              		.loc 1 681 1 is_stmt 0 view .LVU282
 953 0006 08BD     		pop	{r3, pc}
 954              		.cfi_endproc
 955              	.LFE83:
 957              		.section	.text.start_timer,"ax",%progbits
 958              		.align	1
 959              		.global	start_timer
 960              		.syntax unified
 961              		.thumb
 962              		.thumb_func
 964              	start_timer:
 965              	.LFB84:
 682:Src/uds_diag.c **** 
 683:Src/uds_diag.c **** void start_timer(void)
 684:Src/uds_diag.c **** {
 966              		.loc 1 684 1 is_stmt 1 view -0
 967              		.cfi_startproc
 968              		@ args = 0, pretend = 0, frame = 0
 969              		@ frame_needed = 0, uses_anonymous_args = 0
 970 0000 08B5     		push	{r3, lr}
 971              	.LCFI11:
 972              		.cfi_def_cfa_offset 8
 973              		.cfi_offset 3, -8
 974              		.cfi_offset 14, -4
 685:Src/uds_diag.c **** 	//	HAL_TIM_Base_Start(&htim6);
 686:Src/uds_diag.c **** 	HAL_TIM_Base_Start_IT(&htim2);
 975              		.loc 1 686 2 view .LVU284
 976 0002 0248     		ldr	r0, .L78
 977 0004 FFF7FEFF 		bl	HAL_TIM_Base_Start_IT
 978              	.LVL57:
 687:Src/uds_diag.c **** }
 979              		.loc 1 687 1 is_stmt 0 view .LVU285
 980 0008 08BD     		pop	{r3, pc}
 981              	.L79:
 982 000a 00BF     		.align	2
 983              	.L78:
 984 000c 00000000 		.word	htim2
 985              		.cfi_endproc
 986              	.LFE84:
 988              		.section	.text.UDS_Control_Session_Server,"ax",%progbits
 989              		.align	1
 990              		.global	UDS_Control_Session_Server
ARM GAS  C:\Users\wup15j\AppData\Local\Temp\ccx9HpCv.s 			page 32


 991              		.syntax unified
 992              		.thumb
 993              		.thumb_func
 995              	UDS_Control_Session_Server:
 996              	.LVL58:
 997              	.LFB85:
 688:Src/uds_diag.c **** 
 689:Src/uds_diag.c **** void UDS_Control_Session_Server(uint8_t *Received)
 690:Src/uds_diag.c **** {
 998              		.loc 1 690 1 is_stmt 1 view -0
 999              		.cfi_startproc
 1000              		@ args = 0, pretend = 0, frame = 0
 1001              		@ frame_needed = 0, uses_anonymous_args = 0
 1002              		.loc 1 690 1 is_stmt 0 view .LVU287
 1003 0000 08B5     		push	{r3, lr}
 1004              	.LCFI12:
 1005              		.cfi_def_cfa_offset 8
 1006              		.cfi_offset 3, -8
 1007              		.cfi_offset 14, -4
 691:Src/uds_diag.c **** 
 692:Src/uds_diag.c **** 
 693:Src/uds_diag.c **** 
 694:Src/uds_diag.c **** 	if(Received[Sub_F] == DefaultSession || Received[Sub_F] == ExtendedSession)
 1008              		.loc 1 694 2 is_stmt 1 view .LVU288
 1009              		.loc 1 694 13 is_stmt 0 view .LVU289
 1010 0002 0379     		ldrb	r3, [r0, #4]	@ zero_extendqisi2
 1011              		.loc 1 694 4 view .LVU290
 1012 0004 012B     		cmp	r3, #1
 1013 0006 01D0     		beq	.L81
 1014              		.loc 1 694 39 discriminator 1 view .LVU291
 1015 0008 032B     		cmp	r3, #3
 1016 000a 1AD1     		bne	.L82
 1017              	.L81:
 695:Src/uds_diag.c **** 	{
 696:Src/uds_diag.c **** 		global_session = Received[Sub_F];
 1018              		.loc 1 696 3 is_stmt 1 view .LVU292
 1019              		.loc 1 696 18 is_stmt 0 view .LVU293
 1020 000c 0F4A     		ldr	r2, .L88
 1021 000e 1370     		strb	r3, [r2]
 697:Src/uds_diag.c **** 		Control.SID = Received[SID];
 1022              		.loc 1 697 3 is_stmt 1 view .LVU294
 1023              		.loc 1 697 25 is_stmt 0 view .LVU295
 1024 0010 0178     		ldrb	r1, [r0]	@ zero_extendqisi2
 1025              		.loc 1 697 15 view .LVU296
 1026 0012 0F4A     		ldr	r2, .L88+4
 1027 0014 1170     		strb	r1, [r2]
 698:Src/uds_diag.c **** 		Control.SUB_FUNC = Received[Sub_F];
 1028              		.loc 1 698 3 is_stmt 1 view .LVU297
 1029              		.loc 1 698 20 is_stmt 0 view .LVU298
 1030 0016 5370     		strb	r3, [r2, #1]
 699:Src/uds_diag.c **** 		Control.DID_Length = 0;
 1031              		.loc 1 699 3 is_stmt 1 view .LVU299
 1032              		.loc 1 699 22 is_stmt 0 view .LVU300
 1033 0018 0023     		movs	r3, #0
 1034 001a 1371     		strb	r3, [r2, #4]
 700:Src/uds_diag.c **** 		Control.Data_Length = 0;
 1035              		.loc 1 700 3 is_stmt 1 view .LVU301
ARM GAS  C:\Users\wup15j\AppData\Local\Temp\ccx9HpCv.s 			page 33


 1036              		.loc 1 700 23 is_stmt 0 view .LVU302
 1037 001c 82F80532 		strb	r3, [r2, #517]
 701:Src/uds_diag.c **** 
 702:Src/uds_diag.c **** 
 703:Src/uds_diag.c **** 		if(Received[Sub_F] == ExtendedSession){
 1038              		.loc 1 703 3 is_stmt 1 view .LVU303
 1039              		.loc 1 703 14 is_stmt 0 view .LVU304
 1040 0020 0379     		ldrb	r3, [r0, #4]	@ zero_extendqisi2
 1041              		.loc 1 703 5 view .LVU305
 1042 0022 032B     		cmp	r3, #3
 1043 0024 04D0     		beq	.L86
 1044              	.LVL59:
 1045              	.L83:
 704:Src/uds_diag.c **** 			reset_timer();
 705:Src/uds_diag.c **** 			start_timer();
 706:Src/uds_diag.c **** 		}
 707:Src/uds_diag.c **** 		if(SupressedPosRes_Server == 1)
 1046              		.loc 1 707 3 is_stmt 1 view .LVU306
 1047              		.loc 1 707 29 is_stmt 0 view .LVU307
 1048 0026 0B4B     		ldr	r3, .L88+8
 1049 0028 1B78     		ldrb	r3, [r3]	@ zero_extendqisi2
 1050              		.loc 1 707 5 view .LVU308
 1051 002a 012B     		cmp	r3, #1
 1052 002c 05D0     		beq	.L87
 1053              	.L80:
 708:Src/uds_diag.c **** 		{
 709:Src/uds_diag.c **** 			UDS_Send_Pos_Res(&Control);
 710:Src/uds_diag.c **** 		}
 711:Src/uds_diag.c **** 
 712:Src/uds_diag.c **** 	}
 713:Src/uds_diag.c **** 	else
 714:Src/uds_diag.c **** 	{
 715:Src/uds_diag.c **** 		UDS_Send_Neg_Res(Received[SID], subFunctionNotSupported);
 716:Src/uds_diag.c **** 	}
 717:Src/uds_diag.c **** }
 1054              		.loc 1 717 1 view .LVU309
 1055 002e 08BD     		pop	{r3, pc}
 1056              	.LVL60:
 1057              	.L86:
 704:Src/uds_diag.c **** 			reset_timer();
 1058              		.loc 1 704 4 is_stmt 1 view .LVU310
 1059 0030 FFF7FEFF 		bl	reset_timer
 1060              	.LVL61:
 705:Src/uds_diag.c **** 		}
 1061              		.loc 1 705 4 view .LVU311
 1062 0034 FFF7FEFF 		bl	start_timer
 1063              	.LVL62:
 1064 0038 F5E7     		b	.L83
 1065              	.L87:
 709:Src/uds_diag.c **** 		}
 1066              		.loc 1 709 4 view .LVU312
 1067 003a 0548     		ldr	r0, .L88+4
 1068 003c FFF7FEFF 		bl	UDS_Send_Pos_Res
 1069              	.LVL63:
 1070 0040 F5E7     		b	.L80
 1071              	.LVL64:
 1072              	.L82:
ARM GAS  C:\Users\wup15j\AppData\Local\Temp\ccx9HpCv.s 			page 34


 715:Src/uds_diag.c **** 	}
 1073              		.loc 1 715 3 view .LVU313
 1074 0042 1221     		movs	r1, #18
 1075 0044 0078     		ldrb	r0, [r0]	@ zero_extendqisi2
 1076              	.LVL65:
 715:Src/uds_diag.c **** 	}
 1077              		.loc 1 715 3 is_stmt 0 view .LVU314
 1078 0046 FFF7FEFF 		bl	UDS_Send_Neg_Res
 1079              	.LVL66:
 1080              		.loc 1 717 1 view .LVU315
 1081 004a F0E7     		b	.L80
 1082              	.L89:
 1083              		.align	2
 1084              	.L88:
 1085 004c 00000000 		.word	.LANCHOR10
 1086 0050 00000000 		.word	.LANCHOR11
 1087 0054 00000000 		.word	.LANCHOR9
 1088              		.cfi_endproc
 1089              	.LFE85:
 1091              		.section	.text.Sec_u32GetSeed,"ax",%progbits
 1092              		.align	1
 1093              		.global	Sec_u32GetSeed
 1094              		.syntax unified
 1095              		.thumb
 1096              		.thumb_func
 1098              	Sec_u32GetSeed:
 1099              	.LFB86:
 718:Src/uds_diag.c **** 
 719:Src/uds_diag.c **** void Sec_u32GetSeed (void)
 720:Src/uds_diag.c **** {
 1100              		.loc 1 720 1 is_stmt 1 view -0
 1101              		.cfi_startproc
 1102              		@ args = 0, pretend = 0, frame = 0
 1103              		@ frame_needed = 0, uses_anonymous_args = 0
 1104 0000 08B5     		push	{r3, lr}
 1105              	.LCFI13:
 1106              		.cfi_def_cfa_offset 8
 1107              		.cfi_offset 3, -8
 1108              		.cfi_offset 14, -4
 721:Src/uds_diag.c **** 	Sec_u32SeedValue = HAL_GetTick();
 1109              		.loc 1 721 2 view .LVU317
 1110              		.loc 1 721 21 is_stmt 0 view .LVU318
 1111 0002 FFF7FEFF 		bl	HAL_GetTick
 1112              	.LVL67:
 1113              		.loc 1 721 19 view .LVU319
 1114 0006 014B     		ldr	r3, .L92
 1115 0008 1860     		str	r0, [r3]
 722:Src/uds_diag.c **** 	//	printf("%d",Sec_u32SeedValue) ;
 723:Src/uds_diag.c **** }
 1116              		.loc 1 723 1 view .LVU320
 1117 000a 08BD     		pop	{r3, pc}
 1118              	.L93:
 1119              		.align	2
 1120              	.L92:
 1121 000c 00000000 		.word	.LANCHOR12
 1122              		.cfi_endproc
 1123              	.LFE86:
ARM GAS  C:\Users\wup15j\AppData\Local\Temp\ccx9HpCv.s 			page 35


 1125              		.section	.text.Sec_u32GetAlgorithm,"ax",%progbits
 1126              		.align	1
 1127              		.global	Sec_u32GetAlgorithm
 1128              		.syntax unified
 1129              		.thumb
 1130              		.thumb_func
 1132              	Sec_u32GetAlgorithm:
 1133              	.LFB87:
 724:Src/uds_diag.c **** 
 725:Src/uds_diag.c **** uint32_t Sec_u32GetAlgorithm(void)
 726:Src/uds_diag.c **** {
 1134              		.loc 1 726 1 is_stmt 1 view -0
 1135              		.cfi_startproc
 1136              		@ args = 0, pretend = 0, frame = 0
 1137              		@ frame_needed = 0, uses_anonymous_args = 0
 1138              		@ link register save eliminated.
 727:Src/uds_diag.c **** 	return 5 ;
 1139              		.loc 1 727 2 view .LVU322
 728:Src/uds_diag.c **** }
 1140              		.loc 1 728 1 is_stmt 0 view .LVU323
 1141 0000 0520     		movs	r0, #5
 1142 0002 7047     		bx	lr
 1143              		.cfi_endproc
 1144              	.LFE87:
 1146              		.section	.text.Sec_u32GetKey,"ax",%progbits
 1147              		.align	1
 1148              		.global	Sec_u32GetKey
 1149              		.syntax unified
 1150              		.thumb
 1151              		.thumb_func
 1153              	Sec_u32GetKey:
 1154              	.LFB88:
 729:Src/uds_diag.c **** 
 730:Src/uds_diag.c **** uint32_t Sec_u32GetKey (void)
 731:Src/uds_diag.c **** {
 1155              		.loc 1 731 1 is_stmt 1 view -0
 1156              		.cfi_startproc
 1157              		@ args = 0, pretend = 0, frame = 0
 1158              		@ frame_needed = 0, uses_anonymous_args = 0
 1159 0000 08B5     		push	{r3, lr}
 1160              	.LCFI14:
 1161              		.cfi_def_cfa_offset 8
 1162              		.cfi_offset 3, -8
 1163              		.cfi_offset 14, -4
 732:Src/uds_diag.c **** 	uint32_t Local_u32KeyValue = 0 ;
 1164              		.loc 1 732 2 view .LVU325
 1165              	.LVL68:
 733:Src/uds_diag.c **** 	Local_u32KeyValue = Sec_u32SeedValue + Sec_u32GetAlgorithm() ;
 1166              		.loc 1 733 2 view .LVU326
 1167              		.loc 1 733 41 is_stmt 0 view .LVU327
 1168 0002 FFF7FEFF 		bl	Sec_u32GetAlgorithm
 1169              	.LVL69:
 1170              		.loc 1 733 39 view .LVU328
 1171 0006 024B     		ldr	r3, .L97
 1172 0008 1B68     		ldr	r3, [r3]
 1173              	.LVL70:
 734:Src/uds_diag.c **** 	//	Local_u32KeyValue = 0x01020304 + Sec_u32GetAlgorithm() ;
ARM GAS  C:\Users\wup15j\AppData\Local\Temp\ccx9HpCv.s 			page 36


 735:Src/uds_diag.c **** 	return Local_u32KeyValue;
 1174              		.loc 1 735 2 is_stmt 1 view .LVU329
 736:Src/uds_diag.c **** }
 1175              		.loc 1 736 1 is_stmt 0 view .LVU330
 1176 000a 1844     		add	r0, r0, r3
 1177              	.LVL71:
 1178              		.loc 1 736 1 view .LVU331
 1179 000c 08BD     		pop	{r3, pc}
 1180              	.L98:
 1181 000e 00BF     		.align	2
 1182              	.L97:
 1183 0010 00000000 		.word	.LANCHOR12
 1184              		.cfi_endproc
 1185              	.LFE88:
 1187              		.section	.text.Sec_uint32SecurityAccess,"ax",%progbits
 1188              		.align	1
 1189              		.global	Sec_uint32SecurityAccess
 1190              		.syntax unified
 1191              		.thumb
 1192              		.thumb_func
 1194              	Sec_uint32SecurityAccess:
 1195              	.LVL72:
 1196              	.LFB89:
 737:Src/uds_diag.c **** 
 738:Src/uds_diag.c **** 
 739:Src/uds_diag.c **** uint8_t Sec_uint32SecurityAccess (PduInfoType * Ptr)
 740:Src/uds_diag.c **** {
 1197              		.loc 1 740 1 is_stmt 1 view -0
 1198              		.cfi_startproc
 1199              		@ args = 0, pretend = 0, frame = 0
 1200              		@ frame_needed = 0, uses_anonymous_args = 0
 1201              		.loc 1 740 1 is_stmt 0 view .LVU333
 1202 0000 38B5     		push	{r3, r4, r5, lr}
 1203              	.LCFI15:
 1204              		.cfi_def_cfa_offset 16
 1205              		.cfi_offset 3, -16
 1206              		.cfi_offset 4, -12
 1207              		.cfi_offset 5, -8
 1208              		.cfi_offset 14, -4
 741:Src/uds_diag.c **** 	uint8_t Local_u8ErrorStates = E_OK ;
 1209              		.loc 1 741 2 is_stmt 1 view .LVU334
 1210              	.LVL73:
 742:Src/uds_diag.c **** 	Ptr->Data[Sub_F] &= 0x7F;
 1211              		.loc 1 742 2 view .LVU335
 1212              		.loc 1 742 19 is_stmt 0 view .LVU336
 1213 0002 0379     		ldrb	r3, [r0, #4]	@ zero_extendqisi2
 1214 0004 03F07F03 		and	r3, r3, #127
 1215 0008 0371     		strb	r3, [r0, #4]
 743:Src/uds_diag.c **** 
 744:Src/uds_diag.c **** 	if (Ptr->Data[Sub_F] == Seed)
 1216              		.loc 1 744 2 is_stmt 1 view .LVU337
 1217              		.loc 1 744 5 is_stmt 0 view .LVU338
 1218 000a 012B     		cmp	r3, #1
 1219 000c 0CD0     		beq	.L108
 1220 000e 0446     		mov	r4, r0
 745:Src/uds_diag.c **** 	{
 746:Src/uds_diag.c **** 		/*Generate Seed */
ARM GAS  C:\Users\wup15j\AppData\Local\Temp\ccx9HpCv.s 			page 37


 747:Src/uds_diag.c **** 		Sec_u32GetSeed();
 748:Src/uds_diag.c **** 
 749:Src/uds_diag.c **** 		/*Send Frame with Positive Response */
 750:Src/uds_diag.c **** 		//		Frame_Info Response ;
 751:Src/uds_diag.c **** 		pos_Response.SID 		= Security_Service ;
 752:Src/uds_diag.c **** 		pos_Response.SUB_FUNC	= Seed ;
 753:Src/uds_diag.c **** 		pos_Response.DID_Length=0;
 754:Src/uds_diag.c **** 		pos_Response.Data_Length=4;
 755:Src/uds_diag.c **** 		//		for(int i = 1; i < pos_Response.Data_Length + 1; i++){
 756:Src/uds_diag.c **** 		//			pos_Response.Data[i-1] = i;
 757:Src/uds_diag.c **** 		//		}
 758:Src/uds_diag.c **** 		for(int i =0 ; i< 4; i++)
 759:Src/uds_diag.c **** 		{
 760:Src/uds_diag.c **** 			pos_Response.Data[i]=(uint8_t) (Sec_u32SeedValue>>(24-(i*8))) ;
 761:Src/uds_diag.c **** 		}
 762:Src/uds_diag.c **** 
 763:Src/uds_diag.c **** 
 764:Src/uds_diag.c **** 
 765:Src/uds_diag.c **** 	}
 766:Src/uds_diag.c **** 	else if (Ptr->Data[Sub_F] == Key)
 1221              		.loc 1 766 7 is_stmt 1 view .LVU339
 1222              		.loc 1 766 10 is_stmt 0 view .LVU340
 1223 0010 022B     		cmp	r3, #2
 1224 0012 24D0     		beq	.L109
 767:Src/uds_diag.c **** 	{
 768:Src/uds_diag.c **** 		uint32_t user_key= Ptr->Data[Data_Sub_Fun]<<24 | Ptr->Data[Data_Sub_Fun+1]<<16 | Ptr->Data[Data_S
 769:Src/uds_diag.c **** 		/*Check if Key sent is correct or Not */
 770:Src/uds_diag.c **** 		if (user_key == Sec_u32GetKey())
 771:Src/uds_diag.c **** 		{
 772:Src/uds_diag.c **** 			/*Change the state of security */
 773:Src/uds_diag.c **** 			Sec_State = Secure ;
 774:Src/uds_diag.c **** 			global_sec_flag = Secure;
 775:Src/uds_diag.c **** 			/*Send Positive Response */
 776:Src/uds_diag.c **** 			pos_Response.SID= Ptr->Data[SID];
 777:Src/uds_diag.c **** 			pos_Response.SUB_FUNC = Key;
 778:Src/uds_diag.c **** 			pos_Response.DID_Length = 0;
 779:Src/uds_diag.c **** 			pos_Response.Data_Length = 0;
 780:Src/uds_diag.c **** 
 781:Src/uds_diag.c **** 		}
 782:Src/uds_diag.c **** 		else
 783:Src/uds_diag.c **** 		{
 784:Src/uds_diag.c **** 			Sec_State = Un_Secure ;
 785:Src/uds_diag.c **** 			global_sec_flag = Un_Secure;
 786:Src/uds_diag.c **** 			Local_u8ErrorStates = E_NOK ;
 787:Src/uds_diag.c **** 			UDS_Send_Neg_Res(Ptr->Data[SID] , invalidKey) ;
 788:Src/uds_diag.c **** 			return Local_u8ErrorStates;
 789:Src/uds_diag.c **** 		}
 790:Src/uds_diag.c **** 	}
 791:Src/uds_diag.c **** 	else
 792:Src/uds_diag.c **** 	{
 793:Src/uds_diag.c **** 		Local_u8ErrorStates = E_NOK ;
 1225              		.loc 1 793 3 is_stmt 1 view .LVU341
 1226              	.LVL74:
 794:Src/uds_diag.c **** 		UDS_Send_Neg_Res(Ptr->Data[SID] , subFunctionNotSupported) ;
 1227              		.loc 1 794 3 view .LVU342
 1228 0014 1221     		movs	r1, #18
 1229 0016 0078     		ldrb	r0, [r0]	@ zero_extendqisi2
ARM GAS  C:\Users\wup15j\AppData\Local\Temp\ccx9HpCv.s 			page 38


 1230              	.LVL75:
 1231              		.loc 1 794 3 is_stmt 0 view .LVU343
 1232 0018 FFF7FEFF 		bl	UDS_Send_Neg_Res
 1233              	.LVL76:
 793:Src/uds_diag.c **** 		UDS_Send_Neg_Res(Ptr->Data[SID] , subFunctionNotSupported) ;
 1234              		.loc 1 793 23 view .LVU344
 1235 001c 0124     		movs	r4, #1
 1236              	.LVL77:
 1237              	.L103:
 795:Src/uds_diag.c **** 	}
 796:Src/uds_diag.c **** 
 797:Src/uds_diag.c **** 
 798:Src/uds_diag.c **** 	UDS_Send_Pos_Res(&pos_Response) ;
 1238              		.loc 1 798 2 is_stmt 1 view .LVU345
 1239 001e 2448     		ldr	r0, .L110
 1240 0020 FFF7FEFF 		bl	UDS_Send_Pos_Res
 1241              	.LVL78:
 799:Src/uds_diag.c **** 
 800:Src/uds_diag.c **** 	return Local_u8ErrorStates ;
 1242              		.loc 1 800 2 view .LVU346
 1243              	.L106:
 801:Src/uds_diag.c **** }
 1244              		.loc 1 801 1 is_stmt 0 view .LVU347
 1245 0024 2046     		mov	r0, r4
 1246 0026 38BD     		pop	{r3, r4, r5, pc}
 1247              	.LVL79:
 1248              	.L108:
 747:Src/uds_diag.c **** 
 1249              		.loc 1 747 3 is_stmt 1 view .LVU348
 1250 0028 FFF7FEFF 		bl	Sec_u32GetSeed
 1251              	.LVL80:
 751:Src/uds_diag.c **** 		pos_Response.SUB_FUNC	= Seed ;
 1252              		.loc 1 751 3 view .LVU349
 751:Src/uds_diag.c **** 		pos_Response.SUB_FUNC	= Seed ;
 1253              		.loc 1 751 22 is_stmt 0 view .LVU350
 1254 002c 204A     		ldr	r2, .L110
 1255 002e 2723     		movs	r3, #39
 1256 0030 1370     		strb	r3, [r2]
 752:Src/uds_diag.c **** 		pos_Response.DID_Length=0;
 1257              		.loc 1 752 3 is_stmt 1 view .LVU351
 752:Src/uds_diag.c **** 		pos_Response.DID_Length=0;
 1258              		.loc 1 752 25 is_stmt 0 view .LVU352
 1259 0032 0123     		movs	r3, #1
 1260 0034 5370     		strb	r3, [r2, #1]
 753:Src/uds_diag.c **** 		pos_Response.Data_Length=4;
 1261              		.loc 1 753 3 is_stmt 1 view .LVU353
 753:Src/uds_diag.c **** 		pos_Response.Data_Length=4;
 1262              		.loc 1 753 26 is_stmt 0 view .LVU354
 1263 0036 0023     		movs	r3, #0
 1264 0038 1371     		strb	r3, [r2, #4]
 754:Src/uds_diag.c **** 		//		for(int i = 1; i < pos_Response.Data_Length + 1; i++){
 1265              		.loc 1 754 3 is_stmt 1 view .LVU355
 754:Src/uds_diag.c **** 		//		for(int i = 1; i < pos_Response.Data_Length + 1; i++){
 1266              		.loc 1 754 27 is_stmt 0 view .LVU356
 1267 003a 0421     		movs	r1, #4
 1268 003c 82F80512 		strb	r1, [r2, #517]
 758:Src/uds_diag.c **** 		{
ARM GAS  C:\Users\wup15j\AppData\Local\Temp\ccx9HpCv.s 			page 39


 1269              		.loc 1 758 3 is_stmt 1 view .LVU357
 1270              	.LBB4:
 758:Src/uds_diag.c **** 		{
 1271              		.loc 1 758 7 view .LVU358
 1272              	.LVL81:
 758:Src/uds_diag.c **** 		{
 1273              		.loc 1 758 3 is_stmt 0 view .LVU359
 1274 0040 09E0     		b	.L101
 1275              	.LVL82:
 1276              	.L102:
 760:Src/uds_diag.c **** 		}
 1277              		.loc 1 760 4 is_stmt 1 discriminator 3 view .LVU360
 760:Src/uds_diag.c **** 		}
 1278              		.loc 1 760 52 is_stmt 0 discriminator 3 view .LVU361
 1279 0042 1C4A     		ldr	r2, .L110+4
 1280 0044 1168     		ldr	r1, [r2]
 760:Src/uds_diag.c **** 		}
 1281              		.loc 1 760 57 discriminator 3 view .LVU362
 1282 0046 C3F10302 		rsb	r2, r3, #3
 1283 004a D200     		lsls	r2, r2, #3
 760:Src/uds_diag.c **** 		}
 1284              		.loc 1 760 52 discriminator 3 view .LVU363
 1285 004c D140     		lsrs	r1, r1, r2
 760:Src/uds_diag.c **** 		}
 1286              		.loc 1 760 24 discriminator 3 view .LVU364
 1287 004e 184A     		ldr	r2, .L110
 1288 0050 1A44     		add	r2, r2, r3
 1289 0052 5171     		strb	r1, [r2, #5]
 758:Src/uds_diag.c **** 		{
 1290              		.loc 1 758 24 is_stmt 1 discriminator 3 view .LVU365
 758:Src/uds_diag.c **** 		{
 1291              		.loc 1 758 25 is_stmt 0 discriminator 3 view .LVU366
 1292 0054 0133     		adds	r3, r3, #1
 1293              	.LVL83:
 1294              	.L101:
 758:Src/uds_diag.c **** 		{
 1295              		.loc 1 758 18 is_stmt 1 discriminator 1 view .LVU367
 758:Src/uds_diag.c **** 		{
 1296              		.loc 1 758 3 is_stmt 0 discriminator 1 view .LVU368
 1297 0056 032B     		cmp	r3, #3
 1298 0058 F3DD     		ble	.L102
 1299              	.LBE4:
 741:Src/uds_diag.c **** 	Ptr->Data[Sub_F] &= 0x7F;
 1300              		.loc 1 741 10 view .LVU369
 1301 005a 0024     		movs	r4, #0
 1302 005c DFE7     		b	.L103
 1303              	.LVL84:
 1304              	.L109:
 1305              	.LBB5:
 768:Src/uds_diag.c **** 		/*Check if Key sent is correct or Not */
 1306              		.loc 1 768 3 is_stmt 1 view .LVU370
 768:Src/uds_diag.c **** 		/*Check if Key sent is correct or Not */
 1307              		.loc 1 768 31 is_stmt 0 view .LVU371
 1308 005e 4379     		ldrb	r3, [r0, #5]	@ zero_extendqisi2
 768:Src/uds_diag.c **** 		/*Check if Key sent is correct or Not */
 1309              		.loc 1 768 61 view .LVU372
 1310 0060 8579     		ldrb	r5, [r0, #6]	@ zero_extendqisi2
ARM GAS  C:\Users\wup15j\AppData\Local\Temp\ccx9HpCv.s 			page 40


 768:Src/uds_diag.c **** 		/*Check if Key sent is correct or Not */
 1311              		.loc 1 768 77 view .LVU373
 1312 0062 2D04     		lsls	r5, r5, #16
 768:Src/uds_diag.c **** 		/*Check if Key sent is correct or Not */
 1313              		.loc 1 768 50 view .LVU374
 1314 0064 45EA0365 		orr	r5, r5, r3, lsl #24
 768:Src/uds_diag.c **** 		/*Check if Key sent is correct or Not */
 1315              		.loc 1 768 93 view .LVU375
 1316 0068 C379     		ldrb	r3, [r0, #7]	@ zero_extendqisi2
 768:Src/uds_diag.c **** 		/*Check if Key sent is correct or Not */
 1317              		.loc 1 768 82 view .LVU376
 1318 006a 45EA0325 		orr	r5, r5, r3, lsl #8
 768:Src/uds_diag.c **** 		/*Check if Key sent is correct or Not */
 1319              		.loc 1 768 123 view .LVU377
 1320 006e 037A     		ldrb	r3, [r0, #8]	@ zero_extendqisi2
 768:Src/uds_diag.c **** 		/*Check if Key sent is correct or Not */
 1321              		.loc 1 768 113 view .LVU378
 1322 0070 1D43     		orrs	r5, r5, r3
 1323              	.LVL85:
 770:Src/uds_diag.c **** 		{
 1324              		.loc 1 770 3 is_stmt 1 view .LVU379
 770:Src/uds_diag.c **** 		{
 1325              		.loc 1 770 19 is_stmt 0 view .LVU380
 1326 0072 FFF7FEFF 		bl	Sec_u32GetKey
 1327              	.LVL86:
 770:Src/uds_diag.c **** 		{
 1328              		.loc 1 770 6 view .LVU381
 1329 0076 A842     		cmp	r0, r5
 1330 0078 0ED1     		bne	.L105
 773:Src/uds_diag.c **** 			global_sec_flag = Secure;
 1331              		.loc 1 773 4 is_stmt 1 view .LVU382
 773:Src/uds_diag.c **** 			global_sec_flag = Secure;
 1332              		.loc 1 773 14 is_stmt 0 view .LVU383
 1333 007a 0123     		movs	r3, #1
 1334 007c 0E4A     		ldr	r2, .L110+8
 1335 007e 1370     		strb	r3, [r2]
 774:Src/uds_diag.c **** 			/*Send Positive Response */
 1336              		.loc 1 774 4 is_stmt 1 view .LVU384
 774:Src/uds_diag.c **** 			/*Send Positive Response */
 1337              		.loc 1 774 20 is_stmt 0 view .LVU385
 1338 0080 0E4A     		ldr	r2, .L110+12
 1339 0082 1370     		strb	r3, [r2]
 776:Src/uds_diag.c **** 			pos_Response.SUB_FUNC = Key;
 1340              		.loc 1 776 4 is_stmt 1 view .LVU386
 776:Src/uds_diag.c **** 			pos_Response.SUB_FUNC = Key;
 1341              		.loc 1 776 31 is_stmt 0 view .LVU387
 1342 0084 2278     		ldrb	r2, [r4]	@ zero_extendqisi2
 776:Src/uds_diag.c **** 			pos_Response.SUB_FUNC = Key;
 1343              		.loc 1 776 20 view .LVU388
 1344 0086 0A4B     		ldr	r3, .L110
 1345 0088 1A70     		strb	r2, [r3]
 777:Src/uds_diag.c **** 			pos_Response.DID_Length = 0;
 1346              		.loc 1 777 4 is_stmt 1 view .LVU389
 777:Src/uds_diag.c **** 			pos_Response.DID_Length = 0;
 1347              		.loc 1 777 26 is_stmt 0 view .LVU390
 1348 008a 0222     		movs	r2, #2
 1349 008c 5A70     		strb	r2, [r3, #1]
ARM GAS  C:\Users\wup15j\AppData\Local\Temp\ccx9HpCv.s 			page 41


 778:Src/uds_diag.c **** 			pos_Response.Data_Length = 0;
 1350              		.loc 1 778 4 is_stmt 1 view .LVU391
 778:Src/uds_diag.c **** 			pos_Response.Data_Length = 0;
 1351              		.loc 1 778 28 is_stmt 0 view .LVU392
 1352 008e 0024     		movs	r4, #0
 1353              	.LVL87:
 778:Src/uds_diag.c **** 			pos_Response.Data_Length = 0;
 1354              		.loc 1 778 28 view .LVU393
 1355 0090 1C71     		strb	r4, [r3, #4]
 779:Src/uds_diag.c **** 
 1356              		.loc 1 779 4 is_stmt 1 view .LVU394
 779:Src/uds_diag.c **** 
 1357              		.loc 1 779 29 is_stmt 0 view .LVU395
 1358 0092 83F80542 		strb	r4, [r3, #517]
 1359              	.LBE5:
 1360 0096 C2E7     		b	.L103
 1361              	.LVL88:
 1362              	.L105:
 1363              	.LBB6:
 784:Src/uds_diag.c **** 			global_sec_flag = Un_Secure;
 1364              		.loc 1 784 4 is_stmt 1 view .LVU396
 784:Src/uds_diag.c **** 			global_sec_flag = Un_Secure;
 1365              		.loc 1 784 14 is_stmt 0 view .LVU397
 1366 0098 0023     		movs	r3, #0
 1367 009a 074A     		ldr	r2, .L110+8
 1368 009c 1370     		strb	r3, [r2]
 785:Src/uds_diag.c **** 			Local_u8ErrorStates = E_NOK ;
 1369              		.loc 1 785 4 is_stmt 1 view .LVU398
 785:Src/uds_diag.c **** 			Local_u8ErrorStates = E_NOK ;
 1370              		.loc 1 785 20 is_stmt 0 view .LVU399
 1371 009e 074A     		ldr	r2, .L110+12
 1372 00a0 1370     		strb	r3, [r2]
 786:Src/uds_diag.c **** 			UDS_Send_Neg_Res(Ptr->Data[SID] , invalidKey) ;
 1373              		.loc 1 786 4 is_stmt 1 view .LVU400
 1374              	.LVL89:
 787:Src/uds_diag.c **** 			return Local_u8ErrorStates;
 1375              		.loc 1 787 4 view .LVU401
 1376 00a2 3521     		movs	r1, #53
 1377 00a4 2078     		ldrb	r0, [r4]	@ zero_extendqisi2
 1378 00a6 FFF7FEFF 		bl	UDS_Send_Neg_Res
 1379              	.LVL90:
 788:Src/uds_diag.c **** 		}
 1380              		.loc 1 788 4 view .LVU402
 788:Src/uds_diag.c **** 		}
 1381              		.loc 1 788 11 is_stmt 0 view .LVU403
 1382 00aa 0124     		movs	r4, #1
 1383              	.LVL91:
 788:Src/uds_diag.c **** 		}
 1384              		.loc 1 788 11 view .LVU404
 1385 00ac BAE7     		b	.L106
 1386              	.L111:
 1387 00ae 00BF     		.align	2
 1388              	.L110:
 1389 00b0 00000000 		.word	.LANCHOR5
 1390 00b4 00000000 		.word	.LANCHOR12
 1391 00b8 00000000 		.word	.LANCHOR13
 1392 00bc 00000000 		.word	.LANCHOR14
ARM GAS  C:\Users\wup15j\AppData\Local\Temp\ccx9HpCv.s 			page 42


 1393              	.LBE6:
 1394              		.cfi_endproc
 1395              	.LFE89:
 1397              		.section	.text.UDS_Read_Data_Server,"ax",%progbits
 1398              		.align	1
 1399              		.global	UDS_Read_Data_Server
 1400              		.syntax unified
 1401              		.thumb
 1402              		.thumb_func
 1404              	UDS_Read_Data_Server:
 1405              	.LVL92:
 1406              	.LFB90:
 802:Src/uds_diag.c **** 
 803:Src/uds_diag.c **** 
 804:Src/uds_diag.c **** /**************************************************************************************************
 805:Src/uds_diag.c **** void UDS_Read_Data_Server(uint8_t* data)
 806:Src/uds_diag.c **** {
 1407              		.loc 1 806 1 is_stmt 1 view -0
 1408              		.cfi_startproc
 1409              		@ args = 0, pretend = 0, frame = 0
 1410              		@ frame_needed = 0, uses_anonymous_args = 0
 1411              		.loc 1 806 1 is_stmt 0 view .LVU406
 1412 0000 08B5     		push	{r3, lr}
 1413              	.LCFI16:
 1414              		.cfi_def_cfa_offset 8
 1415              		.cfi_offset 3, -8
 1416              		.cfi_offset 14, -4
 807:Src/uds_diag.c **** 	pos_Response.SUB_FUNC = -1;
 1417              		.loc 1 807 2 is_stmt 1 view .LVU407
 1418              		.loc 1 807 24 is_stmt 0 view .LVU408
 1419 0002 294B     		ldr	r3, .L123
 1420 0004 FF22     		movs	r2, #255
 1421 0006 5A70     		strb	r2, [r3, #1]
 808:Src/uds_diag.c **** 
 809:Src/uds_diag.c **** 	//Send +ve responce
 810:Src/uds_diag.c **** 	pos_Response.SID = Read_Service ;
 1422              		.loc 1 810 2 is_stmt 1 view .LVU409
 1423              		.loc 1 810 19 is_stmt 0 view .LVU410
 1424 0008 2222     		movs	r2, #34
 1425 000a 1A70     		strb	r2, [r3]
 811:Src/uds_diag.c **** 	pos_Response.DID_Length=2;
 1426              		.loc 1 811 2 is_stmt 1 view .LVU411
 1427              		.loc 1 811 25 is_stmt 0 view .LVU412
 1428 000c 0222     		movs	r2, #2
 1429 000e 1A71     		strb	r2, [r3, #4]
 812:Src/uds_diag.c **** 	data[DID_1] |= 0b10000000; //Original DID
 1430              		.loc 1 812 2 is_stmt 1 view .LVU413
 1431              		.loc 1 812 14 is_stmt 0 view .LVU414
 1432 0010 4378     		ldrb	r3, [r0, #1]	@ zero_extendqisi2
 1433 0012 43F08003 		orr	r3, r3, #128
 1434 0016 4370     		strb	r3, [r0, #1]
 813:Src/uds_diag.c **** 
 814:Src/uds_diag.c **** 	//if DID --> SW_version
 815:Src/uds_diag.c **** 	if((data[DID_1] == SW_version_First_byte) && (data[DID_2] == SW_version_Second_byte) )
 1435              		.loc 1 815 2 is_stmt 1 view .LVU415
 1436              		.loc 1 815 4 is_stmt 0 view .LVU416
 1437 0018 F12B     		cmp	r3, #241
ARM GAS  C:\Users\wup15j\AppData\Local\Temp\ccx9HpCv.s 			page 43


 1438 001a 0BD0     		beq	.L120
 1439              	.L113:
 816:Src/uds_diag.c **** 	{
 817:Src/uds_diag.c **** 
 818:Src/uds_diag.c **** 		pos_Response.DID[0]=SW_version_First_byte;
 819:Src/uds_diag.c **** 		pos_Response.DID[1]=SW_version_Second_byte;
 820:Src/uds_diag.c **** 		pos_Response.Data[0]=SW_version_var>>8;
 821:Src/uds_diag.c **** 		pos_Response.Data[1]=SW_version_var & 0xFF;
 822:Src/uds_diag.c **** 		pos_Response.Data_Length = 2;
 823:Src/uds_diag.c **** 		UDS_Send_Pos_Res(&pos_Response);
 824:Src/uds_diag.c **** 
 825:Src/uds_diag.c **** 
 826:Src/uds_diag.c **** 		//	UDS_Send_Pos_Res(Read_Data_Server);
 827:Src/uds_diag.c **** 	}//if DID --> Active_Session
 828:Src/uds_diag.c **** 	else if((data[DID_1] == Active_Session_First_byte) && (data[DID_2] == Active_Session_Second_byte) 
 1440              		.loc 1 828 7 is_stmt 1 view .LVU417
 1441              		.loc 1 828 9 is_stmt 0 view .LVU418
 1442 001c F12B     		cmp	r3, #241
 1443 001e 1CD0     		beq	.L121
 1444              	.L115:
 829:Src/uds_diag.c **** 	{
 830:Src/uds_diag.c **** 		pos_Response.DID[0]=Active_Session_First_byte;
 831:Src/uds_diag.c **** 		pos_Response.DID[1]=Active_Session_Second_byte;
 832:Src/uds_diag.c **** 		pos_Response.Data[0]= global_session;
 833:Src/uds_diag.c **** 
 834:Src/uds_diag.c **** 		pos_Response.Data_Length = 1;
 835:Src/uds_diag.c **** 		UDS_Send_Pos_Res(&pos_Response);
 836:Src/uds_diag.c **** 
 837:Src/uds_diag.c **** 
 838:Src/uds_diag.c **** 		//For Debugging
 839:Src/uds_diag.c **** 		//HAL_UART_Transmit(&huart2, "\r\nRead Frame Client DID:", 50, HAL_MAX_DELAY);
 840:Src/uds_diag.c **** 		//sendHexArrayAsASCII(Read_Data_Server.DID, Read_Data_Server.DID_Length );
 841:Src/uds_diag.c **** 		//HAL_UART_Transmit(&huart2, "\r\n", 50, HAL_MAX_DELAY);
 842:Src/uds_diag.c **** 	}
 843:Src/uds_diag.c **** 	else if( (data[DID_1] == VIN_number_First_byte) && (data[DID_2] == VIN_number_Second_byte) ){
 1445              		.loc 1 843 7 is_stmt 1 view .LVU419
 1446              		.loc 1 843 9 is_stmt 0 view .LVU420
 1447 0020 ED2B     		cmp	r3, #237
 1448 0022 02D1     		bne	.L116
 1449              		.loc 1 843 58 discriminator 1 view .LVU421
 1450 0024 8378     		ldrb	r3, [r0, #2]	@ zero_extendqisi2
 1451              		.loc 1 843 50 discriminator 1 view .LVU422
 1452 0026 A02B     		cmp	r3, #160
 1453 0028 27D0     		beq	.L122
 1454              	.L116:
 844:Src/uds_diag.c **** 		pos_Response.DID[0] = VIN_number_First_byte;
 845:Src/uds_diag.c **** 		pos_Response.DID[1] = VIN_number_Second_byte;
 846:Src/uds_diag.c **** 		/*
 847:Src/uds_diag.c **** 		pos_Response.Data[0] = (VIN_number_var>>24) & 0xFF;
 848:Src/uds_diag.c **** 		pos_Response.Data[1] = (VIN_number_var>>16) & 0xFF;
 849:Src/uds_diag.c **** 		pos_Response.Data[2] = (VIN_number_var>>8) & 0xFF;
 850:Src/uds_diag.c **** 		pos_Response.Data[3] = VIN_number_var & 0xFF;
 851:Src/uds_diag.c **** 
 852:Src/uds_diag.c **** 		pos_Response.Data_Length = 4;
 853:Src/uds_diag.c **** 		 */
 854:Src/uds_diag.c **** 		for (uint8_t i=0; i<=16; i++)
 855:Src/uds_diag.c **** 		{
ARM GAS  C:\Users\wup15j\AppData\Local\Temp\ccx9HpCv.s 			page 44


 856:Src/uds_diag.c **** 			pos_Response.Data[/*16-*/i] = VIN_number_var[i] /*(VIN_number_var >> (i*8)) & 0xFF*/ ;
 857:Src/uds_diag.c **** 
 858:Src/uds_diag.c **** 		}
 859:Src/uds_diag.c **** 		pos_Response.Data_Length = 17;
 860:Src/uds_diag.c **** 		UDS_Send_Pos_Res(&pos_Response);
 861:Src/uds_diag.c **** 
 862:Src/uds_diag.c **** 	}
 863:Src/uds_diag.c **** 	else
 864:Src/uds_diag.c **** 	{
 865:Src/uds_diag.c **** 		//otherwize: send -ve responce
 866:Src/uds_diag.c **** 		UDS_Send_Neg_Res(Read_Service, RequestOutofRange);
 1455              		.loc 1 866 3 is_stmt 1 view .LVU423
 1456 002a 3121     		movs	r1, #49
 1457 002c 2220     		movs	r0, #34
 1458              	.LVL93:
 1459              		.loc 1 866 3 is_stmt 0 view .LVU424
 1460 002e FFF7FEFF 		bl	UDS_Send_Neg_Res
 1461              	.LVL94:
 1462              	.L112:
 867:Src/uds_diag.c **** 	}
 868:Src/uds_diag.c **** 
 869:Src/uds_diag.c **** 
 870:Src/uds_diag.c **** 
 871:Src/uds_diag.c **** }
 1463              		.loc 1 871 1 view .LVU425
 1464 0032 08BD     		pop	{r3, pc}
 1465              	.LVL95:
 1466              	.L120:
 815:Src/uds_diag.c **** 	{
 1467              		.loc 1 815 52 discriminator 1 view .LVU426
 1468 0034 8278     		ldrb	r2, [r0, #2]	@ zero_extendqisi2
 815:Src/uds_diag.c **** 	{
 1469              		.loc 1 815 44 discriminator 1 view .LVU427
 1470 0036 8C2A     		cmp	r2, #140
 1471 0038 F0D1     		bne	.L113
 818:Src/uds_diag.c **** 		pos_Response.DID[1]=SW_version_Second_byte;
 1472              		.loc 1 818 3 is_stmt 1 view .LVU428
 818:Src/uds_diag.c **** 		pos_Response.DID[1]=SW_version_Second_byte;
 1473              		.loc 1 818 22 is_stmt 0 view .LVU429
 1474 003a 1B48     		ldr	r0, .L123
 1475              	.LVL96:
 818:Src/uds_diag.c **** 		pos_Response.DID[1]=SW_version_Second_byte;
 1476              		.loc 1 818 22 view .LVU430
 1477 003c 8370     		strb	r3, [r0, #2]
 819:Src/uds_diag.c **** 		pos_Response.Data[0]=SW_version_var>>8;
 1478              		.loc 1 819 3 is_stmt 1 view .LVU431
 819:Src/uds_diag.c **** 		pos_Response.Data[0]=SW_version_var>>8;
 1479              		.loc 1 819 22 is_stmt 0 view .LVU432
 1480 003e 8C23     		movs	r3, #140
 1481 0040 C370     		strb	r3, [r0, #3]
 820:Src/uds_diag.c **** 		pos_Response.Data[1]=SW_version_var & 0xFF;
 1482              		.loc 1 820 3 is_stmt 1 view .LVU433
 820:Src/uds_diag.c **** 		pos_Response.Data[1]=SW_version_var & 0xFF;
 1483              		.loc 1 820 38 is_stmt 0 view .LVU434
 1484 0042 1A4A     		ldr	r2, .L123+4
 1485 0044 1368     		ldr	r3, [r2]
 1486 0046 1B0A     		lsrs	r3, r3, #8
ARM GAS  C:\Users\wup15j\AppData\Local\Temp\ccx9HpCv.s 			page 45


 820:Src/uds_diag.c **** 		pos_Response.Data[1]=SW_version_var & 0xFF;
 1487              		.loc 1 820 23 view .LVU435
 1488 0048 4371     		strb	r3, [r0, #5]
 821:Src/uds_diag.c **** 		pos_Response.Data_Length = 2;
 1489              		.loc 1 821 3 is_stmt 1 view .LVU436
 821:Src/uds_diag.c **** 		pos_Response.Data_Length = 2;
 1490              		.loc 1 821 23 is_stmt 0 view .LVU437
 1491 004a 1368     		ldr	r3, [r2]
 1492 004c 8371     		strb	r3, [r0, #6]
 822:Src/uds_diag.c **** 		UDS_Send_Pos_Res(&pos_Response);
 1493              		.loc 1 822 3 is_stmt 1 view .LVU438
 822:Src/uds_diag.c **** 		UDS_Send_Pos_Res(&pos_Response);
 1494              		.loc 1 822 28 is_stmt 0 view .LVU439
 1495 004e 0223     		movs	r3, #2
 1496 0050 80F80532 		strb	r3, [r0, #517]
 823:Src/uds_diag.c **** 
 1497              		.loc 1 823 3 is_stmt 1 view .LVU440
 1498 0054 FFF7FEFF 		bl	UDS_Send_Pos_Res
 1499              	.LVL97:
 1500 0058 EBE7     		b	.L112
 1501              	.LVL98:
 1502              	.L121:
 828:Src/uds_diag.c **** 	{
 1503              		.loc 1 828 61 is_stmt 0 discriminator 1 view .LVU441
 1504 005a 8278     		ldrb	r2, [r0, #2]	@ zero_extendqisi2
 828:Src/uds_diag.c **** 	{
 1505              		.loc 1 828 53 discriminator 1 view .LVU442
 1506 005c 862A     		cmp	r2, #134
 1507 005e DFD1     		bne	.L115
 830:Src/uds_diag.c **** 		pos_Response.DID[1]=Active_Session_Second_byte;
 1508              		.loc 1 830 3 is_stmt 1 view .LVU443
 830:Src/uds_diag.c **** 		pos_Response.DID[1]=Active_Session_Second_byte;
 1509              		.loc 1 830 22 is_stmt 0 view .LVU444
 1510 0060 1148     		ldr	r0, .L123
 1511              	.LVL99:
 830:Src/uds_diag.c **** 		pos_Response.DID[1]=Active_Session_Second_byte;
 1512              		.loc 1 830 22 view .LVU445
 1513 0062 8370     		strb	r3, [r0, #2]
 831:Src/uds_diag.c **** 		pos_Response.Data[0]= global_session;
 1514              		.loc 1 831 3 is_stmt 1 view .LVU446
 831:Src/uds_diag.c **** 		pos_Response.Data[0]= global_session;
 1515              		.loc 1 831 22 is_stmt 0 view .LVU447
 1516 0064 8623     		movs	r3, #134
 1517 0066 C370     		strb	r3, [r0, #3]
 832:Src/uds_diag.c **** 
 1518              		.loc 1 832 3 is_stmt 1 view .LVU448
 832:Src/uds_diag.c **** 
 1519              		.loc 1 832 23 is_stmt 0 view .LVU449
 1520 0068 114B     		ldr	r3, .L123+8
 1521 006a 1B78     		ldrb	r3, [r3]	@ zero_extendqisi2
 1522 006c 4371     		strb	r3, [r0, #5]
 834:Src/uds_diag.c **** 		UDS_Send_Pos_Res(&pos_Response);
 1523              		.loc 1 834 3 is_stmt 1 view .LVU450
 834:Src/uds_diag.c **** 		UDS_Send_Pos_Res(&pos_Response);
 1524              		.loc 1 834 28 is_stmt 0 view .LVU451
 1525 006e 0123     		movs	r3, #1
 1526 0070 80F80532 		strb	r3, [r0, #517]
ARM GAS  C:\Users\wup15j\AppData\Local\Temp\ccx9HpCv.s 			page 46


 835:Src/uds_diag.c **** 
 1527              		.loc 1 835 3 is_stmt 1 view .LVU452
 1528 0074 FFF7FEFF 		bl	UDS_Send_Pos_Res
 1529              	.LVL100:
 1530 0078 DBE7     		b	.L112
 1531              	.LVL101:
 1532              	.L122:
 844:Src/uds_diag.c **** 		pos_Response.DID[1] = VIN_number_Second_byte;
 1533              		.loc 1 844 3 view .LVU453
 844:Src/uds_diag.c **** 		pos_Response.DID[1] = VIN_number_Second_byte;
 1534              		.loc 1 844 23 is_stmt 0 view .LVU454
 1535 007a 0B4B     		ldr	r3, .L123
 1536 007c ED22     		movs	r2, #237
 1537 007e 9A70     		strb	r2, [r3, #2]
 845:Src/uds_diag.c **** 		/*
 1538              		.loc 1 845 3 is_stmt 1 view .LVU455
 845:Src/uds_diag.c **** 		/*
 1539              		.loc 1 845 23 is_stmt 0 view .LVU456
 1540 0080 A022     		movs	r2, #160
 1541 0082 DA70     		strb	r2, [r3, #3]
 854:Src/uds_diag.c **** 		{
 1542              		.loc 1 854 3 is_stmt 1 view .LVU457
 1543              	.LBB7:
 854:Src/uds_diag.c **** 		{
 1544              		.loc 1 854 8 view .LVU458
 1545              	.LVL102:
 854:Src/uds_diag.c **** 		{
 1546              		.loc 1 854 16 is_stmt 0 view .LVU459
 1547 0084 0023     		movs	r3, #0
 854:Src/uds_diag.c **** 		{
 1548              		.loc 1 854 3 view .LVU460
 1549 0086 06E0     		b	.L117
 1550              	.LVL103:
 1551              	.L118:
 856:Src/uds_diag.c **** 
 1552              		.loc 1 856 4 is_stmt 1 discriminator 3 view .LVU461
 856:Src/uds_diag.c **** 
 1553              		.loc 1 856 48 is_stmt 0 discriminator 3 view .LVU462
 1554 0088 0A4A     		ldr	r2, .L123+12
 1555 008a D15C     		ldrb	r1, [r2, r3]	@ zero_extendqisi2
 856:Src/uds_diag.c **** 
 1556              		.loc 1 856 32 discriminator 3 view .LVU463
 1557 008c 064A     		ldr	r2, .L123
 1558 008e 1A44     		add	r2, r2, r3
 1559 0090 5171     		strb	r1, [r2, #5]
 854:Src/uds_diag.c **** 		{
 1560              		.loc 1 854 28 is_stmt 1 discriminator 3 view .LVU464
 854:Src/uds_diag.c **** 		{
 1561              		.loc 1 854 29 is_stmt 0 discriminator 3 view .LVU465
 1562 0092 0133     		adds	r3, r3, #1
 1563              	.LVL104:
 854:Src/uds_diag.c **** 		{
 1564              		.loc 1 854 29 discriminator 3 view .LVU466
 1565 0094 DBB2     		uxtb	r3, r3
 1566              	.LVL105:
 1567              	.L117:
 854:Src/uds_diag.c **** 		{
ARM GAS  C:\Users\wup15j\AppData\Local\Temp\ccx9HpCv.s 			page 47


 1568              		.loc 1 854 21 is_stmt 1 discriminator 1 view .LVU467
 854:Src/uds_diag.c **** 		{
 1569              		.loc 1 854 3 is_stmt 0 discriminator 1 view .LVU468
 1570 0096 102B     		cmp	r3, #16
 1571 0098 F6D9     		bls	.L118
 1572              	.LBE7:
 859:Src/uds_diag.c **** 		UDS_Send_Pos_Res(&pos_Response);
 1573              		.loc 1 859 3 is_stmt 1 view .LVU469
 859:Src/uds_diag.c **** 		UDS_Send_Pos_Res(&pos_Response);
 1574              		.loc 1 859 28 is_stmt 0 view .LVU470
 1575 009a 0348     		ldr	r0, .L123
 1576              	.LVL106:
 859:Src/uds_diag.c **** 		UDS_Send_Pos_Res(&pos_Response);
 1577              		.loc 1 859 28 view .LVU471
 1578 009c 1123     		movs	r3, #17
 1579              	.LVL107:
 859:Src/uds_diag.c **** 		UDS_Send_Pos_Res(&pos_Response);
 1580              		.loc 1 859 28 view .LVU472
 1581 009e 80F80532 		strb	r3, [r0, #517]
 860:Src/uds_diag.c **** 
 1582              		.loc 1 860 3 is_stmt 1 view .LVU473
 1583 00a2 FFF7FEFF 		bl	UDS_Send_Pos_Res
 1584              	.LVL108:
 1585 00a6 C4E7     		b	.L112
 1586              	.L124:
 1587              		.align	2
 1588              	.L123:
 1589 00a8 00000000 		.word	.LANCHOR5
 1590 00ac 00000000 		.word	.LANCHOR6
 1591 00b0 00000000 		.word	.LANCHOR10
 1592 00b4 00000000 		.word	.LANCHOR8
 1593              		.cfi_endproc
 1594              	.LFE90:
 1596              		.section	.text.server_call_back,"ax",%progbits
 1597              		.align	1
 1598              		.global	server_call_back
 1599              		.syntax unified
 1600              		.thumb
 1601              		.thumb_func
 1603              	server_call_back:
 1604              	.LVL109:
 1605              	.LFB91:
 872:Src/uds_diag.c **** 
 873:Src/uds_diag.c **** /*******************************************************************/
 874:Src/uds_diag.c **** /*******************************************************************/
 875:Src/uds_diag.c **** /*******************************************************************/
 876:Src/uds_diag.c **** /*******************************************************************/
 877:Src/uds_diag.c **** 
 878:Src/uds_diag.c **** /*************************************************
 879:Src/uds_diag.c ****  void server_call_back()
 880:Src/uds_diag.c **** 
 881:Src/uds_diag.c ****  Description	:
 882:Src/uds_diag.c ****  *	- The function initializes a flag to check the validity of the target.
 883:Src/uds_diag.c ****  *	- The function then initializes a flag to check the validity of the received SID.
 884:Src/uds_diag.c ****  *  - The function then validates the received SID against a set of predefined services.
 885:Src/uds_diag.c ****  *  - Based on the validated SID, it executes corresponding service actions, such as Control Servic
 886:Src/uds_diag.c ****  *    Read Service, Security Service, Write Service, and Tester Representative Service.
ARM GAS  C:\Users\wup15j\AppData\Local\Temp\ccx9HpCv.s 			page 48


 887:Src/uds_diag.c ****  *  - If the SID is valid and matches Control Service, it further checks the session type and chang
 888:Src/uds_diag.c ****  *    the session state accordingly.
 889:Src/uds_diag.c ****  Synch/Asynch	:	Synchronouse performs operations sequentially and returns once all actions are comp
 890:Src/uds_diag.c ****  Reentrance		:	non reeentrant because global variable
 891:Src/uds_diag.c ****  parameter in	:	null	(void)
 892:Src/uds_diag.c ****  parameter out	:	null	(void)
 893:Src/uds_diag.c ****  return value	:	void
 894:Src/uds_diag.c **** 
 895:Src/uds_diag.c ****  ***************************************************/
 896:Src/uds_diag.c **** 
 897:Src/uds_diag.c **** void server_call_back(uint32_t TxPduId, PduInfoType* ptr)
 898:Src/uds_diag.c **** {
 1606              		.loc 1 898 1 view -0
 1607              		.cfi_startproc
 1608              		@ args = 0, pretend = 0, frame = 0
 1609              		@ frame_needed = 0, uses_anonymous_args = 0
 1610              		.loc 1 898 1 is_stmt 0 view .LVU475
 1611 0000 10B5     		push	{r4, lr}
 1612              	.LCFI17:
 1613              		.cfi_def_cfa_offset 8
 1614              		.cfi_offset 4, -8
 1615              		.cfi_offset 14, -4
 1616 0002 0C46     		mov	r4, r1
 899:Src/uds_diag.c **** 	PduDataPTR = ptr;
 1617              		.loc 1 899 2 is_stmt 1 view .LVU476
 1618              		.loc 1 899 13 is_stmt 0 view .LVU477
 1619 0004 404B     		ldr	r3, .L153
 1620 0006 1960     		str	r1, [r3]
 900:Src/uds_diag.c **** 	// create flag for check SID this is local bec . every frame i need to check the sid
 901:Src/uds_diag.c **** 	uint8_t local_sid_flag = 0;
 1621              		.loc 1 901 2 is_stmt 1 view .LVU478
 1622              	.LVL110:
 902:Src/uds_diag.c **** 	SupressedPosRes_Server = ((ptr->Data[Sub_F] & 0b10000000)>>7) ;
 1623              		.loc 1 902 2 view .LVU479
 1624              		.loc 1 902 38 is_stmt 0 view .LVU480
 1625 0008 0B79     		ldrb	r3, [r1, #4]	@ zero_extendqisi2
 1626              		.loc 1 902 59 view .LVU481
 1627 000a DB09     		lsrs	r3, r3, #7
 1628              		.loc 1 902 25 view .LVU482
 1629 000c 3F4A     		ldr	r2, .L153+4
 1630 000e 1370     		strb	r3, [r2]
 903:Src/uds_diag.c **** 	// this for test only
 904:Src/uds_diag.c **** 	//uint8_t ptr->Data[20] = {2 ,Control_Service , 5 };
 905:Src/uds_diag.c **** 	// we need to check for address target (ADD_Target) if true this message is for me if not rejected
 906:Src/uds_diag.c **** 		// for SID validation
 907:Src/uds_diag.c **** 		if (ptr->Data[SID] == Control_Service || ptr->Data[SID]== Read_Service || ptr->Data[SID] == Write
 1631              		.loc 1 907 3 is_stmt 1 view .LVU483
 1632              		.loc 1 907 16 is_stmt 0 view .LVU484
 1633 0010 0878     		ldrb	r0, [r1]	@ zero_extendqisi2
 1634              	.LVL111:
 1635              		.loc 1 907 6 view .LVU485
 1636 0012 1028     		cmp	r0, #16
 1637 0014 07D0     		beq	.L126
 1638              		.loc 1 907 41 discriminator 1 view .LVU486
 1639 0016 2228     		cmp	r0, #34
 1640 0018 05D0     		beq	.L126
 1641              		.loc 1 907 74 discriminator 2 view .LVU487
ARM GAS  C:\Users\wup15j\AppData\Local\Temp\ccx9HpCv.s 			page 49


 1642 001a 2E28     		cmp	r0, #46
 1643 001c 03D0     		beq	.L126
 1644              		.loc 1 907 109 discriminator 3 view .LVU488
 1645 001e 2728     		cmp	r0, #39
 1646 0020 01D0     		beq	.L126
 1647              		.loc 1 907 147 discriminator 4 view .LVU489
 1648 0022 3E28     		cmp	r0, #62
 1649 0024 1ED1     		bne	.L127
 1650              	.L126:
 908:Src/uds_diag.c **** 		{
 909:Src/uds_diag.c **** 			// tmam
 910:Src/uds_diag.c **** 			reset_timer();
 1651              		.loc 1 910 4 is_stmt 1 view .LVU490
 1652 0026 FFF7FEFF 		bl	reset_timer
 1653              	.LVL112:
 911:Src/uds_diag.c **** 			if(global_session != DefaultSession){
 1654              		.loc 1 911 4 view .LVU491
 1655              		.loc 1 911 22 is_stmt 0 view .LVU492
 1656 002a 394B     		ldr	r3, .L153+8
 1657 002c 1B78     		ldrb	r3, [r3]	@ zero_extendqisi2
 1658 002e DBB2     		uxtb	r3, r3
 1659              		.loc 1 911 6 view .LVU493
 1660 0030 012B     		cmp	r3, #1
 1661 0032 14D1     		bne	.L142
 1662              	.L128:
 912:Src/uds_diag.c **** 				start_timer();
 913:Src/uds_diag.c **** 			}
 914:Src/uds_diag.c **** 			local_sid_flag = 1;
 1663              		.loc 1 914 4 is_stmt 1 view .LVU494
 1664              	.LVL113:
 915:Src/uds_diag.c **** 
 916:Src/uds_diag.c **** 
 917:Src/uds_diag.c **** 		}
 918:Src/uds_diag.c **** 		else
 919:Src/uds_diag.c **** 		{
 920:Src/uds_diag.c **** 			// let error code of NRC =0 ;
 921:Src/uds_diag.c **** 
 922:Src/uds_diag.c **** 			// for test only
 923:Src/uds_diag.c **** 			//HAL_UART_Transmit(&huart2, (const uint8_t*)" -ive there is no SID has this name \r\n", 50, HAL
 924:Src/uds_diag.c **** 
 925:Src/uds_diag.c **** 			// this mean the SID not supported
 926:Src/uds_diag.c **** 			UDS_Send_Neg_Res(ptr->Data[SID],  serviceNotSupported);
 927:Src/uds_diag.c **** 			// go out of isr
 928:Src/uds_diag.c **** 			return;
 929:Src/uds_diag.c **** 		}
 930:Src/uds_diag.c **** 		if (local_sid_flag)
 1665              		.loc 1 930 3 view .LVU495
 931:Src/uds_diag.c **** 		{
 932:Src/uds_diag.c **** 			//Check Suppressed Positive Response
 933:Src/uds_diag.c **** 			if (ptr->Data[SID] == Control_Service)
 1666              		.loc 1 933 4 view .LVU496
 1667              		.loc 1 933 17 is_stmt 0 view .LVU497
 1668 0034 2078     		ldrb	r0, [r4]	@ zero_extendqisi2
 1669              		.loc 1 933 7 view .LVU498
 1670 0036 1028     		cmp	r0, #16
 1671 0038 18D0     		beq	.L143
 934:Src/uds_diag.c **** 			{
ARM GAS  C:\Users\wup15j\AppData\Local\Temp\ccx9HpCv.s 			page 50


 935:Src/uds_diag.c **** 				flag_sub_fun = 1;
 936:Src/uds_diag.c **** 			}
 937:Src/uds_diag.c **** 			else if (ptr->Data[SID] == Read_Service)
 1672              		.loc 1 937 9 is_stmt 1 view .LVU499
 1673              		.loc 1 937 12 is_stmt 0 view .LVU500
 1674 003a 2228     		cmp	r0, #34
 1675 003c 1AD0     		beq	.L144
 938:Src/uds_diag.c **** 			{
 939:Src/uds_diag.c **** 				//  for test
 940:Src/uds_diag.c **** 				//	printf("u are in Read_Service\n");
 941:Src/uds_diag.c **** 				// send read function (rad resp as the actual ptr->Data of temp or pressure)
 942:Src/uds_diag.c **** 				//	HAL_UART_Transmit(&huart2, (const uint8_t*)" UDS_Read_Data_Server() \r\n", 50, HAL_MAX_DELAY
 943:Src/uds_diag.c **** 
 944:Src/uds_diag.c **** 				//UDS_Read_Data_Server();
 945:Src/uds_diag.c **** 
 946:Src/uds_diag.c **** 				UDS_Read_Data_Server(ptr->Data);
 947:Src/uds_diag.c **** 				return;
 948:Src/uds_diag.c **** 				
 949:Src/uds_diag.c **** 			}
 950:Src/uds_diag.c **** 			else if (ptr->Data[SID] == Security_Service )
 1676              		.loc 1 950 9 is_stmt 1 view .LVU501
 1677              		.loc 1 950 12 is_stmt 0 view .LVU502
 1678 003e 2728     		cmp	r0, #39
 1679 0040 1CD0     		beq	.L145
 951:Src/uds_diag.c **** 			{
 952:Src/uds_diag.c **** 
 953:Src/uds_diag.c **** 				//	printf("send_ser_sec() +ive resp \n");
 954:Src/uds_diag.c **** 				//			HAL_UART_Transmit(&huart2, (const uint8_t*)" send_ser_sec() +ive resp change the flag \r\n
 955:Src/uds_diag.c **** 
 956:Src/uds_diag.c **** 				//		send_ser_sec() ; // send seed
 957:Src/uds_diag.c **** 
 958:Src/uds_diag.c **** 				// (write here +ive resp for security) ------------------------> here
 959:Src/uds_diag.c **** 
 960:Src/uds_diag.c **** 				Sec_uint32SecurityAccess(PduDataPTR);
 961:Src/uds_diag.c **** 				//			UDS_Send_Pos_Res(&pos_Response) ;
 962:Src/uds_diag.c **** 			}
 963:Src/uds_diag.c **** 
 964:Src/uds_diag.c **** 
 965:Src/uds_diag.c **** 			else if (ptr->Data[SID] == Write_Service && global_sec_flag ==1 && global_session == ExtendedSes
 1680              		.loc 1 965 9 is_stmt 1 view .LVU503
 1681              		.loc 1 965 12 is_stmt 0 view .LVU504
 1682 0042 2E28     		cmp	r0, #46
 1683 0044 1FD0     		beq	.L146
 1684              	.L135:
 966:Src/uds_diag.c **** 			{
 967:Src/uds_diag.c **** 				//printf("u are in Write_Service\n");
 968:Src/uds_diag.c **** 				//			HAL_UART_Transmit(&huart2, (const uint8_t*)" u are in Write_Service \r\n", 50, 100 );
 969:Src/uds_diag.c **** 				//			// send write response
 970:Src/uds_diag.c **** 				//			//	printf("UDS_Write_Data_Server() \n");
 971:Src/uds_diag.c **** 				//			HAL_UART_Transmit(&huart2, (const uint8_t*)" UDS_Write_Data_Server() \r\n", 50, 100 ); // 
 972:Src/uds_diag.c **** 
 973:Src/uds_diag.c **** 				// ptr->Data write with +ive resp
 974:Src/uds_diag.c **** 
 975:Src/uds_diag.c **** 
 976:Src/uds_diag.c **** 				UDS_Write_Data_Server(ptr->Data,  ptr->Data[0]);
 977:Src/uds_diag.c **** 				return;
 978:Src/uds_diag.c **** 			}
ARM GAS  C:\Users\wup15j\AppData\Local\Temp\ccx9HpCv.s 			page 51


 979:Src/uds_diag.c **** 			else if (ptr->Data[SID] == Write_Service && global_sec_flag == 0 && global_session == ExtendedSe
 1685              		.loc 1 979 9 is_stmt 1 view .LVU505
 1686              		.loc 1 979 12 is_stmt 0 view .LVU506
 1687 0046 2E28     		cmp	r0, #46
 1688 0048 2CD0     		beq	.L147
 1689              	.L136:
 980:Src/uds_diag.c **** 			{
 981:Src/uds_diag.c **** 				//printf("u are not in Write_Service\n");
 982:Src/uds_diag.c **** 				//			HAL_UART_Transmit(&huart2, (const uint8_t*)" u are not in Write_Service \r\n", 50, 100 );
 983:Src/uds_diag.c **** 				//			// send -ive response
 984:Src/uds_diag.c **** 				//			//printf("UDS_Write_Data_Server() \n");
 985:Src/uds_diag.c **** 				//			HAL_UART_Transmit(&huart2, (const uint8_t*)"UDS_Write_Data_Server() \r\n", 50, 100 ); // d
 986:Src/uds_diag.c **** 				// (write here -ive resp for write security ) ------------------------> here
 987:Src/uds_diag.c **** 
 988:Src/uds_diag.c **** 				UDS_Send_Neg_Res(ptr->Data[SID], securityAccessDenied);
 989:Src/uds_diag.c **** 				return;
 990:Src/uds_diag.c **** 			}
 991:Src/uds_diag.c **** 			else if (ptr->Data[SID] == Write_Service  && global_session == DefaultSession)
 1690              		.loc 1 991 9 is_stmt 1 view .LVU507
 1691              		.loc 1 991 12 is_stmt 0 view .LVU508
 1692 004a 2E28     		cmp	r0, #46
 1693 004c 37D0     		beq	.L148
 1694              	.L137:
 992:Src/uds_diag.c **** 			{
 993:Src/uds_diag.c **** 				// (write here -ive resp for write session (NRC ) ------------------------> here
 994:Src/uds_diag.c **** 
 995:Src/uds_diag.c **** 				UDS_Send_Neg_Res(ptr->Data[SID], serviceNotSupportedInActiveSession);
 996:Src/uds_diag.c **** 				return;
 997:Src/uds_diag.c **** 			}
 998:Src/uds_diag.c **** 			else if (ptr->Data[SID] == Tester_Representer_Service)
 1695              		.loc 1 998 9 is_stmt 1 view .LVU509
 1696              		.loc 1 998 12 is_stmt 0 view .LVU510
 1697 004e 3E28     		cmp	r0, #62
 1698 0050 3ED0     		beq	.L149
 1699              	.L132:
 999:Src/uds_diag.c **** 			{
1000:Src/uds_diag.c **** 				//printf("u are in Tester_Representer_Service\n");
1001:Src/uds_diag.c **** 				//			HAL_UART_Transmit(&huart2, (const uint8_t*)" u are in Tester_Representer_Service \r\n", 50
1002:Src/uds_diag.c **** 				// call the fun of tester Representer
1003:Src/uds_diag.c **** 				UDS_Tester_Presenter_Server();
1004:Src/uds_diag.c **** 				//printf("void UDS_Tester_Present(void) \n");
1005:Src/uds_diag.c **** 				//			HAL_UART_Transmit(&huart2, (const uint8_t*)" void UDS_Tester_Present(void) \r\n", 50, 100 
1006:Src/uds_diag.c **** 
1007:Src/uds_diag.c **** 				// (write here +ive resp for  Tester_Representer_Service) ------------------------> here
1008:Src/uds_diag.c **** 				return;
1009:Src/uds_diag.c **** 			}
1010:Src/uds_diag.c **** 		}
1011:Src/uds_diag.c **** 		// check sub fun
1012:Src/uds_diag.c **** 		if (flag_sub_fun== sub_func_control)
 1700              		.loc 1 1012 3 is_stmt 1 view .LVU511
 1701              		.loc 1 1012 19 is_stmt 0 view .LVU512
 1702 0052 304B     		ldr	r3, .L153+12
 1703 0054 1B78     		ldrb	r3, [r3]	@ zero_extendqisi2
 1704 0056 DBB2     		uxtb	r3, r3
 1705              		.loc 1 1012 6 view .LVU513
 1706 0058 012B     		cmp	r3, #1
 1707 005a 3CD0     		beq	.L150
ARM GAS  C:\Users\wup15j\AppData\Local\Temp\ccx9HpCv.s 			page 52


 1708              	.LVL114:
 1709              	.L125:
1013:Src/uds_diag.c **** 		{
1014:Src/uds_diag.c **** 			ptr->Data[Sub_F] &= 0x7F; //Original Sub_Func
1015:Src/uds_diag.c **** 			// true sub fun
1016:Src/uds_diag.c **** 			if (ptr->Data[SID]== Control_Service && ptr->Data[Sub_F] == DefaultSession)
1017:Src/uds_diag.c **** 			{
1018:Src/uds_diag.c **** 				// change the state to default
1019:Src/uds_diag.c **** 				//	printf(" UDS_Process_Session(void); \n ");
1020:Src/uds_diag.c **** 				//HAL_UART_Transmit(&huart2, (const uint8_t*)" UDS_Process_Session(void) \r\n", 50, 100 );
1021:Src/uds_diag.c **** 
1022:Src/uds_diag.c **** 				//HAL_UART_Transmit(&huart2, (const uint8_t*)" changed to DefaultSession \r\n", 50, 100 );
1023:Src/uds_diag.c **** 				// (write here +ive resp for  change to def- session ) ------------------------> here
1024:Src/uds_diag.c **** 
1025:Src/uds_diag.c **** 				//global_session = DefaultSession;
1026:Src/uds_diag.c **** 				UDS_Control_Session_Server(ptr->Data);
1027:Src/uds_diag.c **** 
1028:Src/uds_diag.c **** 			}
1029:Src/uds_diag.c **** 			else if (ptr->Data[SID] == Control_Service && ptr->Data[Sub_F] == ExtendedSession)
1030:Src/uds_diag.c **** 			{
1031:Src/uds_diag.c **** 				//printf(" UDS_Process_Session(void); \n ");
1032:Src/uds_diag.c **** 				// change to extended
1033:Src/uds_diag.c **** 				//	printf(" changed to ExtendedSession ");
1034:Src/uds_diag.c **** 				//	HAL_UART_Transmit(&huart2, (const uint8_t*)" changed to ExtendedSession \r\n", 50, 100 );
1035:Src/uds_diag.c **** 
1036:Src/uds_diag.c **** 				// (write here +ive resp for  change to ext session ) ------------------------> here
1037:Src/uds_diag.c **** 				//global_session = ExtendedSession;
1038:Src/uds_diag.c **** 				UDS_Control_Session_Server(ptr->Data);
1039:Src/uds_diag.c **** 			}
1040:Src/uds_diag.c **** 			else
1041:Src/uds_diag.c **** 			{
1042:Src/uds_diag.c **** 				//printf(" not supported ");
1043:Src/uds_diag.c **** 				//HAL_UART_Transmit(&huart2, (const uint8_t*)" not supported \r\n", 50, 100 );
1044:Src/uds_diag.c **** 				UDS_Send_Neg_Res(ptr->Data[SID], subFunctionNotSupported);
1045:Src/uds_diag.c **** 							// error in sub func
1046:Src/uds_diag.c **** 				// (write here -ive resp for sub servise ) ------------------------> here
1047:Src/uds_diag.c **** 			}
1048:Src/uds_diag.c **** 		}
1049:Src/uds_diag.c **** 		else
1050:Src/uds_diag.c **** 		{
1051:Src/uds_diag.c **** 			
1052:Src/uds_diag.c **** 
1053:Src/uds_diag.c **** 		}
1054:Src/uds_diag.c **** 	
1055:Src/uds_diag.c **** 	
1056:Src/uds_diag.c **** }
 1710              		.loc 1 1056 1 view .LVU514
 1711 005c 10BD     		pop	{r4, pc}
 1712              	.LVL115:
 1713              	.L142:
 912:Src/uds_diag.c **** 			}
 1714              		.loc 1 912 5 is_stmt 1 view .LVU515
 1715 005e FFF7FEFF 		bl	start_timer
 1716              	.LVL116:
 1717 0062 E7E7     		b	.L128
 1718              	.LVL117:
 1719              	.L127:
ARM GAS  C:\Users\wup15j\AppData\Local\Temp\ccx9HpCv.s 			page 53


 926:Src/uds_diag.c **** 			// go out of isr
 1720              		.loc 1 926 4 view .LVU516
 1721 0064 1121     		movs	r1, #17
 1722              	.LVL118:
 926:Src/uds_diag.c **** 			// go out of isr
 1723              		.loc 1 926 4 is_stmt 0 view .LVU517
 1724 0066 FFF7FEFF 		bl	UDS_Send_Neg_Res
 1725              	.LVL119:
 928:Src/uds_diag.c **** 		}
 1726              		.loc 1 928 4 is_stmt 1 view .LVU518
 1727 006a F7E7     		b	.L125
 1728              	.LVL120:
 1729              	.L143:
 935:Src/uds_diag.c **** 			}
 1730              		.loc 1 935 5 view .LVU519
 935:Src/uds_diag.c **** 			}
 1731              		.loc 1 935 18 is_stmt 0 view .LVU520
 1732 006c 294B     		ldr	r3, .L153+12
 1733 006e 0122     		movs	r2, #1
 1734 0070 1A70     		strb	r2, [r3]
 1735 0072 EEE7     		b	.L132
 1736              	.L144:
 946:Src/uds_diag.c **** 				return;
 1737              		.loc 1 946 5 is_stmt 1 view .LVU521
 1738 0074 2046     		mov	r0, r4
 1739 0076 FFF7FEFF 		bl	UDS_Read_Data_Server
 1740              	.LVL121:
 947:Src/uds_diag.c **** 				
 1741              		.loc 1 947 5 view .LVU522
 1742 007a EFE7     		b	.L125
 1743              	.L145:
 960:Src/uds_diag.c **** 				//			UDS_Send_Pos_Res(&pos_Response) ;
 1744              		.loc 1 960 5 view .LVU523
 1745 007c 224B     		ldr	r3, .L153
 1746 007e 1868     		ldr	r0, [r3]
 1747 0080 FFF7FEFF 		bl	Sec_uint32SecurityAccess
 1748              	.LVL122:
 1749 0084 E5E7     		b	.L132
 1750              	.L146:
 965:Src/uds_diag.c **** 			{
 1751              		.loc 1 965 64 is_stmt 0 discriminator 1 view .LVU524
 1752 0086 244B     		ldr	r3, .L153+16
 1753 0088 1B78     		ldrb	r3, [r3]	@ zero_extendqisi2
 1754 008a DBB2     		uxtb	r3, r3
 965:Src/uds_diag.c **** 			{
 1755              		.loc 1 965 45 discriminator 1 view .LVU525
 1756 008c 012B     		cmp	r3, #1
 1757 008e DAD1     		bne	.L135
 965:Src/uds_diag.c **** 			{
 1758              		.loc 1 965 86 discriminator 2 view .LVU526
 1759 0090 1F4B     		ldr	r3, .L153+8
 1760 0092 1B78     		ldrb	r3, [r3]	@ zero_extendqisi2
 1761 0094 DBB2     		uxtb	r3, r3
 965:Src/uds_diag.c **** 			{
 1762              		.loc 1 965 68 discriminator 2 view .LVU527
 1763 0096 032B     		cmp	r3, #3
 1764 0098 D5D1     		bne	.L135
ARM GAS  C:\Users\wup15j\AppData\Local\Temp\ccx9HpCv.s 			page 54


 976:Src/uds_diag.c **** 				return;
 1765              		.loc 1 976 5 is_stmt 1 view .LVU528
 1766 009a 0146     		mov	r1, r0
 1767 009c 2046     		mov	r0, r4
 1768 009e FFF7FEFF 		bl	UDS_Write_Data_Server
 1769              	.LVL123:
 977:Src/uds_diag.c **** 			}
 1770              		.loc 1 977 5 view .LVU529
 1771 00a2 DBE7     		b	.L125
 1772              	.L147:
 979:Src/uds_diag.c **** 			{
 1773              		.loc 1 979 64 is_stmt 0 discriminator 1 view .LVU530
 1774 00a4 1C4B     		ldr	r3, .L153+16
 1775 00a6 1B78     		ldrb	r3, [r3]	@ zero_extendqisi2
 979:Src/uds_diag.c **** 			{
 1776              		.loc 1 979 45 discriminator 1 view .LVU531
 1777 00a8 002B     		cmp	r3, #0
 1778 00aa CED1     		bne	.L136
 979:Src/uds_diag.c **** 			{
 1779              		.loc 1 979 87 discriminator 2 view .LVU532
 1780 00ac 184B     		ldr	r3, .L153+8
 1781 00ae 1B78     		ldrb	r3, [r3]	@ zero_extendqisi2
 1782 00b0 DBB2     		uxtb	r3, r3
 979:Src/uds_diag.c **** 			{
 1783              		.loc 1 979 69 discriminator 2 view .LVU533
 1784 00b2 032B     		cmp	r3, #3
 1785 00b4 C9D1     		bne	.L136
 988:Src/uds_diag.c **** 				return;
 1786              		.loc 1 988 5 is_stmt 1 view .LVU534
 1787 00b6 3321     		movs	r1, #51
 1788 00b8 FFF7FEFF 		bl	UDS_Send_Neg_Res
 1789              	.LVL124:
 989:Src/uds_diag.c **** 			}
 1790              		.loc 1 989 5 view .LVU535
 1791 00bc CEE7     		b	.L125
 1792              	.L148:
 991:Src/uds_diag.c **** 			{
 1793              		.loc 1 991 64 is_stmt 0 discriminator 1 view .LVU536
 1794 00be 144B     		ldr	r3, .L153+8
 1795 00c0 1B78     		ldrb	r3, [r3]	@ zero_extendqisi2
 1796 00c2 DBB2     		uxtb	r3, r3
 991:Src/uds_diag.c **** 			{
 1797              		.loc 1 991 46 discriminator 1 view .LVU537
 1798 00c4 012B     		cmp	r3, #1
 1799 00c6 C2D1     		bne	.L137
 995:Src/uds_diag.c **** 				return;
 1800              		.loc 1 995 5 is_stmt 1 view .LVU538
 1801 00c8 7F21     		movs	r1, #127
 1802 00ca FFF7FEFF 		bl	UDS_Send_Neg_Res
 1803              	.LVL125:
 996:Src/uds_diag.c **** 			}
 1804              		.loc 1 996 5 view .LVU539
 1805 00ce C5E7     		b	.L125
 1806              	.L149:
1003:Src/uds_diag.c **** 				//printf("void UDS_Tester_Present(void) \n");
 1807              		.loc 1 1003 5 view .LVU540
 1808 00d0 FFF7FEFF 		bl	UDS_Tester_Presenter_Server
ARM GAS  C:\Users\wup15j\AppData\Local\Temp\ccx9HpCv.s 			page 55


 1809              	.LVL126:
1008:Src/uds_diag.c **** 			}
 1810              		.loc 1 1008 5 view .LVU541
 1811 00d4 C2E7     		b	.L125
 1812              	.L150:
1014:Src/uds_diag.c **** 			// true sub fun
 1813              		.loc 1 1014 4 view .LVU542
1014:Src/uds_diag.c **** 			// true sub fun
 1814              		.loc 1 1014 21 is_stmt 0 view .LVU543
 1815 00d6 2379     		ldrb	r3, [r4, #4]	@ zero_extendqisi2
 1816 00d8 03F07F03 		and	r3, r3, #127
 1817 00dc 2371     		strb	r3, [r4, #4]
1016:Src/uds_diag.c **** 			{
 1818              		.loc 1 1016 4 is_stmt 1 view .LVU544
1016:Src/uds_diag.c **** 			{
 1819              		.loc 1 1016 17 is_stmt 0 view .LVU545
 1820 00de 2078     		ldrb	r0, [r4]	@ zero_extendqisi2
1016:Src/uds_diag.c **** 			{
 1821              		.loc 1 1016 7 view .LVU546
 1822 00e0 1028     		cmp	r0, #16
 1823 00e2 07D0     		beq	.L151
 1824              	.L138:
1029:Src/uds_diag.c **** 			{
 1825              		.loc 1 1029 9 is_stmt 1 view .LVU547
1029:Src/uds_diag.c **** 			{
 1826              		.loc 1 1029 12 is_stmt 0 view .LVU548
 1827 00e4 1028     		cmp	r0, #16
 1828 00e6 01D1     		bne	.L139
1029:Src/uds_diag.c **** 			{
 1829              		.loc 1 1029 47 discriminator 1 view .LVU549
 1830 00e8 032B     		cmp	r3, #3
 1831 00ea 09D0     		beq	.L152
 1832              	.L139:
1044:Src/uds_diag.c **** 							// error in sub func
 1833              		.loc 1 1044 5 is_stmt 1 view .LVU550
 1834 00ec 1221     		movs	r1, #18
 1835 00ee FFF7FEFF 		bl	UDS_Send_Neg_Res
 1836              	.LVL127:
1053:Src/uds_diag.c **** 	
 1837              		.loc 1 1053 3 view .LVU551
 1838 00f2 B3E7     		b	.L125
 1839              	.L151:
1016:Src/uds_diag.c **** 			{
 1840              		.loc 1 1016 41 is_stmt 0 discriminator 1 view .LVU552
 1841 00f4 012B     		cmp	r3, #1
 1842 00f6 F5D1     		bne	.L138
1026:Src/uds_diag.c **** 
 1843              		.loc 1 1026 5 is_stmt 1 view .LVU553
 1844 00f8 2046     		mov	r0, r4
 1845 00fa FFF7FEFF 		bl	UDS_Control_Session_Server
 1846              	.LVL128:
 1847 00fe ADE7     		b	.L125
 1848              	.L152:
1038:Src/uds_diag.c **** 			}
 1849              		.loc 1 1038 5 view .LVU554
 1850 0100 2046     		mov	r0, r4
 1851 0102 FFF7FEFF 		bl	UDS_Control_Session_Server
ARM GAS  C:\Users\wup15j\AppData\Local\Temp\ccx9HpCv.s 			page 56


 1852              	.LVL129:
 1853 0106 A9E7     		b	.L125
 1854              	.L154:
 1855              		.align	2
 1856              	.L153:
 1857 0108 00000000 		.word	.LANCHOR15
 1858 010c 00000000 		.word	.LANCHOR9
 1859 0110 00000000 		.word	.LANCHOR10
 1860 0114 00000000 		.word	.LANCHOR16
 1861 0118 00000000 		.word	.LANCHOR14
 1862              		.cfi_endproc
 1863              	.LFE91:
 1865              		.section	.text.UDS_MainFunction,"ax",%progbits
 1866              		.align	1
 1867              		.global	UDS_MainFunction
 1868              		.syntax unified
 1869              		.thumb
 1870              		.thumb_func
 1872              	UDS_MainFunction:
 1873              	.LFB92:
1057:Src/uds_diag.c **** 
1058:Src/uds_diag.c **** void UDS_MainFunction()
1059:Src/uds_diag.c **** {
 1874              		.loc 1 1059 1 view -0
 1875              		.cfi_startproc
 1876              		@ Volatile: function does not return.
 1877              		@ args = 0, pretend = 0, frame = 0
 1878              		@ frame_needed = 0, uses_anonymous_args = 0
 1879 0000 08B5     		push	{r3, lr}
 1880              	.LCFI18:
 1881              		.cfi_def_cfa_offset 8
 1882              		.cfi_offset 3, -8
 1883              		.cfi_offset 14, -4
 1884 0002 10E0     		b	.L160
 1885              	.L165:
1060:Src/uds_diag.c **** 	while(1)
1061:Src/uds_diag.c **** 	{
1062:Src/uds_diag.c **** 		if(UDS_Tx_Confirm)
1063:Src/uds_diag.c **** 		{
1064:Src/uds_diag.c **** 			UDS_Tx_Confirm = 0;
1065:Src/uds_diag.c **** 			if ( UDS_Struct ->Data[Neg_Res_INDEX] == 0x7f)
1066:Src/uds_diag.c **** 			{
1067:Src/uds_diag.c **** 				switch(UDS_Struct ->Data[NRC_INDEX])
1068:Src/uds_diag.c **** 				{
1069:Src/uds_diag.c **** 				case serviceNotSupported :
1070:Src/uds_diag.c **** 					//HAL_UART_Transmit(&huart2, (uint8_t*) "\r\nThis Service is not Available.\r\n",strlen("\r\nT
1071:Src/uds_diag.c **** 					break ;
1072:Src/uds_diag.c **** 
1073:Src/uds_diag.c **** 				case securityAccessDenied :
1074:Src/uds_diag.c **** 					//HAL_UART_Transmit(&huart2, (uint8_t*) "\r\nNot Secured, Please Enter a Key.\r\n",strlen("\r\
1075:Src/uds_diag.c **** 
1076:Src/uds_diag.c **** 					break ;
1077:Src/uds_diag.c **** 
1078:Src/uds_diag.c **** 				case subFunctionNotSupported :
1079:Src/uds_diag.c **** 					//HAL_UART_Transmit(&huart2, (uint8_t*) "\r\nWrong Session, Please Enter Extended Session.\r\n
1080:Src/uds_diag.c **** 
1081:Src/uds_diag.c **** 					break ;
ARM GAS  C:\Users\wup15j\AppData\Local\Temp\ccx9HpCv.s 			page 57


1082:Src/uds_diag.c **** 
1083:Src/uds_diag.c **** 				case serviceNotSupportedInActiveSession :
1084:Src/uds_diag.c **** 					//HAL_UART_Transmit(&huart2, (uint8_t*) "\r\nWrong Session, Please Enter Extended Session.\r\n
1085:Src/uds_diag.c **** 
1086:Src/uds_diag.c **** 					break ;
1087:Src/uds_diag.c **** 
1088:Src/uds_diag.c **** 				case invalidKey :
1089:Src/uds_diag.c **** 					//HAL_UART_Transmit(&huart2, (uint8_t*) "\r\nWrong Key.\r\n",strlen("\r\nWrong Key.\r\n"), HAL
1090:Src/uds_diag.c **** 
1091:Src/uds_diag.c **** 					break ;
1092:Src/uds_diag.c **** 
1093:Src/uds_diag.c **** 				default:
1094:Src/uds_diag.c **** 					//Nothing
1095:Src/uds_diag.c ****                     break ;
1096:Src/uds_diag.c **** 				}
1097:Src/uds_diag.c **** 			}
1098:Src/uds_diag.c **** 
1099:Src/uds_diag.c **** 			else {
1100:Src/uds_diag.c **** 				UDS_Struct->Data[SID] = UDS_Struct->Data[SID] - 0x40;
1101:Src/uds_diag.c **** 				if (UDS_Struct->Data[SID] == Read_Service)
1102:Src/uds_diag.c **** 
1103:Src/uds_diag.c **** 				{
1104:Src/uds_diag.c **** 					if  ( UDS_Struct->Data[DID_1] == SW_version_First_byte &&  UDS_Struct->Data[DID_2] == SW_versi
 1886              		.loc 1 1104 6 view .LVU556
 1887              		.loc 1 1104 61 is_stmt 0 view .LVU557
 1888 0004 0368     		ldr	r3, [r0]
 1889 0006 23F07F43 		bic	r3, r3, #-16777216
 1890 000a 23F0FF03 		bic	r3, r3, #255
 1891              		.loc 1 1104 10 view .LVU558
 1892 000e 1E4A     		ldr	r2, .L166
 1893 0010 9342     		cmp	r3, r2
 1894 0012 29D0     		beq	.L162
1105:Src/uds_diag.c **** 					{
1106:Src/uds_diag.c **** 
1107:Src/uds_diag.c **** 						//HAL_UART_Transmit(&huart2, (uint8_t*) "\r\nOil Temp:\r\n", strlen("\r\nOil Temp:\r\n"), HAL
1108:Src/uds_diag.c **** 						sendHexArrayAsASCII((uint8_t*)&UDS_Struct->Data[Data_DID],2);
1109:Src/uds_diag.c **** 
1110:Src/uds_diag.c **** 					}
1111:Src/uds_diag.c **** 
1112:Src/uds_diag.c **** 					else if  ( UDS_Struct->Data[DID_1] == Active_Session_First_byte &&  UDS_Struct->Data[DID_2] ==
 1895              		.loc 1 1112 11 is_stmt 1 view .LVU559
 1896              		.loc 1 1112 15 is_stmt 0 view .LVU560
 1897 0014 1D4A     		ldr	r2, .L166+4
 1898 0016 9342     		cmp	r3, r2
 1899 0018 2BD0     		beq	.L163
1113:Src/uds_diag.c **** 					{
1114:Src/uds_diag.c **** 						//HAL_UART_Transmit(&huart2, (uint8_t*) "\r\nOil Pressure:\r\n", strlen("\r\nOil Pressure:\r\
1115:Src/uds_diag.c **** 						sendHexArrayAsASCII((uint8_t*)&UDS_Struct->Data[Data_DID],4);
1116:Src/uds_diag.c **** 
1117:Src/uds_diag.c **** 					}
1118:Src/uds_diag.c **** 
1119:Src/uds_diag.c **** 					else if  ( UDS_Struct->Data[DID_1] == VIN_number_First_byte &&  UDS_Struct->Data[DID_2] == VIN
 1900              		.loc 1 1119 11 is_stmt 1 view .LVU561
 1901              		.loc 1 1119 15 is_stmt 0 view .LVU562
 1902 001a 1D4A     		ldr	r2, .L166+8
 1903 001c 9342     		cmp	r3, r2
 1904 001e 2DD0     		beq	.L164
ARM GAS  C:\Users\wup15j\AppData\Local\Temp\ccx9HpCv.s 			page 58


 1905              	.L156:
1120:Src/uds_diag.c **** 					{
1121:Src/uds_diag.c **** 						//HAL_UART_Transmit(&huart2, (uint8_t*) "\r\nVIN Number:\r\n", strlen("\r\nVIN Number:\r\n"),
1122:Src/uds_diag.c **** 						sendHexArrayAsASCII((uint8_t*)&UDS_Struct->Data[Data_DID],17);
1123:Src/uds_diag.c **** 						//sendHexArrayAsASCII((uint8_t*)&UDS_Struct->Data[Data_DID],17);
1124:Src/uds_diag.c **** 
1125:Src/uds_diag.c **** 					}
1126:Src/uds_diag.c **** 				}
1127:Src/uds_diag.c **** 
1128:Src/uds_diag.c **** 				/*  Write IDS Message */
1129:Src/uds_diag.c **** 				else if (UDS_Struct->Data[SID] == Write_Service)
1130:Src/uds_diag.c **** 
1131:Src/uds_diag.c **** 				{
1132:Src/uds_diag.c **** 
1133:Src/uds_diag.c **** 					if ( UDS_Struct->Data[DID_1] == SW_version_First_byte &&  UDS_Struct->Data[DID_2] == SW_versio
1134:Src/uds_diag.c **** 					{
1135:Src/uds_diag.c **** 						//HAL_UART_Transmit(&huart2, (uint8_t*) "\r\nOil Temperature Written successfully.\r\n", strl
1136:Src/uds_diag.c **** 					}
1137:Src/uds_diag.c **** 
1138:Src/uds_diag.c **** 					else if  ( UDS_Struct->Data[DID_1] == Active_Session_First_byte &&  UDS_Struct->Data[DID_2] ==
1139:Src/uds_diag.c **** 					{
1140:Src/uds_diag.c **** 						//HAL_UART_Transmit(&huart2, (uint8_t*) "\r\nOil Pressure Written successfully.\r\n", strlen(
1141:Src/uds_diag.c **** 					}
1142:Src/uds_diag.c **** 
1143:Src/uds_diag.c **** 					else if  ( UDS_Struct->Data[DID_1] == VIN_number_First_byte &&  UDS_Struct->Data[DID_2] == VIN
1144:Src/uds_diag.c **** 					{
1145:Src/uds_diag.c **** 						//HAL_UART_Transmit(&huart2, (uint8_t*) "\r\nVIN Number Written successfully.\r\n", strlen("\
1146:Src/uds_diag.c **** 					}
1147:Src/uds_diag.c **** 				}
1148:Src/uds_diag.c **** 				/*  Control Service  Session */
1149:Src/uds_diag.c **** 
1150:Src/uds_diag.c **** 				else if (UDS_Struct->Data[SID] == Control_Service)
1151:Src/uds_diag.c **** 
1152:Src/uds_diag.c **** 				{
1153:Src/uds_diag.c **** 
1154:Src/uds_diag.c **** 					switch ( UDS_Struct->Data[Sub_F] )
1155:Src/uds_diag.c **** 					{
1156:Src/uds_diag.c **** 
1157:Src/uds_diag.c **** 					case DefaultSession :
1158:Src/uds_diag.c **** 						//HAL_UART_Transmit(&huart2, (uint8_t*) "\r\nIt's Default Session!\r\n", strlen("\r\nIt's Def
1159:Src/uds_diag.c **** 						//UDS_Read_Data_Client(Frame_Info.DID);
1160:Src/uds_diag.c **** 						break ;
1161:Src/uds_diag.c **** 
1162:Src/uds_diag.c **** 					case ExtendedSession :
1163:Src/uds_diag.c **** 						//HAL_UART_Transmit(&huart2,(uint8_t*) "\r\nIt's Extended Session!\r\n", strlen("\r\nIt's Ext
1164:Src/uds_diag.c **** 						//UDS_Read_Data_Client(Frame_Info.DID);
1165:Src/uds_diag.c **** 						break ;
1166:Src/uds_diag.c **** 					}
1167:Src/uds_diag.c **** 				}
1168:Src/uds_diag.c **** 				/*  Security Service  */
1169:Src/uds_diag.c **** 
1170:Src/uds_diag.c **** 				else if (UDS_Struct->Data[SID] == Security_Service)
1171:Src/uds_diag.c **** 
1172:Src/uds_diag.c **** 				{
1173:Src/uds_diag.c **** 
1174:Src/uds_diag.c **** 					switch ( UDS_Struct->Data[Sub_F] )
1175:Src/uds_diag.c **** 					{
ARM GAS  C:\Users\wup15j\AppData\Local\Temp\ccx9HpCv.s 			page 59


1176:Src/uds_diag.c **** 
1177:Src/uds_diag.c **** 					case Key :
1178:Src/uds_diag.c **** 						//HAL_UART_Transmit(&huart2, (uint8_t*) "\r\nKey is Compatible!\r\n", strlen ( "\r\nKey is Co
1179:Src/uds_diag.c **** 						break ;
1180:Src/uds_diag.c **** 
1181:Src/uds_diag.c **** 					case Seed :
1182:Src/uds_diag.c **** 						//HAL_UART_Transmit(&huart2, (uint8_t*) "\r\nSeed is:\r\n", strlen ("\r\nSeed is:\r\n"), HAL_
1183:Src/uds_diag.c **** 						sendHexArrayAsASCII((uint8_t*)&UDS_Struct->Data[Data_Sub_Fun],4);
1184:Src/uds_diag.c **** 
1185:Src/uds_diag.c **** 						break ;
1186:Src/uds_diag.c **** 					}
1187:Src/uds_diag.c **** 				}
1188:Src/uds_diag.c **** 				/*  Tester_Representer_Service  */
1189:Src/uds_diag.c **** 
1190:Src/uds_diag.c **** 				else if (UDS_Struct->Data[SID] == Tester_Representer_Service)
1191:Src/uds_diag.c **** 
1192:Src/uds_diag.c **** 				{
1193:Src/uds_diag.c **** 
1194:Src/uds_diag.c **** 					//(&huart2,(uint8_t*) "\r\nECU Reseted!\r\n", strlen("\r\n ECU Reseted!\r\n"), HAL_MAX_DELAY);
1195:Src/uds_diag.c **** 
1196:Src/uds_diag.c **** 				}
1197:Src/uds_diag.c **** 
1198:Src/uds_diag.c **** 				else { /* no thing  */	}
 1906              		.loc 1 1198 28 is_stmt 1 view .LVU563
1199:Src/uds_diag.c **** 
1200:Src/uds_diag.c **** 			}
1201:Src/uds_diag.c **** 
1202:Src/uds_diag.c **** 		}
1203:Src/uds_diag.c **** 
1204:Src/uds_diag.c **** 		vTaskDelay(50);
 1907              		.loc 1 1204 3 view .LVU564
 1908 0020 3220     		movs	r0, #50
 1909 0022 FFF7FEFF 		bl	vTaskDelay
 1910              	.LVL130:
1060:Src/uds_diag.c **** 	{
 1911              		.loc 1 1060 7 view .LVU565
 1912              	.L160:
1060:Src/uds_diag.c **** 	{
 1913              		.loc 1 1060 2 view .LVU566
1062:Src/uds_diag.c **** 		{
 1914              		.loc 1 1062 3 view .LVU567
1062:Src/uds_diag.c **** 		{
 1915              		.loc 1 1062 6 is_stmt 0 view .LVU568
 1916 0026 1B4B     		ldr	r3, .L166+12
 1917 0028 1B78     		ldrb	r3, [r3]	@ zero_extendqisi2
1062:Src/uds_diag.c **** 		{
 1918              		.loc 1 1062 5 view .LVU569
 1919 002a 002B     		cmp	r3, #0
 1920 002c F8D0     		beq	.L156
1064:Src/uds_diag.c **** 			if ( UDS_Struct ->Data[Neg_Res_INDEX] == 0x7f)
 1921              		.loc 1 1064 4 is_stmt 1 view .LVU570
1064:Src/uds_diag.c **** 			if ( UDS_Struct ->Data[Neg_Res_INDEX] == 0x7f)
 1922              		.loc 1 1064 19 is_stmt 0 view .LVU571
 1923 002e 194B     		ldr	r3, .L166+12
 1924 0030 0022     		movs	r2, #0
 1925 0032 1A70     		strb	r2, [r3]
1065:Src/uds_diag.c **** 			{
ARM GAS  C:\Users\wup15j\AppData\Local\Temp\ccx9HpCv.s 			page 60


 1926              		.loc 1 1065 4 is_stmt 1 view .LVU572
1065:Src/uds_diag.c **** 			{
 1927              		.loc 1 1065 20 is_stmt 0 view .LVU573
 1928 0034 184B     		ldr	r3, .L166+16
 1929 0036 1A68     		ldr	r2, [r3]
1065:Src/uds_diag.c **** 			{
 1930              		.loc 1 1065 26 view .LVU574
 1931 0038 1378     		ldrb	r3, [r2]	@ zero_extendqisi2
1065:Src/uds_diag.c **** 			{
 1932              		.loc 1 1065 7 view .LVU575
 1933 003a 7F2B     		cmp	r3, #127
 1934 003c F0D0     		beq	.L156
1100:Src/uds_diag.c **** 				if (UDS_Struct->Data[SID] == Read_Service)
 1935              		.loc 1 1100 5 is_stmt 1 view .LVU576
1100:Src/uds_diag.c **** 				if (UDS_Struct->Data[SID] == Read_Service)
 1936              		.loc 1 1100 51 is_stmt 0 view .LVU577
 1937 003e 403B     		subs	r3, r3, #64
1100:Src/uds_diag.c **** 				if (UDS_Struct->Data[SID] == Read_Service)
 1938              		.loc 1 1100 27 view .LVU578
 1939 0040 1370     		strb	r3, [r2]
1101:Src/uds_diag.c **** 
 1940              		.loc 1 1101 5 is_stmt 1 view .LVU579
1101:Src/uds_diag.c **** 
 1941              		.loc 1 1101 19 is_stmt 0 view .LVU580
 1942 0042 154B     		ldr	r3, .L166+16
 1943 0044 1868     		ldr	r0, [r3]
1101:Src/uds_diag.c **** 
 1944              		.loc 1 1101 25 view .LVU581
 1945 0046 0378     		ldrb	r3, [r0]	@ zero_extendqisi2
1101:Src/uds_diag.c **** 
 1946              		.loc 1 1101 8 view .LVU582
 1947 0048 222B     		cmp	r3, #34
 1948 004a DBD0     		beq	.L165
1129:Src/uds_diag.c **** 
 1949              		.loc 1 1129 10 is_stmt 1 view .LVU583
1129:Src/uds_diag.c **** 
 1950              		.loc 1 1129 13 is_stmt 0 view .LVU584
 1951 004c 2E2B     		cmp	r3, #46
 1952 004e E7D0     		beq	.L156
1150:Src/uds_diag.c **** 
 1953              		.loc 1 1150 10 is_stmt 1 view .LVU585
1150:Src/uds_diag.c **** 
 1954              		.loc 1 1150 13 is_stmt 0 view .LVU586
 1955 0050 102B     		cmp	r3, #16
 1956 0052 E5D0     		beq	.L156
1170:Src/uds_diag.c **** 
 1957              		.loc 1 1170 10 is_stmt 1 view .LVU587
1170:Src/uds_diag.c **** 
 1958              		.loc 1 1170 13 is_stmt 0 view .LVU588
 1959 0054 272B     		cmp	r3, #39
 1960 0056 E3D1     		bne	.L156
1174:Src/uds_diag.c **** 					{
 1961              		.loc 1 1174 6 is_stmt 1 view .LVU589
1174:Src/uds_diag.c **** 					{
 1962              		.loc 1 1174 31 is_stmt 0 view .LVU590
 1963 0058 0379     		ldrb	r3, [r0, #4]	@ zero_extendqisi2
1174:Src/uds_diag.c **** 					{
ARM GAS  C:\Users\wup15j\AppData\Local\Temp\ccx9HpCv.s 			page 61


 1964              		.loc 1 1174 6 view .LVU591
 1965 005a 012B     		cmp	r3, #1
 1966 005c E0D1     		bne	.L156
1183:Src/uds_diag.c **** 
 1967              		.loc 1 1183 7 is_stmt 1 view .LVU592
 1968 005e 0421     		movs	r1, #4
 1969 0060 0530     		adds	r0, r0, #5
 1970 0062 FFF7FEFF 		bl	sendHexArrayAsASCII
 1971              	.LVL131:
1185:Src/uds_diag.c **** 					}
 1972              		.loc 1 1185 7 view .LVU593
 1973 0066 DBE7     		b	.L156
 1974              	.L162:
1108:Src/uds_diag.c **** 
 1975              		.loc 1 1108 7 view .LVU594
 1976 0068 0221     		movs	r1, #2
 1977 006a 0630     		adds	r0, r0, #6
 1978 006c FFF7FEFF 		bl	sendHexArrayAsASCII
 1979              	.LVL132:
 1980 0070 D6E7     		b	.L156
 1981              	.L163:
1115:Src/uds_diag.c **** 
 1982              		.loc 1 1115 7 view .LVU595
 1983 0072 0421     		movs	r1, #4
 1984 0074 0630     		adds	r0, r0, #6
 1985 0076 FFF7FEFF 		bl	sendHexArrayAsASCII
 1986              	.LVL133:
 1987 007a D1E7     		b	.L156
 1988              	.L164:
1122:Src/uds_diag.c **** 						//sendHexArrayAsASCII((uint8_t*)&UDS_Struct->Data[Data_DID],17);
 1989              		.loc 1 1122 7 view .LVU596
 1990 007c 1121     		movs	r1, #17
 1991 007e 0630     		adds	r0, r0, #6
 1992 0080 FFF7FEFF 		bl	sendHexArrayAsASCII
 1993              	.LVL134:
 1994 0084 CCE7     		b	.L156
 1995              	.L167:
 1996 0086 00BF     		.align	2
 1997              	.L166:
 1998 0088 00F18C00 		.word	9236736
 1999 008c 00F18600 		.word	8843520
 2000 0090 00EDA000 		.word	10546432
 2001 0094 00000000 		.word	.LANCHOR17
 2002 0098 00000000 		.word	.LANCHOR18
 2003              		.cfi_endproc
 2004              	.LFE92:
 2006              		.section	.text.UDS_Client_Callback,"ax",%progbits
 2007              		.align	1
 2008              		.global	UDS_Client_Callback
 2009              		.syntax unified
 2010              		.thumb
 2011              		.thumb_func
 2013              	UDS_Client_Callback:
 2014              	.LVL135:
 2015              	.LFB93:
1205:Src/uds_diag.c **** 	}
1206:Src/uds_diag.c **** }
ARM GAS  C:\Users\wup15j\AppData\Local\Temp\ccx9HpCv.s 			page 62


1207:Src/uds_diag.c **** 
1208:Src/uds_diag.c **** void UDS_Client_Callback(uint32_t TxPduId,PduInfoType *PduInfoPtr)
1209:Src/uds_diag.c **** {
 2016              		.loc 1 1209 1 view -0
 2017              		.cfi_startproc
 2018              		@ args = 0, pretend = 0, frame = 0
 2019              		@ frame_needed = 0, uses_anonymous_args = 0
 2020              		@ link register save eliminated.
1210:Src/uds_diag.c **** 	UDS_Tx_Confirm = 1;
 2021              		.loc 1 1210 2 view .LVU598
 2022              		.loc 1 1210 17 is_stmt 0 view .LVU599
 2023 0000 024B     		ldr	r3, .L169
 2024 0002 0122     		movs	r2, #1
 2025 0004 1A70     		strb	r2, [r3]
1211:Src/uds_diag.c **** 	UDS_Struct = PduInfoPtr;
 2026              		.loc 1 1211 2 is_stmt 1 view .LVU600
 2027              		.loc 1 1211 13 is_stmt 0 view .LVU601
 2028 0006 024B     		ldr	r3, .L169+4
 2029 0008 1960     		str	r1, [r3]
1212:Src/uds_diag.c **** 
1213:Src/uds_diag.c **** }
 2030              		.loc 1 1213 1 view .LVU602
 2031 000a 7047     		bx	lr
 2032              	.L170:
 2033              		.align	2
 2034              	.L169:
 2035 000c 00000000 		.word	.LANCHOR17
 2036 0010 00000000 		.word	.LANCHOR18
 2037              		.cfi_endproc
 2038              	.LFE93:
 2040              		.global	Target_Address
 2041              		.global	Source_Address
 2042              		.global	SupressedPosRes_Server
 2043              		.global	SupressedPosRes_CLient
 2044              		.global	key
 2045              		.global	seed
 2046              		.global	PduDataPTR
 2047              		.global	UDS_Struct
 2048              		.global	UDS_Tx_Confirm
 2049              		.global	flag_sub_fun
 2050              		.global	msg
 2051              		.global	Control
 2052              		.global	pos_Response
 2053              		.global	VIN_number_var
 2054              		.global	SW_version_var
 2055              		.global	Active_Session_var
 2056              		.global	Sec_State
 2057              		.global	Sec_u32SeedValue
 2058              		.global	Security_Service_Availability_Flag
 2059              		.global	global_session
 2060              		.global	global_sec_flag
 2061              		.global	PduInfoTypePtr
 2062              		.global	Control_Session_Extended
 2063              		.global	Send_Security_Seed
 2064              		.global	Control_Session_Default
 2065              		.global	Write_Data_Client
 2066              		.global	Read_Data_Client
ARM GAS  C:\Users\wup15j\AppData\Local\Temp\ccx9HpCv.s 			page 63


 2067              		.section	.bss.Control,"aw",%nobits
 2068              		.align	2
 2069              		.set	.LANCHOR11,. + 0
 2072              	Control:
 2073 0000 00000000 		.space	518
 2073      00000000 
 2073      00000000 
 2073      00000000 
 2073      00000000 
 2074              		.section	.bss.Control_Session_Default,"aw",%nobits
 2075              		.align	2
 2078              	Control_Session_Default:
 2079 0000 00000000 		.space	516
 2079      00000000 
 2079      00000000 
 2079      00000000 
 2079      00000000 
 2080              		.section	.bss.Control_Session_Extended,"aw",%nobits
 2081              		.align	2
 2084              	Control_Session_Extended:
 2085 0000 00000000 		.space	516
 2085      00000000 
 2085      00000000 
 2085      00000000 
 2085      00000000 
 2086              		.section	.bss.PduDataPTR,"aw",%nobits
 2087              		.align	2
 2088              		.set	.LANCHOR15,. + 0
 2091              	PduDataPTR:
 2092 0000 00000000 		.space	4
 2093              		.section	.bss.PduInfoTypePtr,"aw",%nobits
 2094              		.align	2
 2095              		.set	.LANCHOR0,. + 0
 2098              	PduInfoTypePtr:
 2099 0000 00000000 		.space	516
 2099      00000000 
 2099      00000000 
 2099      00000000 
 2099      00000000 
 2100              		.section	.bss.Read_Data_Client,"aw",%nobits
 2101              		.align	2
 2104              	Read_Data_Client:
 2105 0000 00000000 		.space	516
 2105      00000000 
 2105      00000000 
 2105      00000000 
 2105      00000000 
 2106              		.section	.bss.Sec_State,"aw",%nobits
 2107              		.set	.LANCHOR13,. + 0
 2110              	Sec_State:
 2111 0000 00       		.space	1
 2112              		.section	.bss.Sec_u32SeedValue,"aw",%nobits
 2113              		.align	2
 2114              		.set	.LANCHOR12,. + 0
 2117              	Sec_u32SeedValue:
 2118 0000 00000000 		.space	4
 2119              		.section	.bss.Security_Service_Availability_Flag,"aw",%nobits
ARM GAS  C:\Users\wup15j\AppData\Local\Temp\ccx9HpCv.s 			page 64


 2122              	Security_Service_Availability_Flag:
 2123 0000 00       		.space	1
 2124              		.section	.bss.Send_Security_Seed,"aw",%nobits
 2125              		.align	2
 2126              		.set	.LANCHOR3,. + 0
 2129              	Send_Security_Seed:
 2130 0000 00000000 		.space	516
 2130      00000000 
 2130      00000000 
 2130      00000000 
 2130      00000000 
 2131              		.section	.bss.UDS_Struct,"aw",%nobits
 2132              		.align	2
 2133              		.set	.LANCHOR18,. + 0
 2136              	UDS_Struct:
 2137 0000 00000000 		.space	4
 2138              		.section	.bss.UDS_Tx_Confirm,"aw",%nobits
 2139              		.set	.LANCHOR17,. + 0
 2142              	UDS_Tx_Confirm:
 2143 0000 00       		.space	1
 2144              		.section	.bss.Write_Data_Client,"aw",%nobits
 2145              		.align	2
 2148              	Write_Data_Client:
 2149 0000 00000000 		.space	516
 2149      00000000 
 2149      00000000 
 2149      00000000 
 2149      00000000 
 2150              		.section	.bss.flag_sub_fun,"aw",%nobits
 2151              		.set	.LANCHOR16,. + 0
 2154              	flag_sub_fun:
 2155 0000 00       		.space	1
 2156              		.section	.bss.global_sec_flag,"aw",%nobits
 2157              		.set	.LANCHOR14,. + 0
 2160              	global_sec_flag:
 2161 0000 00       		.space	1
 2162              		.section	.bss.key,"aw",%nobits
 2163              		.align	2
 2166              	key:
 2167 0000 00000000 		.space	4
 2168              		.section	.bss.msg,"aw",%nobits
 2169              		.align	2
 2170              		.set	.LANCHOR4,. + 0
 2173              	msg:
 2174 0000 00000000 		.space	516
 2174      00000000 
 2174      00000000 
 2174      00000000 
 2174      00000000 
 2175              		.section	.bss.pos_Response,"aw",%nobits
 2176              		.align	2
 2177              		.set	.LANCHOR5,. + 0
 2180              	pos_Response:
 2181 0000 00000000 		.space	518
 2181      00000000 
 2181      00000000 
 2181      00000000 
ARM GAS  C:\Users\wup15j\AppData\Local\Temp\ccx9HpCv.s 			page 65


 2181      00000000 
 2182              		.section	.bss.seed,"aw",%nobits
 2183              		.align	2
 2186              	seed:
 2187 0000 00000000 		.space	4
 2188              		.section	.data.Active_Session_var,"aw"
 2189              		.align	2
 2190              		.set	.LANCHOR7,. + 0
 2193              	Active_Session_var:
 2194 0000 AA998877 		.word	2005440938
 2195              		.section	.data.SW_version_var,"aw"
 2196              		.align	2
 2197              		.set	.LANCHOR6,. + 0
 2200              	SW_version_var:
 2201 0000 66550000 		.word	21862
 2202              		.section	.data.Source_Address,"aw"
 2205              	Source_Address:
 2206 0000 F1       		.byte	-15
 2207              		.section	.data.SupressedPosRes_CLient,"aw"
 2208              		.set	.LANCHOR2,. + 0
 2211              	SupressedPosRes_CLient:
 2212 0000 01       		.byte	1
 2213              		.section	.data.SupressedPosRes_Server,"aw"
 2214              		.set	.LANCHOR9,. + 0
 2217              	SupressedPosRes_Server:
 2218 0000 01       		.byte	1
 2219              		.section	.data.Target_Address,"aw"
 2220              		.set	.LANCHOR1,. + 0
 2223              	Target_Address:
 2224 0000 3D       		.byte	61
 2225              		.section	.data.VIN_number_var,"aw"
 2226              		.align	2
 2227              		.set	.LANCHOR8,. + 0
 2230              	VIN_number_var:
 2231 0000 11111111 		.ascii	"\021\021\021\021\021\021\021\021\021\021\021\021\021"
 2231      11111111 
 2231      11111111 
 2231      11
 2232 000d 11111111 		.ascii	"\021\021\021\021"
 2233              		.section	.data.global_session,"aw"
 2234              		.set	.LANCHOR10,. + 0
 2237              	global_session:
 2238 0000 01       		.byte	1
 2239              		.text
 2240              	.Letext0:
 2241              		.file 2 "c:\\program files (x86)\\gnu arm embedded toolchain\\10 2021.10\\arm-none-eabi\\include\\
 2242              		.file 3 "c:\\program files (x86)\\gnu arm embedded toolchain\\10 2021.10\\arm-none-eabi\\include\\
 2243              		.file 4 "Drivers/CMSIS/Device/ST/STM32F1xx/Include/stm32f103x6.h"
 2244              		.file 5 "Drivers/STM32F1xx_HAL_Driver/Inc/stm32f1xx_hal_def.h"
 2245              		.file 6 "Drivers/STM32F1xx_HAL_Driver/Inc/stm32f1xx_hal_dma.h"
 2246              		.file 7 "Drivers/STM32F1xx_HAL_Driver/Inc/stm32f1xx_hal_tim.h"
 2247              		.file 8 "Inc/CanIf.h"
 2248              		.file 9 "Inc/CanTp.h"
 2249              		.file 10 "Inc/uds_diag.h"
 2250              		.file 11 "Middlewares/Third_Party/FreeRTOS/Source/include/task.h"
 2251              		.file 12 "Drivers/STM32F1xx_HAL_Driver/Inc/stm32f1xx_hal.h"
 2252              		.file 13 "c:\\program files (x86)\\gnu arm embedded toolchain\\10 2021.10\\arm-none-eabi\\include\
ARM GAS  C:\Users\wup15j\AppData\Local\Temp\ccx9HpCv.s 			page 66


ARM GAS  C:\Users\wup15j\AppData\Local\Temp\ccx9HpCv.s 			page 67

